 MyFirstCinderApp

 Timestamp is 603514e0 (Tue Feb 23 15:44:48 2021)

 Preferred load address is 0000000140000000

 Start         Length     Name                   Class
 0001:00000000 00000d70H .text$di                CODE
 0001:00000d70 0013cc80H .text$mn                CODE
 0001:0013d9f0 00000200H .text$mn$00             CODE
 0001:0013dbf0 00007860H .text$x                 CODE
 0001:00145450 00000790H .text$yd                CODE
 0002:00000000 00000878H .idata$5                DATA
 0002:00000878 00000028H .00cfg                  DATA
 0002:000008a0 00000008H .CRT$XCA                DATA
 0002:000008a8 00000008H .CRT$XCAA               DATA
 0002:000008b0 00000068H .CRT$XCC                DATA
 0002:00000918 00000010H .CRT$XCL                DATA
 0002:00000928 00000100H .CRT$XCU                DATA
 0002:00000a28 00000008H .CRT$XCZ                DATA
 0002:00000a30 00000008H .CRT$XIA                DATA
 0002:00000a38 00000008H .CRT$XIAA               DATA
 0002:00000a40 00000008H .CRT$XIAC               DATA
 0002:00000a48 00000030H .CRT$XIC                DATA
 0002:00000a78 00000008H .CRT$XIZ                DATA
 0002:00000a80 00000008H .CRT$XLA                DATA
 0002:00000a88 00000008H .CRT$XLZ                DATA
 0002:00000a90 00000008H .CRT$XPA                DATA
 0002:00000a98 00000008H .CRT$XPB                DATA
 0002:00000aa0 00000010H .CRT$XPX                DATA
 0002:00000ab0 00000008H .CRT$XPXA               DATA
 0002:00000ab8 00000008H .CRT$XPZ                DATA
 0002:00000ac0 00000008H .CRT$XTA                DATA
 0002:00000ac8 00000018H .CRT$XTZ                DATA
 0002:00000ad0 00000000H .gehcont$y              DATA
 0002:00000ad0 00000000H .gfids$y                DATA
 0002:00000ae0 00037ba0H .rdata                  DATA
 0002:00038680 00000000H .rdata$CastGuardVftablesA DATA
 0002:00038680 00000000H .rdata$CastGuardVftablesC DATA
 0002:00038680 00000030H .rdata$T                DATA
 0002:000386b0 0000af44H .rdata$r                DATA
 0002:000435f4 000003ecH .rdata$zzzdbg           DATA
 0002:000439e0 00000008H .rtc$IAA                DATA
 0002:000439e8 00000008H .rtc$IZZ                DATA
 0002:000439f0 00000008H .rtc$TAA                DATA
 0002:000439f8 00000008H .rtc$TZZ                DATA
 0002:00043a00 00000008H .tls                    DATA
 0002:00043a08 00000014H .tls$                   DATA
 0002:00043a1c 00000004H .tls$ZZZ                DATA
 0002:00043a20 00015118H .xdata                  DATA
 0002:00058b38 00001804H .xdata$x                DATA
 0002:0005a33c 00000000H .edata                  DATA
 0002:0005a33c 00000118H .idata$2                DATA
 0002:0005a454 00000014H .idata$3                DATA
 0002:0005a468 00000878H .idata$4                DATA
 0002:0005ace0 00001366H .idata$6                DATA
 0003:00000000 00009af0H .data                   DATA
 0003:00009af0 000022f0H .data$r                 DATA
 0003:0000bde0 00003d80H .data$rs                DATA
 0003:0000fb60 00008428H .bss                    DATA
 0004:00000000 0000e370H .pdata                  DATA
 0005:00000000 00000094H _RDATA                  DATA
 0006:00000000 000002a0H .rsrc$01                DATA
 0006:000002a0 0000b038H .rsrc$02                DATA

  Address         Publics by Value              Rva+Base               Lib:Object

 0000:00000000       __x64_code_ranges_to_entry_points_count 0000000000000000     <absolute>
 0000:00000000       __guard_iat_table          0000000000000000     <absolute>
 0000:00000000       ___safe_se_handler_table   0000000000000000     <absolute>
 0000:00000000       __guard_iat_count          0000000000000000     <absolute>
 0000:00000000       __guard_longjmp_count      0000000000000000     <absolute>
 0000:00000000       __dynamic_value_reloc_table 0000000000000000     <absolute>
 0000:00000000       __guard_longjmp_table      0000000000000000     <absolute>
 0000:00000000       __x64_code_ranges_to_entry_points 0000000000000000     <absolute>
 0000:00000000       __hybrid_auxiliary_iat     0000000000000000     <absolute>
 0000:00000000       __guard_fids_count         0000000000000000     <absolute>
 0000:00000000       __arm64x_redirection_metadata 0000000000000000     <absolute>
 0000:00000000       __arm64x_extra_rfe_table   0000000000000000     <absolute>
 0000:00000000       __AbsoluteZero             0000000000000000     <absolute>
 0000:00000000       __hybrid_code_map          0000000000000000     <absolute>
 0000:00000000       __volatile_metadata        0000000000000000     <absolute>
 0000:00000000       __arm64x_extra_rfe_table_size 0000000000000000     <absolute>
 0000:00000000       ___safe_se_handler_count   0000000000000000     <absolute>
 0000:00000000       __guard_fids_table         0000000000000000     <absolute>
 0000:00000000       __guard_eh_cont_count      0000000000000000     <absolute>
 0000:00000000       __arm64x_redirection_metadata_count 0000000000000000     <absolute>
 0000:00000000       __enclave_config           0000000000000000     <absolute>
 0000:00000000       __guard_eh_cont_table      0000000000000000     <absolute>
 0000:00000000       __arm64x_native_entrypoint 0000000000000000     <absolute>
 0000:00000000       __hybrid_code_map_count    0000000000000000     <absolute>
 0000:00000100       __guard_flags              0000000000000100     <absolute>
 0000:00000000       __ImageBase                0000000140000000     <linker-defined>
 0001:00000d70       ??0exception@std@@QEAA@AEBV01@@Z 0000000140001d70 f i MyFirstCinderApp.obj
 0001:00000db0       ??1bad_cast@std@@UEAA@XZ   0000000140001db0 f i MyFirstCinderApp.obj
 0001:00000db0       ??1system_error@std@@UEAA@XZ 0000000140001db0 f i MyFirstCinderApp.obj
 0001:00000db0       ??1missing_wait@Concurrency@@UEAA@XZ 0000000140001db0 f i libconcrt:Exceptions.obj
 0001:00000db0       ??1length_error@std@@UEAA@XZ 0000000140001db0 f i libcpmt:xthrow.obj
 0001:00000db0       ??1scheduler_resource_allocation_error@Concurrency@@UEAA@XZ 0000000140001db0 f i libconcrt:Platform.obj
 0001:00000db0       ??1exception@std@@UEAA@XZ  0000000140001db0 f i MyFirstCinderApp.obj
 0001:00000db0       ??1context_unblock_unbalanced@Concurrency@@UEAA@XZ 0000000140001db0 f i libconcrt:Exceptions.obj
 0001:00000db0       ??1invalid_argument@std@@UEAA@XZ 0000000140001db0 f i libcpmt:xthrow.obj
 0001:00000db0       ??1invalid_operation@Concurrency@@UEAA@XZ 0000000140001db0 f i libconcrt:ResourceManager.obj
 0001:00000db0       ??1not_enough_room@utf8@@UEAA@XZ 0000000140001db0 f i cinder:Unicode.obj
 0001:00000db0       ??1invalid_utf16@utf8@@UEAA@XZ 0000000140001db0 f i cinder:Unicode.obj
 0001:00000db0       ??1invalid_service_owner@asio@@UEAA@XZ 0000000140001db0 f i cinder:AppBase.obj
 0001:00000db0       ??1invalid_oversubscribe_operation@Concurrency@@UEAA@XZ 0000000140001db0 f i libconcrt:Exceptions.obj
 0001:00000db0       ??1scheduler_worker_creation_error@Concurrency@@UEAA@XZ 0000000140001db0 f i libconcrt:Exceptions.obj
 0001:00000db0       ??1out_of_range@std@@UEAA@XZ 0000000140001db0 f i libcpmt:xthrow.obj
 0001:00000db0       ??1service_already_exists@asio@@UEAA@XZ 0000000140001db0 f i cinder:AppBase.obj
 0001:00000db0       ??1invalid_scheduler_policy_thread_specification@Concurrency@@UEAA@XZ 0000000140001db0 f i libconcrt:Exceptions.obj
 0001:00000db0       ??1improper_lock@Concurrency@@UEAA@XZ 0000000140001db0 f i libconcrt:rtlocks.obj
 0001:00000db0       ??1invalid_code_point@utf8@@UEAA@XZ 0000000140001db0 f i cinder:Unicode.obj
 0001:00000db0       ??1failure@ios_base@std@@UEAA@XZ 0000000140001db0 f i MyFirstCinderApp.obj
 0001:00000db0       ??1nested_scheduler_missing_detach@Concurrency@@UEAA@XZ 0000000140001db0 f i libconcrt:Exceptions.obj
 0001:00000db0       ??1invalid_scheduler_policy_value@Concurrency@@UEAA@XZ 0000000140001db0 f i libconcrt:Exceptions.obj
 0001:00000db0       ??1unsupported_os@Concurrency@@UEAA@XZ 0000000140001db0 f i libconcrt:Exceptions.obj
 0001:00000db0       ??1invalid_scheduler_policy_key@Concurrency@@UEAA@XZ 0000000140001db0 f i libconcrt:Exceptions.obj
 0001:00000db0       ??1improper_scheduler_reference@Concurrency@@UEAA@XZ 0000000140001db0 f i libconcrt:Exceptions.obj
 0001:00000db0       ??1bad_array_new_length@std@@UEAA@XZ 0000000140001db0 f i MyFirstCinderApp.obj
 0001:00000db0       ??1__non_rtti_object@std@@UEAA@XZ 0000000140001db0 f i libvcruntime:rtti.obj
 0001:00000db0       ??1context_self_unblock@Concurrency@@UEAA@XZ 0000000140001db0 f i libconcrt:Exceptions.obj
 0001:00000db0       ??1improper_scheduler_attach@Concurrency@@UEAA@XZ 0000000140001db0 f i libconcrt:Exceptions.obj
 0001:00000db0       ??1_Interruption_exception@details@Concurrency@@UEAA@XZ 0000000140001db0 f i libconcrt:TaskCollection.obj
 0001:00000db0       ??1bad_function_call@std@@UEAA@XZ 0000000140001db0 f i libcpmt:xthrow.obj
 0001:00000db0       ??1invalid_utf8@utf8@@UEAA@XZ 0000000140001db0 f i cinder:Unicode.obj
 0001:00000db0       ??1runtime_error@std@@UEAA@XZ 0000000140001db0 f i MyFirstCinderApp.obj
 0001:00000db0       ??1bad_typeid@std@@UEAA@XZ 0000000140001db0 f i libvcruntime:rtti.obj
 0001:00000db0       ??1bad_alloc@std@@UEAA@XZ  0000000140001db0 f i MyFirstCinderApp.obj
 0001:00000dd0       ?what@exception@std@@UEBAPEBDXZ 0000000140001dd0 f i MyFirstCinderApp.obj
 0001:00000df0       ??_Ginvalid_scheduler_policy_thread_specification@Concurrency@@UEAAPEAXI@Z 0000000140001df0 f i libconcrt:Exceptions.obj
 0001:00000df0       ??_Gexception@std@@UEAAPEAXI@Z 0000000140001df0 f i MyFirstCinderApp.obj
 0001:00000df0       ??_G__non_rtti_object@std@@UEAAPEAXI@Z 0000000140001df0 f i libvcruntime:rtti.obj
 0001:00000df0       ??_Gnested_scheduler_missing_detach@Concurrency@@UEAAPEAXI@Z 0000000140001df0 f i libconcrt:Exceptions.obj
 0001:00000df0       ??_Enot_enough_room@utf8@@UEAAPEAXI@Z 0000000140001df0 f i cinder:Unicode.obj
 0001:00000df0       ??_Gservice_already_exists@asio@@UEAAPEAXI@Z 0000000140001df0 f i cinder:AppBase.obj
 0001:00000df0       ??_Eimproper_lock@Concurrency@@UEAAPEAXI@Z 0000000140001df0 f i libconcrt:rtlocks.obj
 0001:00000df0       ??_Ginvalid_service_owner@asio@@UEAAPEAXI@Z 0000000140001df0 f i cinder:AppBase.obj
 0001:00000df0       ??_Gmissing_wait@Concurrency@@UEAAPEAXI@Z 0000000140001df0 f i libconcrt:Exceptions.obj
 0001:00000df0       ??_Gunsupported_os@Concurrency@@UEAAPEAXI@Z 0000000140001df0 f i libconcrt:Exceptions.obj
 0001:00000df0       ??_Gbad_array_new_length@std@@UEAAPEAXI@Z 0000000140001df0 f i MyFirstCinderApp.obj
 0001:00000df0       ??_Eimproper_scheduler_reference@Concurrency@@UEAAPEAXI@Z 0000000140001df0 f i libconcrt:Exceptions.obj
 0001:00000df0       ??_Einvalid_oversubscribe_operation@Concurrency@@UEAAPEAXI@Z 0000000140001df0 f i libconcrt:Exceptions.obj
 0001:00000df0       ??_Gexception@utf8@@UEAAPEAXI@Z 0000000140001df0 f i cinder:Unicode.obj
 0001:00000df0       ??_Gout_of_range@std@@UEAAPEAXI@Z 0000000140001df0 f i libcpmt:xthrow.obj
 0001:00000df0       ??_E__non_rtti_object@std@@UEAAPEAXI@Z 0000000140001df0 f i libvcruntime:rtti.obj
 0001:00000df0       ??_Einvalid_scheduler_policy_thread_specification@Concurrency@@UEAAPEAXI@Z 0000000140001df0 f i libconcrt:Exceptions.obj
 0001:00000df0       ??_Elength_error@std@@UEAAPEAXI@Z 0000000140001df0 f i libcpmt:xthrow.obj
 0001:00000df0       ??_Econtext_self_unblock@Concurrency@@UEAAPEAXI@Z 0000000140001df0 f i libconcrt:Exceptions.obj
 0001:00000df0       ??_Eunsupported_os@Concurrency@@UEAAPEAXI@Z 0000000140001df0 f i libconcrt:Exceptions.obj
 0001:00000df0       ??_Ebad_function_call@std@@UEAAPEAXI@Z 0000000140001df0 f i libcpmt:xthrow.obj
 0001:00000df0       ??_Gimproper_scheduler_reference@Concurrency@@UEAAPEAXI@Z 0000000140001df0 f i libconcrt:Exceptions.obj
 0001:00000df0       ??_G_Interruption_exception@details@Concurrency@@UEAAPEAXI@Z 0000000140001df0 f i libconcrt:TaskCollection.obj
 0001:00000df0       ??_Ginvalid_scheduler_policy_key@Concurrency@@UEAAPEAXI@Z 0000000140001df0 f i libconcrt:Exceptions.obj
 0001:00000df0       ??_Emissing_wait@Concurrency@@UEAAPEAXI@Z 0000000140001df0 f i libconcrt:Exceptions.obj
 0001:00000df0       ??_Ebad_alloc@std@@UEAAPEAXI@Z 0000000140001df0 f i * CIL library *:* CIL module *
 0001:00000df0       ??_Gbad_function_call@std@@UEAAPEAXI@Z 0000000140001df0 f i libcpmt:xthrow.obj
 0001:00000df0       ??_Ginvalid_operation@Concurrency@@UEAAPEAXI@Z 0000000140001df0 f i libconcrt:ResourceManager.obj
 0001:00000df0       ??_Eexception@utf8@@UEAAPEAXI@Z 0000000140001df0 f i cinder:Unicode.obj
 0001:00000df0       ??_Econtext_unblock_unbalanced@Concurrency@@UEAAPEAXI@Z 0000000140001df0 f i libconcrt:Exceptions.obj
 0001:00000df0       ??_Ebad_typeid@std@@UEAAPEAXI@Z 0000000140001df0 f i libvcruntime:rtti.obj
 0001:00000df0       ??_Gcontext_unblock_unbalanced@Concurrency@@UEAAPEAXI@Z 0000000140001df0 f i libconcrt:Exceptions.obj
 0001:00000df0       ??_Gbad_cast@std@@UEAAPEAXI@Z 0000000140001df0 f i MyFirstCinderApp.obj
 0001:00000df0       ??_Glength_error@std@@UEAAPEAXI@Z 0000000140001df0 f i libcpmt:xthrow.obj
 0001:00000df0       ??_Gcontext_self_unblock@Concurrency@@UEAAPEAXI@Z 0000000140001df0 f i libconcrt:Exceptions.obj
 0001:00000df0       ??_Gnot_enough_room@utf8@@UEAAPEAXI@Z 0000000140001df0 f i cinder:Unicode.obj
 0001:00000df0       ??_Eout_of_range@std@@UEAAPEAXI@Z 0000000140001df0 f i libcpmt:xthrow.obj
 0001:00000df0       ??_Gbad_typeid@std@@UEAAPEAXI@Z 0000000140001df0 f i libvcruntime:rtti.obj
 0001:00000df0       ??_Gimproper_scheduler_attach@Concurrency@@UEAAPEAXI@Z 0000000140001df0 f i libconcrt:Exceptions.obj
 0001:00000df0       ??_Einvalid_scheduler_policy_key@Concurrency@@UEAAPEAXI@Z 0000000140001df0 f i libconcrt:Exceptions.obj
 0001:00000df0       ??_Ginvalid_argument@std@@UEAAPEAXI@Z 0000000140001df0 f i libcpmt:xthrow.obj
 0001:00000df0       ??_Eruntime_error@std@@UEAAPEAXI@Z 0000000140001df0 f i * CIL library *:* CIL module *
 0001:00000df0       ??_Ginvalid_oversubscribe_operation@Concurrency@@UEAAPEAXI@Z 0000000140001df0 f i libconcrt:Exceptions.obj
 0001:00000df0       ??_Einvalid_scheduler_policy_value@Concurrency@@UEAAPEAXI@Z 0000000140001df0 f i libconcrt:Exceptions.obj
 0001:00000df0       ??_Gimproper_lock@Concurrency@@UEAAPEAXI@Z 0000000140001df0 f i libconcrt:rtlocks.obj
 0001:00000df0       ??_Eservice_already_exists@asio@@UEAAPEAXI@Z 0000000140001df0 f i cinder:AppBase.obj
 0001:00000df0       ??_Ebad_array_new_length@std@@UEAAPEAXI@Z 0000000140001df0 f i * CIL library *:* CIL module *
 0001:00000df0       ??_Einvalid_service_owner@asio@@UEAAPEAXI@Z 0000000140001df0 f i cinder:AppBase.obj
 0001:00000df0       ??_Enested_scheduler_missing_detach@Concurrency@@UEAAPEAXI@Z 0000000140001df0 f i libconcrt:Exceptions.obj
 0001:00000df0       ??_Gbad_alloc@std@@UEAAPEAXI@Z 0000000140001df0 f i MyFirstCinderApp.obj
 0001:00000df0       ??_Eexception@std@@UEAAPEAXI@Z 0000000140001df0 f i * CIL library *:* CIL module *
 0001:00000df0       ??_Gruntime_error@std@@UEAAPEAXI@Z 0000000140001df0 f i MyFirstCinderApp.obj
 0001:00000df0       ??_Glogic_error@std@@UEAAPEAXI@Z 0000000140001df0 f i cinder:AppBase.obj
 0001:00000df0       ??_Elogic_error@std@@UEAAPEAXI@Z 0000000140001df0 f i cinder:AppBase.obj
 0001:00000df0       ??_Ebad_cast@std@@UEAAPEAXI@Z 0000000140001df0 f i * CIL library *:* CIL module *
 0001:00000df0       ??_Einvalid_operation@Concurrency@@UEAAPEAXI@Z 0000000140001df0 f i libconcrt:ResourceManager.obj
 0001:00000df0       ??_Eimproper_scheduler_attach@Concurrency@@UEAAPEAXI@Z 0000000140001df0 f i libconcrt:Exceptions.obj
 0001:00000df0       ??_Ginvalid_scheduler_policy_value@Concurrency@@UEAAPEAXI@Z 0000000140001df0 f i libconcrt:Exceptions.obj
 0001:00000df0       ??_E_Interruption_exception@details@Concurrency@@UEAAPEAXI@Z 0000000140001df0 f i libconcrt:TaskCollection.obj
 0001:00000df0       ??_Einvalid_argument@std@@UEAAPEAXI@Z 0000000140001df0 f i libcpmt:xthrow.obj
 0001:00000e40       ??0bad_array_new_length@std@@QEAA@XZ 0000000140001e40 f i MyFirstCinderApp.obj
 0001:00000e70       ?__scrt_throw_std_bad_array_new_length@@YAXXZ 0000000140001e70 f i LIBCMT:throw_bad_alloc.obj
 0001:00000e70       ?_Throw_bad_array_new_length@std@@YAXXZ 0000000140001e70 f i MyFirstCinderApp.obj
 0001:00000e90       ??0bad_array_new_length@std@@QEAA@AEBV01@@Z 0000000140001e90 f i MyFirstCinderApp.obj
 0001:00000ed0       ??0bad_alloc@std@@QEAA@AEBV01@@Z 0000000140001ed0 f i MyFirstCinderApp.obj
 0001:00000f10       ??0bad_cast@std@@QEAA@XZ   0000000140001f10 f i MyFirstCinderApp.obj
 0001:00000f40       ?_Throw_bad_cast@std@@YAXXZ 0000000140001f40 f i MyFirstCinderApp.obj
 0001:00000f60       ??0bad_cast@std@@QEAA@AEBV01@@Z 0000000140001f60 f i MyFirstCinderApp.obj
 0001:00000fa0       ?_Adjust_manually_vector_aligned@std@@YAXAEAPEAXAEA_K@Z 0000000140001fa0 f i MyFirstCinderApp.obj
 0001:00000fd0       ?_Decref@_Ref_count_base@std@@QEAAXXZ 0000000140001fd0 f i MyFirstCinderApp.obj
 0001:00001020       _matherr                   0000000140002020 f i LIBCMT:matherr.obj
 0001:00001020       ?EnterHyperCriticalRegion@ContextBase@details@Concurrency@@QEAAHXZ 0000000140002020 f i libconcrt:ContextBase.obj
 0001:00001020       ?ExitHyperCriticalRegion@ContextBase@details@Concurrency@@QEAAHXZ 0000000140002020 f i libconcrt:ContextBase.obj
 0001:00001020       ?_Get_deleter@_Ref_count_base@std@@UEBAPEAXAEBVtype_info@@@Z 0000000140002020 f i MyFirstCinderApp.obj
 0001:00001020       _get_startup_thread_locale_mode 0000000140002020 f i LIBCMT:thread_locale.obj
 0001:00001020       ?ExitCriticalRegion@ContextBase@details@Concurrency@@QEAAHXZ 0000000140002020 f i libconcrt:ContextBase.obj
 0001:00001020       _get_startup_new_mode      0000000140002020 f i LIBCMT:new_mode.obj
 0001:00001020       __scrt_exe_initialize_mta  0000000140002020 f i LIBCMT:utility_desktop.obj
 0001:00001020       _get_startup_commit_mode   0000000140002020 f i LIBCMT:commit_mode.obj
 0001:00001020       ?GetContextKind@ExternalContextBase@details@Concurrency@@EEBA?AW4ContextKind@ContextBase@23@XZ 0000000140002020 f i libconcrt:ExternalContextBase.obj
 0001:00001020       __scrt_stub_for_initialize_mta 0000000140002020 f i LIBCMT:utility_desktop.obj
 0001:00001020       ?getNumIndices@VertBatch@gl@cinder@@MEBA_KXZ 0000000140002020 f i cinder:Batch.obj
 0001:00001020       ?sync@?$basic_streambuf@DU?$char_traits@D@std@@@std@@MEAAHXZ 0000000140002020 f i RapidJson.obj
 0001:00001020       ?EnterCriticalRegion@ContextBase@details@Concurrency@@QEAAHXZ 0000000140002020 f i libconcrt:ContextBase.obj
 0001:00001020       ?showmanyc@?$basic_streambuf@DU?$char_traits@D@std@@@std@@MEAA_JXZ 0000000140002020 f i RapidJson.obj
 0001:00001020       ?GetDefaultDestination@VirtualProcessor@details@Concurrency@@UEAAPEAUIExecutionContext@3@XZ 0000000140002020 f i libconcrt:VirtualProcessor.obj
 0001:00001020       __scrt_initialize_winrt    0000000140002020 f i LIBCMT:utility_desktop.obj
 0001:00001020       ?PreRunnableSearch@VirtualProcessor@details@Concurrency@@UEAAPEAVInternalContextBase@23@XZ 0000000140002020 f i libconcrt:VirtualProcessor.obj
 0001:00001030       ?_Xlen_string@std@@YAXXZ   0000000140002030 f i MyFirstCinderApp.obj
 0001:00001050       ??0runtime_error@std@@QEAA@AEBV01@@Z 0000000140002050 f i MyFirstCinderApp.obj
 0001:00001090       ?message@error_code@std@@QEBA?AV?$basic_string@DU?$char_traits@D@std@@V?$allocator@D@2@@2@XZ 0000000140002090 f i MyFirstCinderApp.obj
 0001:000010c0       ?default_error_condition@error_category@std@@UEBA?AVerror_condition@2@H@Z 00000001400020c0 f i MyFirstCinderApp.obj
 0001:000010d0       ?equivalent@error_category@std@@UEBA_NHAEBVerror_condition@2@@Z 00000001400020d0 f i MyFirstCinderApp.obj
 0001:00001110       ?equivalent@error_category@std@@UEBA_NAEBVerror_code@2@H@Z 0000000140002110 f i MyFirstCinderApp.obj
 0001:00001130       ?make_error_code@std@@YA?AVerror_code@1@W4errc@1@@Z 0000000140002130 f i MyFirstCinderApp.obj
 0001:00001150       ?make_error_code@std@@YA?AVerror_code@1@W4io_errc@1@@Z 0000000140002150 f i MyFirstCinderApp.obj
 0001:00001170       ??0_System_error@std@@IEAA@Verror_code@1@AEBV?$basic_string@DU?$char_traits@D@std@@V?$allocator@D@2@@1@@Z 0000000140002170 f i MyFirstCinderApp.obj
 0001:00001310       ??_Gfailure@ios_base@std@@UEAAPEAXI@Z 0000000140002310 f i MyFirstCinderApp.obj
 0001:00001310       ??_Gsystem_error@std@@UEAAPEAXI@Z 0000000140002310 f i MyFirstCinderApp.obj
 0001:00001310       ??_Efailure@ios_base@std@@UEAAPEAXI@Z 0000000140002310 f i * CIL library *:* CIL module *
 0001:00001310       ??_G_System_error@std@@UEAAPEAXI@Z 0000000140002310 f i MyFirstCinderApp.obj
 0001:00001310       ??_Esystem_error@std@@UEAAPEAXI@Z 0000000140002310 f i * CIL library *:* CIL module *
 0001:00001310       ??_E_System_error@std@@UEAAPEAXI@Z 0000000140002310 f i * CIL library *:* CIL module *
 0001:00001360       ??0system_error@std@@QEAA@Verror_code@1@@Z 0000000140002360 f i MyFirstCinderApp.obj
 0001:00001440       ?_Throw_system_error@std@@YAXW4errc@1@@Z 0000000140002440 f i MyFirstCinderApp.obj
 0001:00001480       ??0system_error@std@@QEAA@AEBV01@@Z 0000000140002480 f i MyFirstCinderApp.obj
 0001:000014e0       ??0_System_error@std@@QEAA@AEBV01@@Z 00000001400024e0 f i MyFirstCinderApp.obj
 0001:00001530       ??1_System_error_message@std@@QEAA@XZ 0000000140002530 f i MyFirstCinderApp.obj
 0001:00001540       ?name@_Generic_error_category@std@@UEBAPEBDXZ 0000000140002540 f i MyFirstCinderApp.obj
 0001:00001550       ?message@_Generic_error_category@std@@UEBA?AV?$basic_string@DU?$char_traits@D@std@@V?$allocator@D@2@@2@H@Z 0000000140002550 f i MyFirstCinderApp.obj
 0001:000015a0       ??_Gmisc_category@detail@error@asio@@UEAAPEAXI@Z 00000001400025a0 f i cinder:AppBase.obj
 0001:000015a0       ??_G_Iostream_error_category2@std@@UEAAPEAXI@Z 00000001400025a0 f i MyFirstCinderApp.obj
 0001:000015a0       ??_E_Generic_error_category@std@@UEAAPEAXI@Z 00000001400025a0 f i * CIL library *:* CIL module *
 0001:000015a0       ??_Esystem_category@detail@asio@@UEAAPEAXI@Z 00000001400025a0 f i cinder:AppBase.obj
 0001:000015a0       ??_Emisc_category@detail@error@asio@@UEAAPEAXI@Z 00000001400025a0 f i cinder:AppBase.obj
 0001:000015a0       ??_E_System_error_category@std@@UEAAPEAXI@Z 00000001400025a0 f i * CIL library *:* CIL module *
 0001:000015a0       ??_E_Iostream_error_category2@std@@UEAAPEAXI@Z 00000001400025a0 f i * CIL library *:* CIL module *
 0001:000015a0       ??_G_System_error_category@std@@UEAAPEAXI@Z 00000001400025a0 f i MyFirstCinderApp.obj
 0001:000015a0       ??_Gsystem_category@detail@asio@@UEAAPEAXI@Z 00000001400025a0 f i cinder:AppBase.obj
 0001:000015a0       ??_G_Generic_error_category@std@@UEAAPEAXI@Z 00000001400025a0 f i MyFirstCinderApp.obj
 0001:000015d0       ?name@_Iostream_error_category2@std@@UEBAPEBDXZ 00000001400025d0 f i MyFirstCinderApp.obj
 0001:000015e0       ?message@_Iostream_error_category2@std@@UEBA?AV?$basic_string@DU?$char_traits@D@std@@V?$allocator@D@2@@2@H@Z 00000001400025e0 f i MyFirstCinderApp.obj
 0001:00001660       ?name@_System_error_category@std@@UEBAPEBDXZ 0000000140002660 f i MyFirstCinderApp.obj
 0001:00001670       ?message@_System_error_category@std@@UEBA?AV?$basic_string@DU?$char_traits@D@std@@V?$allocator@D@2@@2@H@Z 0000000140002670 f i MyFirstCinderApp.obj
 0001:000016e0       ?default_error_condition@_System_error_category@std@@UEBA?AVerror_condition@2@H@Z 00000001400026e0 f i MyFirstCinderApp.obj
 0001:00001740       ?generic_category@std@@YAAEBVerror_category@1@XZ 0000000140002740 f i MyFirstCinderApp.obj
 0001:00001750       ?stoi@std@@YAHAEBV?$basic_string@DU?$char_traits@D@std@@V?$allocator@D@2@@1@PEA_KH@Z 0000000140002750 f i MyFirstCinderApp.obj
 0001:000017c0       ??_G_Facet_base@std@@UEAAPEAXI@Z 00000001400027c0 f i MyFirstCinderApp.obj
 0001:000017c0       ??_E_Facet_base@std@@UEAAPEAXI@Z 00000001400027c0 f i * CIL library *:* CIL module *
 0001:000017f0       ??1_Locinfo@std@@QEAA@XZ   00000001400027f0 f i MyFirstCinderApp.obj
 0001:00001890       ?_Incref@facet@locale@std@@UEAAXXZ 0000000140002890 f i MyFirstCinderApp.obj
 0001:000018a0       ?_Decref@facet@locale@std@@UEAAPEAV_Facet_base@3@XZ 00000001400028a0 f i MyFirstCinderApp.obj
 0001:000018b0       ??1facet@locale@std@@MEAA@XZ 00000001400028b0 f i MyFirstCinderApp.obj
 0001:000018c0       ??1locale@std@@QEAA@XZ     00000001400028c0 f i MyFirstCinderApp.obj
 0001:000018f0       ?_Getcat@?$ctype@D@std@@SA_KPEAPEBVfacet@locale@2@PEBV42@@Z 00000001400028f0 f i MyFirstCinderApp.obj
 0001:00001a80       ?do_tolower@?$ctype@D@std@@MEBADD@Z 0000000140002a80 f i MyFirstCinderApp.obj
 0001:00001a90       ?do_tolower@?$ctype@D@std@@MEBAPEBDPEADPEBD@Z 0000000140002a90 f i MyFirstCinderApp.obj
 0001:00001ae0       ?do_toupper@?$ctype@D@std@@MEBADD@Z 0000000140002ae0 f i MyFirstCinderApp.obj
 0001:00001af0       ?do_toupper@?$ctype@D@std@@MEBAPEBDPEADPEBD@Z 0000000140002af0 f i MyFirstCinderApp.obj
 0001:00001b40       ?do_widen@?$ctype@D@std@@MEBADD@Z 0000000140002b40 f i MyFirstCinderApp.obj
 0001:00001b40       ?do_narrow@?$ctype@D@std@@MEBADDD@Z 0000000140002b40 f i MyFirstCinderApp.obj
 0001:00001b50       ?do_widen@?$ctype@D@std@@MEBAPEBDPEBD0PEAD@Z 0000000140002b50 f i MyFirstCinderApp.obj
 0001:00001b70       ?do_narrow@?$ctype@D@std@@MEBAPEBDPEBD0DPEAD@Z 0000000140002b70 f i MyFirstCinderApp.obj
 0001:00001b90       ??_G?$ctype@D@std@@MEAAPEAXI@Z 0000000140002b90 f i MyFirstCinderApp.obj
 0001:00001b90       ??_E?$ctype@D@std@@MEAAPEAXI@Z 0000000140002b90 f i * CIL library *:* CIL module *
 0001:00001c00       ??0failure@ios_base@std@@QEAA@PEBDAEBVerror_code@2@@Z 0000000140002c00 f i MyFirstCinderApp.obj
 0001:00001ce0       ?clear@ios_base@std@@QEAAXH_N@Z 0000000140002ce0 f i MyFirstCinderApp.obj
 0001:00001d70       ??0failure@ios_base@std@@QEAA@AEBV012@@Z 0000000140002d70 f i MyFirstCinderApp.obj
 0001:00001dd0       ?_Make_ec@filesystem@std@@YA?AVerror_code@2@W4__std_win_error@@@Z 0000000140002dd0 f i MyFirstCinderApp.obj
 0001:00001df0       ?_Throw_system_error_from_std_win_error@filesystem@std@@YAXW4__std_win_error@@@Z 0000000140002df0 f i MyFirstCinderApp.obj
 0001:00001e30       ?_Convert_narrow_to_wide@filesystem@std@@YA?AV?$basic_string@_WU?$char_traits@_W@std@@V?$allocator@_W@2@@2@W4__std_code_page@@V?$basic_string_view@DU?$char_traits@D@std@@@2@@Z 0000000140002e30 f i MyFirstCinderApp.obj
 0001:00001f90       ?_Find_root_name_end@filesystem@std@@YAPEB_WQEB_W0@Z 0000000140002f90 f i MyFirstCinderApp.obj
 0001:00002080       ?_Range_compare@filesystem@std@@YAHQEB_W000@Z 0000000140003080 f i MyFirstCinderApp.obj
 0001:000020f0       ?string@path@filesystem@std@@QEBA?AV?$basic_string@DU?$char_traits@D@std@@V?$allocator@D@2@@3@XZ 00000001400030f0 f i MyFirstCinderApp.obj
 0001:000021e0       ?compare@path@filesystem@std@@QEBAHV?$basic_string_view@_WU?$char_traits@_W@std@@@3@@Z 00000001400031e0 f i MyFirstCinderApp.obj
 0001:00002400       ?filename@path@filesystem@std@@QEBA?AV123@XZ 0000000140003400 f i MyFirstCinderApp.obj
 0001:000024b0       ?extension@path@filesystem@std@@QEBA?AV123@XZ 00000001400034b0 f i MyFirstCinderApp.obj
 0001:000025b0       ??1?$basic_string@_WU?$char_traits@_W@std@@V?$allocator@_W@2@@std@@QEAA@XZ 00000001400035b0 f i MyFirstCinderApp.obj
 0001:000025b0       ?_Tidy_deallocate@?$basic_string@_WU?$char_traits@_W@std@@V?$allocator@_W@2@@std@@AEAAXXZ 00000001400035b0 f i MyFirstCinderApp.obj
 0001:000025b0       ??1path@filesystem@std@@QEAA@XZ 00000001400035b0 f i MyFirstCinderApp.obj
 0001:000025b0       ??1?$basic_string@_SU?$char_traits@_S@std@@V?$allocator@_S@2@@std@@QEAA@XZ 00000001400035b0 f i cinder:Unicode.obj
 0001:00002620       ??1Event@app@cinder@@UEAA@XZ 0000000140003620 f i MyFirstCinderApp.obj
 0001:00002620       ??1MouseEvent@app@cinder@@UEAA@XZ 0000000140003620 f i MyFirstCinderApp.obj
 0001:00002680       ??_GEvent@app@cinder@@UEAAPEAXI@Z 0000000140003680 f i MyFirstCinderApp.obj
 0001:00002680       ??_EEvent@app@cinder@@UEAAPEAXI@Z 0000000140003680 f i * CIL library *:* CIL module *
 0001:00002710       ??1TouchEvent@app@cinder@@UEAA@XZ 0000000140003710 f i MyFirstCinderApp.obj
 0001:000027e0       ??1KeyEvent@app@cinder@@UEAA@XZ 00000001400037e0 f i MyFirstCinderApp.obj
 0001:00002880       ??1FileDropEvent@app@cinder@@UEAA@XZ 0000000140003880 f i MyFirstCinderApp.obj
 0001:000029b0       ??1?$shared_ptr@VDataSourceBuffer@cinder@@@std@@QEAA@XZ 00000001400039b0 f i cinder:DataSource.obj
 0001:000029b0       ??1?$shared_ptr@X@std@@QEAA@XZ 00000001400039b0 f i cinder:AppBase.obj
 0001:000029b0       ??1?$shared_ptr@UDisconnector@detail@signals@cinder@@@std@@QEAA@XZ 00000001400039b0 f i cinder:Signals.obj
 0001:000029b0       ??1?$shared_ptr@UIWICBitmapFrameEncode@@@std@@QEAA@XZ 00000001400039b0 f i cinder:ImageTargetFileWic.obj
 0001:000029b0       ??1?$shared_ptr@VVertBatch@gl@cinder@@@std@@QEAA@XZ 00000001400039b0 f i cinder:Context.cpp.obj
 0001:000029b0       ??1?$shared_ptr@VDataTargetPath@cinder@@@std@@QEAA@XZ 00000001400039b0 f i Image.obj
 0001:000029b0       ??1?$shared_ptr@VTimelineItem@cinder@@@std@@QEAA@XZ 00000001400039b0 f i cinder:Timeline.obj
 0001:000029b0       ??1?$shared_ptr@VVao@gl@cinder@@@std@@QEAA@XZ 00000001400039b0 f i cinder:Context.cpp.obj
 0001:000029b0       ??1?$shared_ptr@VShaderPreprocessor@gl@cinder@@@std@@QEAA@XZ 00000001400039b0 f i cinder:GlslProg.obj
 0001:000029b0       ??1?$shared_ptr@VBuffer@cinder@@@std@@QEAA@XZ 00000001400039b0 f i cinder:Font.obj
 0001:000029b0       ??1?$shared_ptr@V?$ImageTargetGlTexture@G@gl@cinder@@@std@@QEAA@XZ 00000001400039b0 f i cinder:Texture.obj
 0001:000029b0       ??1?$shared_ptr@VRenderer@app@cinder@@@std@@QEAA@XZ 00000001400039b0 f i MyFirstCinderApp.obj
 0001:000029b0       ??1?$shared_ptr@VTransformFeedbackObj@gl@cinder@@@std@@QEAA@XZ 00000001400039b0 f i cinder:Context.cpp.obj
 0001:000029b0       ??1?$shared_ptr@VGlslProg@gl@cinder@@@std@@QEAA@XZ 00000001400039b0 f i cinder:wrapper.obj
 0001:000029b0       ??1?$shared_ptr@VVbo@gl@cinder@@@std@@QEAA@XZ 00000001400039b0 f i cinder:draw.obj
 0001:000029b0       ??1?$shared_ptr@UPlatformData@Context@gl@cinder@@@std@@QEAA@XZ 00000001400039b0 f i cinder:RendererImplGlMsw.obj
 0001:000029b0       ??1?$shared_ptr@VIStreamFile@cinder@@@std@@QEAA@XZ 00000001400039b0 f i cinder:Stream.obj
 0001:000029b0       ??1?$shared_ptr@VLoggerConsole@log@cinder@@@std@@QEAA@XZ 00000001400039b0 f i cinder:Log.obj
 0001:000029b0       ??1?$shared_ptr@VComOStream@msw@cinder@@@std@@QEAA@XZ 00000001400039b0 f i cinder:ImageTargetFileWic.obj
 0001:000029b0       ??1?$shared_ptr@VPbo@gl@cinder@@@std@@QEAA@XZ 00000001400039b0 f i Image.obj
 0001:000029b0       ??1?$shared_ptr@VWindow@app@cinder@@@std@@QEAA@XZ 00000001400039b0 f i MyFirstCinderApp.obj
 0001:000029b0       ??1?$shared_ptr@V?$ImageTargetSurface@E@cinder@@@std@@QEAA@XZ 00000001400039b0 f i cinder:Surface.obj
 0001:000029b0       ??1?$shared_ptr@VBlankingWindow@app@cinder@@@std@@QEAA@XZ 00000001400039b0 f i cinder:AppImplMswBasic.obj
 0001:000029b0       ??1?$shared_ptr@UIWICStream@@@std@@QEAA@XZ 00000001400039b0 f i cinder:ImageSourceFileWic.obj
 0001:000029b0       ??1?$shared_ptr@UIWICImagingFactory@@@std@@QEAA@XZ 00000001400039b0 f i cinder:ImageTargetFileWic.obj
 0001:000029b0       ??1?$shared_ptr@V?$ImageTargetGlTexture@Thalf_float@cinder@@@gl@cinder@@@std@@QEAA@XZ 00000001400039b0 f i cinder:Texture.obj
 0001:000029b0       ??1?$shared_ptr@VTextureBase@gl@cinder@@@std@@QEAA@XZ 00000001400039b0 f i cinder:draw.obj
 0001:000029b0       ??1?$shared_ptr@VDataSource@cinder@@@std@@QEAA@XZ 00000001400039b0 f i cinder:ImageIo.obj
 0001:000029b0       ??1?$shared_ptr@UPlatformDataMsw@gl@cinder@@@std@@QEAA@XZ 00000001400039b0 f i cinder:Environment.obj
 0001:000029b0       ??1?$shared_ptr@VTexture2d@gl@cinder@@@std@@QEAA@XZ 00000001400039b0 f i MyFirstCinderApp.obj
 0001:000029b0       ??1?$shared_ptr@VLogger@log@cinder@@@std@@QEAA@XZ 00000001400039b0 f i cinder:Log.obj
 0001:000029b0       ??1?$shared_ptr@UIWICBitmapEncoder@@@std@@QEAA@XZ 00000001400039b0 f i cinder:ImageTargetFileWic.obj
 0001:000029b0       ??1?$shared_ptr@VBufferObj@gl@cinder@@@std@@QEAA@XZ 00000001400039b0 f i cinder:wrapper.obj
 0001:000029b0       ??1?$shared_ptr@UIWICBitmapDecoder@@@std@@QEAA@XZ 00000001400039b0 f i cinder:ImageSourceFileWic.obj
 0001:000029b0       ??1?$shared_ptr@E@std@@QEAA@XZ 00000001400039b0 f i Image.obj
 0001:000029b0       ??1?$shared_ptr@VImageTarget@cinder@@@std@@QEAA@XZ 00000001400039b0 f i cinder:Surface.obj
 0001:000029b0       ??1?$shared_ptr@VDisplay@cinder@@@std@@QEAA@XZ 00000001400039b0 f i MyFirstCinderApp.obj
 0001:000029b0       ??1?$shared_ptr@VDataTarget@cinder@@@std@@QEAA@XZ 00000001400039b0 f i Image.obj
 0001:000029b0       ??1?$shared_ptr@VImageSource@cinder@@@std@@QEAA@XZ 00000001400039b0 f i Image.obj
 0001:000029b0       ??1?$shared_ptr@M@std@@QEAA@XZ 00000001400039b0 f i cinder:Surface.obj
 0001:000029b0       ??1?$shared_ptr@VOStreamFile@cinder@@@std@@QEAA@XZ 00000001400039b0 f i cinder:DataTarget.obj
 0001:000029b0       ??1?$shared_ptr@VDataSourcePath@cinder@@@std@@QEAA@XZ 00000001400039b0 f i cinder:ImageIo.obj
 0001:000029b0       ??1?$shared_ptr@V?$ImageTargetGlTexture@E@gl@cinder@@@std@@QEAA@XZ 00000001400039b0 f i cinder:Texture.obj
 0001:000029b0       ??1?$shared_ptr@UIWICBitmapFrameDecode@@@std@@QEAA@XZ 00000001400039b0 f i cinder:ImageSourceFileWic.obj
 0001:000029b0       ??1?$shared_ptr@VTimeline@cinder@@@std@@QEAA@XZ 00000001400039b0 f i cinder:AppBase.obj
 0001:000029b0       ??1FullScreenOptions@app@cinder@@QEAA@XZ 00000001400039b0 f i MyFirstCinderApp.obj
 0001:000029b0       ??1?$shared_ptr@UIWICFormatConverter@@@std@@QEAA@XZ 00000001400039b0 f i cinder:ImageSourceFileWic.obj
 0001:000029b0       ??1?$shared_ptr@V?$ImageTargetGlTexture@M@gl@cinder@@@std@@QEAA@XZ 00000001400039b0 f i cinder:Texture.obj
 0001:000029b0       ??1?$shared_ptr@VIStreamCinder@cinder@@@std@@QEAA@XZ 00000001400039b0 f i cinder:Stream.obj
 0001:000029b0       ??1?$shared_ptr@Vio_service@asio@@@std@@QEAA@XZ 00000001400039b0 f i cinder:AppBase.obj
 0001:00002a00       ??1Settings@AppBase@app@cinder@@UEAA@XZ 0000000140003a00 f i MyFirstCinderApp.obj
 0001:00002b50       ?mouseMove@AppBase@app@cinder@@UEAAXVMouseEvent@23@@Z 0000000140003b50 f i MyFirstCinderApp.obj
 0001:00002b50       ?mouseUp@AppBase@app@cinder@@UEAAXVMouseEvent@23@@Z 0000000140003b50 f i MyFirstCinderApp.obj
 0001:00002b50       ?mouseDrag@AppBase@app@cinder@@UEAAXVMouseEvent@23@@Z 0000000140003b50 f i MyFirstCinderApp.obj
 0001:00002b50       ?mouseWheel@AppBase@app@cinder@@UEAAXVMouseEvent@23@@Z 0000000140003b50 f i MyFirstCinderApp.obj
 0001:00002b50       ?mouseDown@AppBase@app@cinder@@UEAAXVMouseEvent@23@@Z 0000000140003b50 f i cinder:AppBase.obj
 0001:00002bb0       ?touchesEnded@AppBase@app@cinder@@UEAAXVTouchEvent@23@@Z 0000000140003bb0 f i MyFirstCinderApp.obj
 0001:00002bb0       ?touchesBegan@AppBase@app@cinder@@UEAAXVTouchEvent@23@@Z 0000000140003bb0 f i MyFirstCinderApp.obj
 0001:00002bb0       ?touchesMoved@AppBase@app@cinder@@UEAAXVTouchEvent@23@@Z 0000000140003bb0 f i MyFirstCinderApp.obj
 0001:00002bc0       ?Destroy@WaitAnyBlock@details@Concurrency@@UEAAXXZ 0000000140003bc0 f i libconcrt:event.obj
 0001:00002bc0       ?prepareToggleFullScreen@RendererImplGlMsw@app@cinder@@UEAAXXZ 0000000140003bc0 f i cinder:RendererImplGlMsw.obj
 0001:00002bc0       ?prepareLaunch@Platform@app@cinder@@UEAAXXZ 0000000140003bc0 f i cinder:PlatformMsw.obj
 0001:00002bc0       ?finishToggleFullScreen@RendererImplGlMsw@app@cinder@@UEAAXXZ 0000000140003bc0 f i cinder:RendererImplGlMsw.obj
 0001:00002bc0       ?_Lock@?$basic_streambuf@DU?$char_traits@D@std@@@std@@UEAAXXZ 0000000140003bc0 f i RapidJson.obj
 0001:00002bc0       ?destroy@stl_condition_variable_vista@details@Concurrency@@UEAAXXZ 0000000140003bc0 f i libcpmt:cond.obj
 0001:00002bc0       ?NotifyAffinitizedWork@FairScheduleGroupSegment@details@Concurrency@@UEAAXXZ 0000000140003bc0 f i libconcrt:SchedulerBase.obj
 0001:00002bc0       ?finalize@ImageTarget@cinder@@UEAAXXZ 0000000140003bc0 f i cinder:Surface.obj
 0001:00002bc0       ?startDraw@Renderer@app@cinder@@UEAAXXZ 0000000140003bc0 f i cinder:RendererGl.obj
 0001:00002bc0       ?cleanupLaunch@Platform@app@cinder@@UEAAXXZ 0000000140003bc0 f i cinder:PlatformMsw.obj
 0001:00002bc0       ?fork_service@service@execution_context@asio@@EEAAXW4fork_event@23@@Z 0000000140003bc0 f i cinder:AppBase.obj
 0001:00002bc0       ?setup@AppBase@app@cinder@@UEAAXXZ 0000000140003bc0 f i cinder:AppBase.obj
 0001:00002bc0       ?imbue@?$basic_streambuf@DU?$char_traits@D@std@@@std@@MEAAXAEBVlocale@2@@Z 0000000140003bc0 f i RapidJson.obj
 0001:00002bc0       ??1?$GenericValue@U?$UTF8@D@rapidjson@@V?$MemoryPoolAllocator@VCrtAllocator@rapidjson@@@2@@rapidjson@@QEAA@XZ 0000000140003bc0 f i MyFirstCinderApp.obj
 0001:00002bc0       ?cleanup@AppBase@app@cinder@@UEAAXXZ 0000000140003bc0 f i MyFirstCinderApp.obj
 0001:00002bc0       _guard_check_icall_nop     0000000140003bc0 f i LIBCMT:guard_support.obj
 0001:00002bc0       ?RMAwaken@InternalContextBase@details@Concurrency@@EEAAXXZ 0000000140003bc0 f i libconcrt:InternalContextBase.obj
 0001:00002bc0       _initialize_invalid_parameter_handler 0000000140003bc0 f i LIBCMT:invalid_parameter_handler.obj
 0001:00002bc0       ?VirtualProcessorActiveNotification@SchedulerBase@details@Concurrency@@MEAAX_NJ@Z 0000000140003bc0 f i libconcrt:SchedulerBase.obj
 0001:00002bc0       ?createBuffer@DataSourceBuffer@cinder@@MEAAXXZ 0000000140003bc0 f i cinder:DataSource.obj
 0001:00002bc0       ?finishDraw@Renderer@app@cinder@@UEAAXXZ 0000000140003bc0 f i cinder:RendererGl.obj
 0001:00002bc0       ??1critical_section@Concurrency@@QEAA@XZ 0000000140003bc0 f i libconcrt:rtlocks.obj
 0001:00002bc0       ?CreateNodeTopology@ResourceManager@details@Concurrency@@UEAAXIPEAIPEAPEAI0@Z 0000000140003bc0 f i libconcrt:ResourceManager.obj
 0001:00002bc0       ?prepareToggleFullScreen@Renderer@app@cinder@@UEAAXXZ 0000000140003bc0 f i cinder:RendererGl.obj
 0001:00002bc0       ?finishToggleFullScreen@Renderer@app@cinder@@UEAAXXZ 0000000140003bc0 f i cinder:RendererGl.obj
 0001:00002bc0       ?_Unlock@?$basic_streambuf@DU?$char_traits@D@std@@@std@@UEAAXXZ 0000000140003bc0 f i RapidJson.obj
 0001:00002bc0       ?prepareAssetLoading@Platform@app@cinder@@MEAAXXZ 0000000140003bc0 f i cinder:PlatformMsw.obj
 0001:00002bc0       ?defaultResize@Renderer@app@cinder@@UEAAXXZ 0000000140003bc0 f i cinder:RendererGl.obj
 0001:00002bc0       ?NotifyResourcesExternallyIdle@ThreadScheduler@details@Concurrency@@UEAAXPEAPEAUIVirtualProcessorRoot@3@I@Z 0000000140003bc0 f i libconcrt:ThreadScheduler.obj
 0001:00002bc0       ?destroy@stl_condition_variable_win7@details@Concurrency@@UEAAXXZ 0000000140003bc0 f i libcpmt:cond.obj
 0001:00002bc0       ?draw@AppBase@app@cinder@@UEAAXXZ 0000000140003bc0 f i cinder:AppBase.obj
 0001:00002bc0       _initialize_denormal_control 0000000140003bc0 f i LIBCMT:denormal_control.obj
 0001:00002bc0       ?NotifyResourcesExternallyBusy@ThreadScheduler@details@Concurrency@@UEAAXPEAPEAUIVirtualProcessorRoot@3@I@Z 0000000140003bc0 f i libconcrt:ThreadScheduler.obj
 0001:00002bc0       ?resize@AppBase@app@cinder@@UEAAXXZ 0000000140003bc0 f i MyFirstCinderApp.obj
 0001:00002bc0       ?swapBuffers@Renderer@app@cinder@@UEAAXXZ 0000000140003bc0 f i cinder:RendererGl.obj
 0001:00002bc0       ?loopStart@TimelineItem@cinder@@UEAAXXZ 0000000140003bc0 f i cinder:Timeline.obj
 0001:00002bc0       ?destroy@stl_critical_section_win7@details@Concurrency@@UEAAXXZ 0000000140003bc0 f i libcpmt:mutex.obj
 0001:00002bc0       ?update@AppBase@app@cinder@@UEAAXXZ 0000000140003bc0 f i cinder:AppBase.obj
 0001:00002bc0       ?kill@Renderer@app@cinder@@UEAAXXZ 0000000140003bc0 f i cinder:RendererGl.obj
 0001:00002bc0       ?start@Timeline@cinder@@MEAAX_N@Z 0000000140003bc0 f i cinder:Timeline.obj
 0001:00002bc0       ?complete@Timeline@cinder@@MEAAX_N@Z 0000000140003bc0 f i cinder:Timeline.obj
 0001:00002bc0       ??3@YAXPEAXUImNewDummy@@0@Z 0000000140003bc0 f i cinder:imgui.obj
 0001:00002bc0       ?apc_function@detail@asio@@YAX_K@Z 0000000140003bc0 f i cinder:AppBase.obj
 0001:00002bc0       ?makeCurrentContext@Renderer@app@cinder@@UEAAX_N@Z 0000000140003bc0 f i cinder:RendererGl.obj
 0001:00002bd0       ?enablePowerManagement@AppBase@app@cinder@@UEAAX_N@Z 0000000140003bd0 f i MyFirstCinderApp.obj
 0001:00002be0       ?isPowerManagementEnabled@AppBase@app@cinder@@UEBA_NXZ 0000000140003be0 f i MyFirstCinderApp.obj
 0001:00002bf0       ?getWindowWidth@AppBase@app@cinder@@QEBAHXZ 0000000140003bf0 f i MyFirstCinderApp.obj
 0001:00002c70       ?getWindowHeight@AppBase@app@cinder@@QEBAHXZ 0000000140003c70 f i MyFirstCinderApp.obj
 0001:00002cf0       ?setWindowPos@AppBase@app@cinder@@UEAAXAEBU?$vec@$01H$0A@@glm@@@Z 0000000140003cf0 f i MyFirstCinderApp.obj
 0001:00002d60       ?isFullScreen@AppBase@app@cinder@@UEBA_NXZ 0000000140003d60 f i MyFirstCinderApp.obj
 0001:00002de0       ?setFullScreen@AppBase@app@cinder@@UEAAX_NAEBUFullScreenOptions@23@@Z 0000000140003de0 f i MyFirstCinderApp.obj
 0001:00002e50       _should_initialize_environment 0000000140003e50 f i LIBCMT:env_mode.obj
 0001:00002e50       ?supportsFboMultiSample@EnvironmentCore@gl@cinder@@UEBA_NXZ 0000000140003e50 f i cinder:EnvironmentCore.obj
 0001:00002e50       ?supportsCoverageSample@EnvironmentCore@gl@cinder@@UEBA_NXZ 0000000140003e50 f i cinder:EnvironmentCore.obj
 0001:00002e50       ?providesFilePath@DataTargetPath@cinder@@UEAA_NXZ 0000000140003e50 f i cinder:DataTarget.obj
 0001:00002e50       __acrt_uninitialize_command_line 0000000140003e50 f i libucrt:argv_data.obj
 0001:00002e50       ?AllowGeneralFetchOfReservedContexts@SchedulerBase@details@Concurrency@@MEAA_NXZ 0000000140003e50 f i libconcrt:SchedulerBase.obj
 0001:00002e50       ?supportsTextureLod@EnvironmentCore@gl@cinder@@UEBA_NXZ 0000000140003e50 f i cinder:EnvironmentCore.obj
 0001:00002e50       ?isFilePath@DataSourcePath@cinder@@UEAA_NXZ 0000000140003e50 f i cinder:DataSource.obj
 0001:00002e50       ?do_always_noconv@?$codecvt@DDU_Mbstatet@@@std@@MEBA_NXZ 0000000140003e50 f i RapidJson.obj
 0001:00002e50       ?supportsInstancedArrays@EnvironmentCore@gl@cinder@@UEBA_NXZ 0000000140003e50 f i cinder:EnvironmentCore.obj
 0001:00002e50       ?receivesEvents@AppBase@app@cinder@@UEBA_NXZ 0000000140003e50 f i MyFirstCinderApp.obj
 0001:00002e50       ?SweepWaitNode@SingleWaitBlock@details@Concurrency@@UEAA_NXZ 0000000140003e50 f i libconcrt:event.obj
 0001:00002e50       ?supportsHardwareVao@EnvironmentCore@gl@cinder@@UEBA_NXZ 0000000140003e50 f i cinder:EnvironmentCore.obj
 0001:00002e60       ??1Format@Window@app@cinder@@QEAA@XZ 0000000140003e60 f i MyFirstCinderApp.obj
 0001:00002f80       ??_ESettings@AppBase@app@cinder@@UEAAPEAXI@Z 0000000140003f80 f i * CIL library *:* CIL module *
 0001:00002f80       ??_GSettings@AppBase@app@cinder@@UEAAPEAXI@Z 0000000140003f80 f i MyFirstCinderApp.obj
 0001:00002fc0       ??_ESettings@AppMsw@app@cinder@@UEAAPEAXI@Z 0000000140003fc0 f i * CIL library *:* CIL module *
 0001:00002fc0       ??_GSettings@AppMsw@app@cinder@@UEAAPEAXI@Z 0000000140003fc0 f i MyFirstCinderApp.obj
 0001:00003000       ??1Settings@AppMsw@app@cinder@@UEAA@XZ 0000000140004000 f i MyFirstCinderApp.obj
 0001:00003010       ??1Options@ImGui@@QEAA@XZ  0000000140004010 f i MyFirstCinderApp.obj
 0001:000030d0       ?prepareSettings@@YAXPEAVSettings@AppMsw@app@cinder@@@Z 00000001400040d0 f   MyFirstCinderApp.obj
 0001:000030f0       ?setup@MyFirstCinderApp@@UEAAXXZ 00000001400040f0 f   MyFirstCinderApp.obj
 0001:000031f0       ?update@MyFirstCinderApp@@UEAAXXZ 00000001400041f0 f   MyFirstCinderApp.obj
 0001:000035a0       ?draw@MyFirstCinderApp@@UEAAXXZ 00000001400045a0 f   MyFirstCinderApp.obj
 0001:00003710       ?mouseDown@MyFirstCinderApp@@UEAAXVMouseEvent@app@cinder@@@Z 0000000140004710 f   MyFirstCinderApp.obj
 0001:00003ab0       ?keyDown@MyFirstCinderApp@@UEAAXVKeyEvent@app@cinder@@@Z 0000000140004ab0 f   MyFirstCinderApp.obj
 0001:00003c00       ?keyUp@MyFirstCinderApp@@UEAAXVKeyEvent@app@cinder@@@Z 0000000140004c00 f   MyFirstCinderApp.obj
 0001:00003c60       ?fileDrop@MyFirstCinderApp@@UEAAXVFileDropEvent@app@cinder@@@Z 0000000140004c60 f   MyFirstCinderApp.obj
 0001:000045b0       ?CreateNewWindow@MyFirstCinderApp@@QEAAXAEBV?$basic_string@DU?$char_traits@D@std@@V?$allocator@D@2@@std@@@Z 00000001400055b0 f   MyFirstCinderApp.obj
 0001:00005150       ?UpdatePropertyData@MyFirstCinderApp@@QEAAXH@Z 0000000140006150 f   MyFirstCinderApp.obj
 0001:00005460       WinMain                    0000000140006460 f   MyFirstCinderApp.obj
 0001:00005670       ??1?$_Func_class@XAEAVMouseEvent@app@cinder@@@std@@QEAA@XZ 0000000140006670 f i cinder:CinderImGui.obj
 0001:00005670       ??1?$function@$$A6AXAEAVMouseEvent@app@cinder@@@Z@std@@QEAA@XZ 0000000140006670 f i cinder:CinderImGui.obj
 0001:00005670       ??1?$function@$$A6AXPEAVSettings@AppMsw@app@cinder@@@Z@std@@QEAA@XZ 0000000140006670 f i MyFirstCinderApp.obj
 0001:00005670       ??1?$function@$$A6AXXZ@std@@QEAA@XZ 0000000140006670 f i cinder:AppBase.obj
 0001:00005670       ??1?$function@$$A6AXPEAVTexture2d@gl@cinder@@@Z@std@@QEAA@XZ 0000000140006670 f i Image.obj
 0001:00005670       ??1?$function@$$A6AHPEAU_EXRHeader@@@Z@std@@QEAA@XZ 0000000140006670 f i cinder:ImageFileTinyExr.obj
 0001:00005670       ??1?$_Func_class@XPEAVTexture2d@gl@cinder@@@std@@QEAA@XZ 0000000140006670 f i Image.obj
 0001:00005670       ??1?$_Func_class@XAEAVKeyEvent@app@cinder@@@std@@QEAA@XZ 0000000140006670 f i cinder:CinderImGui.obj
 0001:00005670       ??1?$function@$$A6AXAEAVKeyEvent@app@cinder@@@Z@std@@QEAA@XZ 0000000140006670 f i cinder:CinderImGui.obj
 0001:00005670       ??1?$_Func_class@X$$V@std@@QEAA@XZ 0000000140006670 f i cinder:AppBase.obj
 0001:00005670       ??1?$function@$$A6AHPEAU_EXRImage@@@Z@std@@QEAA@XZ 0000000140006670 f i cinder:ImageFileTinyExr.obj
 0001:000056a0       ?_Tidy@?$vector@UFormat@Window@app@cinder@@V?$allocator@UFormat@Window@app@cinder@@@std@@@std@@AEAAXXZ 00000001400066a0 f i MyFirstCinderApp.obj
 0001:000056a0       ??1?$vector@UFormat@Window@app@cinder@@V?$allocator@UFormat@Window@app@cinder@@@std@@@std@@QEAA@XZ 00000001400066a0 f i MyFirstCinderApp.obj
 0001:00005730       ??1?$vector@VTouch@TouchEvent@app@cinder@@V?$allocator@VTouch@TouchEvent@app@cinder@@@std@@@std@@QEAA@XZ 0000000140006730 f i MyFirstCinderApp.obj
 0001:00005730       ?_Tidy@?$vector@VTouch@TouchEvent@app@cinder@@V?$allocator@VTouch@TouchEvent@app@cinder@@@std@@@std@@AEAAXXZ 0000000140006730 f i MyFirstCinderApp.obj
 0001:000057b0       ?_Tidy@?$vector@V?$basic_string@DU?$char_traits@D@std@@V?$allocator@D@2@@std@@V?$allocator@V?$basic_string@DU?$char_traits@D@std@@V?$allocator@D@2@@std@@@2@@std@@AEAAXXZ 00000001400067b0 f i MyFirstCinderApp.obj
 0001:000057b0       ??1?$vector@V?$basic_string@DU?$char_traits@D@std@@V?$allocator@D@2@@std@@V?$allocator@V?$basic_string@DU?$char_traits@D@std@@V?$allocator@D@2@@std@@@2@@std@@QEAA@XZ 00000001400067b0 f i MyFirstCinderApp.obj
 0001:00005820       ??1?$vector@Vpath@filesystem@std@@V?$allocator@Vpath@filesystem@std@@@3@@std@@QEAA@XZ 0000000140006820 f i MyFirstCinderApp.obj
 0001:00005820       ?_Tidy@?$vector@Vpath@filesystem@std@@V?$allocator@Vpath@filesystem@std@@@3@@std@@AEAAXXZ 0000000140006820 f i MyFirstCinderApp.obj
 0001:00005900       ??1?$_Yarn@D@std@@QEAA@XZ  0000000140006900 f i MyFirstCinderApp.obj
 0001:00005900       ??1?$_Yarn@_W@std@@QEAA@XZ 0000000140006900 f i MyFirstCinderApp.obj
 0001:00005930       ??1Uniform@GlslProg@gl@cinder@@QEAA@XZ 0000000140006930 f i cinder:GlslProg.obj
 0001:00005930       ??1ChannelInfo@tinyexr@@QEAA@XZ 0000000140006930 f i cinder:tinyexr.obj
 0001:00005930       ??1?$basic_string@DU?$char_traits@D@std@@V?$allocator@D@2@@std@@QEAA@XZ 0000000140006930 f i MyFirstCinderApp.obj
 0001:00005930       ??1Attribute@GlslProg@gl@cinder@@QEAA@XZ 0000000140006930 f i cinder:GlslProg.obj
 0001:00005930       ??1Url@cinder@@QEAA@XZ     0000000140006930 f i cinder:DataTarget.obj
 0001:00005990       ??0?$basic_string@DU?$char_traits@D@std@@V?$allocator@D@2@@std@@QEAA@QEBD@Z 0000000140006990 f i MyFirstCinderApp.obj
 0001:000059d0       ??0?$basic_string@DU?$char_traits@D@std@@V?$allocator@D@2@@std@@QEAA@AEBV01@@Z 00000001400069d0 f i MyFirstCinderApp.obj
 0001:00005ab0       ??1sentry@?$basic_ostream@DU?$char_traits@D@std@@@std@@QEAA@XZ 0000000140006ab0 f i MyFirstCinderApp.obj
 0001:00005af0       ??0sentry@?$basic_ostream@DU?$char_traits@D@std@@@std@@QEAA@AEAV12@@Z 0000000140006af0 f i MyFirstCinderApp.obj
 0001:00005b70       ?setstate@?$basic_ios@DU?$char_traits@D@std@@@std@@QEAAXH_N@Z 0000000140006b70 f i MyFirstCinderApp.obj
 0001:00005b90       ?assign@?$basic_string@_WU?$char_traits@_W@std@@V?$allocator@_W@2@@std@@QEAAAEAV12@QEB_W_K@Z 0000000140006b90 f i MyFirstCinderApp.obj
 0001:00005d30       ?append@?$basic_string@_WU?$char_traits@_W@std@@V?$allocator@_W@2@@std@@QEAAAEAV12@_K_W@Z 0000000140006d30 f i MyFirstCinderApp.obj
 0001:00005da0       ?assign@?$basic_string@DU?$char_traits@D@std@@V?$allocator@D@2@@std@@QEAAAEAV12@QEBD@Z 0000000140006da0 f i MyFirstCinderApp.obj
 0001:00005dc0       ?assign@?$basic_string@DU?$char_traits@D@std@@V?$allocator@D@2@@std@@QEAAAEAV12@QEBD_K@Z 0000000140006dc0 f i MyFirstCinderApp.obj
 0001:00005f20       ?append@?$basic_string@DU?$char_traits@D@std@@V?$allocator@D@2@@std@@QEAAAEAV12@QEBD_K@Z 0000000140006f20 f i MyFirstCinderApp.obj
 0001:00005fb0       ??1_Sentry_base@?$basic_istream@DU?$char_traits@D@std@@@std@@QEAA@XZ 0000000140006fb0 f i cinder:ShaderPreprocessor.obj
 0001:00005fb0       ??1_Sentry_base@?$basic_ostream@DU?$char_traits@D@std@@@std@@QEAA@XZ 0000000140006fb0 f i MyFirstCinderApp.obj
 0001:00005fe0       ?_Destroy@?$vector@UFormat@Window@app@cinder@@V?$allocator@UFormat@Window@app@cinder@@@std@@@std@@AEAAXPEAUFormat@Window@app@cinder@@0@Z 0000000140006fe0 f i MyFirstCinderApp.obj
 0001:00006020       ?deallocate@?$allocator@UFormat@Window@app@cinder@@@std@@QEAAXQEAUFormat@Window@app@cinder@@_K@Z 0000000140007020 f i MyFirstCinderApp.obj
 0001:00006070       ?deallocate@?$allocator@VTouch@TouchEvent@app@cinder@@@std@@QEAAXQEAVTouch@TouchEvent@app@cinder@@_K@Z 0000000140007070 f i MyFirstCinderApp.obj
 0001:00006070       ?deallocate@?$allocator@UTransformFeedbackVaryings@GlslProg@gl@cinder@@@std@@QEAAXQEAUTransformFeedbackVaryings@GlslProg@gl@cinder@@_K@Z 0000000140007070 f i cinder:GlslProg.obj
 0001:000060c0       ?_Destroy@?$vector@V?$basic_string@DU?$char_traits@D@std@@V?$allocator@D@2@@std@@V?$allocator@V?$basic_string@DU?$char_traits@D@std@@V?$allocator@D@2@@std@@@2@@std@@AEAAXPEAV?$basic_string@DU?$char_traits@D@std@@V?$allocator@D@2@@2@0@Z 00000001400070c0 f i MyFirstCinderApp.obj
 0001:000060e0       ?deallocate@?$allocator@V?$basic_string@DU?$char_traits@D@std@@V?$allocator@D@2@@std@@@std@@QEAAXQEAV?$basic_string@DU?$char_traits@D@std@@V?$allocator@D@2@@2@_K@Z 00000001400070e0 f i MyFirstCinderApp.obj
 0001:000060e0       ?deallocate@?$allocator@Vpath@filesystem@std@@@std@@QEAAXQEAVpath@filesystem@2@_K@Z 00000001400070e0 f i MyFirstCinderApp.obj
 0001:000060e0       ?deallocate@?$allocator@VConnection@signals@cinder@@@std@@QEAAXQEAVConnection@signals@cinder@@_K@Z 00000001400070e0 f i cinder:Signals.obj
 0001:00006130       ?setbuf@?$basic_streambuf@DU?$char_traits@D@std@@@std@@MEAAPEAV12@PEAD_J@Z 0000000140007130 f i RapidJson.obj
 0001:00006130       ?_Getal@?$_Tree@V?$_Tmap_traits@HU?$pair@P6A?AV?$shared_ptr@VImageTarget@cinder@@@std@@V?$shared_ptr@VDataTarget@cinder@@@2@V?$shared_ptr@VImageSource@cinder@@@2@VOptions@ImageTarget@cinder@@AEBV?$basic_string@DU?$char_traits@D@std@@V?$allocator@D@2@@2@@ZV82@@std@@U?$less@H@2@V?$allocator@U?$pair@$$CBHU?$pair@P6A?AV?$shared_ptr@VImageTarget@cinder@@@std@@V?$shared_ptr@VDataTarget@cinder@@@2@V?$shared_ptr@VImageSource@cinder@@@2@VOptions@ImageTarget@cinder@@AEBV?$basic_string@DU?$char_traits@D@std@@V?$allocator@D@2@@2@@ZV82@@std@@@std@@@2@$00@std@@@std@@IEAAAEAV?$allocator@U?$_Tree_node@U?$pair@$$CBHU?$pair@P6A?AV?$shared_ptr@VImageTarget@cinder@@@std@@V?$shared_ptr@VDataTarget@cinder@@@2@V?$shared_ptr@VImageSource@cinder@@@2@VOptions@ImageTarget@cinder@@AEBV?$basic_string@DU?$char_traits@D@std@@V?$allocator@D@2@@2@@ZV82@@std@@@std@@PEAX@std@@@2@XZ 0000000140007130 f i cinder:ImageIo.obj
 0001:00006130       ?_Getal@?$vector@EV?$allocator@E@std@@@std@@AEAAAEAV?$allocator@E@2@XZ 0000000140007130 f i cinder:Unicode.obj
 0001:00006130       ?_Getal@?$_Tree@V?$_Tmap_traits@HP6A?AV?$shared_ptr@VImageSource@cinder@@@std@@V?$shared_ptr@VDataSource@cinder@@@2@VOptions@ImageSource@cinder@@@ZU?$less@H@2@V?$allocator@U?$pair@$$CBHP6A?AV?$shared_ptr@VImageSource@cinder@@@std@@V?$shared_ptr@VDataSource@cinder@@@2@VOptions@ImageSource@cinder@@@Z@std@@@2@$00@std@@@std@@IEAAAEAV?$allocator@U?$_Tree_node@U?$pair@$$CBHP6A?AV?$shared_ptr@VImageSource@cinder@@@std@@V?$shared_ptr@VDataSource@cinder@@@2@VOptions@ImageSource@cinder@@@Z@std@@PEAX@std@@@2@XZ 0000000140007130 f i cinder:ImageIo.obj
 0001:00006130       ??$forward@_K@std@@YA$$QEA_KAEA_K@Z 0000000140007130 f i libvcruntime:undname.obj
 0001:00006130       ?_Getal@?$vector@UTransformFeedbackVaryings@GlslProg@gl@cinder@@V?$allocator@UTransformFeedbackVaryings@GlslProg@gl@cinder@@@std@@@std@@AEAAAEAV?$allocator@UTransformFeedbackVaryings@GlslProg@gl@cinder@@@2@XZ 0000000140007130 f i cinder:GlslProg.obj
 0001:00006130       ?_Getal@?$vector@MV?$allocator@M@std@@@std@@AEAAAEAV?$allocator@M@2@XZ 0000000140007130 f i cinder:GeomIo.obj
 0001:00006130       ?_Getal@?$vector@Vpath@filesystem@std@@V?$allocator@Vpath@filesystem@std@@@3@@std@@AEAAAEAV?$allocator@Vpath@filesystem@std@@@2@XZ 0000000140007130 f i MyFirstCinderApp.obj
 0001:00006130       ?_Getal@?$_Tree@V?$_Tmap_traits@IV?$vector@HV?$allocator@H@std@@@std@@U?$less@I@2@V?$allocator@U?$pair@$$CBIV?$vector@HV?$allocator@H@std@@@std@@@std@@@2@$0A@@std@@@std@@IEAAAEAV?$allocator@U?$_Tree_node@U?$pair@$$CBIV?$vector@HV?$allocator@H@std@@@std@@@std@@PEAX@std@@@2@XZ 0000000140007130 f i cinder:GlslProg.obj
 0001:00006130       ?_Getal@?$_Tree@V?$_Tmap_traits@V?$basic_string@DU?$char_traits@D@std@@V?$allocator@D@2@@std@@IU?$less@V?$basic_string@DU?$char_traits@D@std@@V?$allocator@D@2@@std@@@2@V?$allocator@U?$pair@$$CBV?$basic_string@DU?$char_traits@D@std@@V?$allocator@D@2@@std@@I@std@@@2@$0A@@std@@@std@@IEAAAEAV?$allocator@U?$_Tree_node@U?$pair@$$CBV?$basic_string@DU?$char_traits@D@std@@V?$allocator@D@2@@std@@I@std@@PEAX@std@@@2@XZ 0000000140007130 f i cinder:EnvironmentCore.obj
 0001:00006130       ?_Getal@?$vector@_KV?$allocator@_K@std@@@std@@AEAAAEAV?$allocator@_K@2@XZ 0000000140007130 f i cinder:tinyexr.obj
 0001:00006140       ?_Destroy@?$vector@Vpath@filesystem@std@@V?$allocator@Vpath@filesystem@std@@@3@@std@@AEAAXPEAVpath@filesystem@2@0@Z 0000000140007140 f i MyFirstCinderApp.obj
 0001:000061d0       ?flush@?$basic_ostream@DU?$char_traits@D@std@@@std@@QEAAAEAV12@XZ 00000001400071d0 f i MyFirstCinderApp.obj
 0001:00006270       ?_Osfx@?$basic_ostream@DU?$char_traits@D@std@@@std@@QEAAXXZ 0000000140007270 f i MyFirstCinderApp.obj
 0001:000062c0       ?allocate@?$allocator@_W@std@@QEAAPEA_W_K@Z 00000001400072c0 f i MyFirstCinderApp.obj
 0001:000062c0       ?allocate@?$allocator@_S@std@@QEAAPEA_S_K@Z 00000001400072c0 f i cinder:Unicode.obj
 0001:00006330       ?resize@?$basic_string@DU?$char_traits@D@std@@V?$allocator@D@2@@std@@QEAAX_KD@Z 0000000140007330 f i MyFirstCinderApp.obj
 0001:000063d0       ?allocate@?$allocator@D@std@@QEAAPEAD_K@Z 00000001400073d0 f i MyFirstCinderApp.obj
 0001:000063d0       ?allocate@?$allocator@E@std@@QEAAPEAE_K@Z 00000001400073d0 f i cinder:tinyexr.obj
 0001:00006430       ?deallocate@?$allocator@E@std@@QEAAXQEAE_K@Z 0000000140007430 f i cinder:Unicode.obj
 0001:00006430       ?deallocate@?$allocator@D@std@@QEAAXQEAD_K@Z 0000000140007430 f i MyFirstCinderApp.obj
 0001:00006470       ?_Pnavail@?$basic_streambuf@DU?$char_traits@D@std@@@std@@IEBA_JXZ 0000000140007470 f i MyFirstCinderApp.obj
 0001:00006490       ?_Xran@?$_String_val@U?$_Simple_types@_W@std@@@std@@SAXXZ 0000000140007490 f i cinder:CinderImGui.obj
 0001:00006490       ?_Xran@?$_String_val@U?$_Simple_types@D@std@@@std@@SAXXZ 0000000140007490 f i MyFirstCinderApp.obj
 0001:000064b0       ??$use_facet@V?$ctype@D@std@@@std@@YAAEBV?$ctype@D@0@AEBVlocale@0@@Z 00000001400074b0 f i MyFirstCinderApp.obj
 0001:000065c0       ??$?6U?$char_traits@D@std@@@std@@YAAEAV?$basic_ostream@DU?$char_traits@D@std@@@0@AEAV10@PEBD@Z 00000001400075c0 f i MyFirstCinderApp.obj
 0001:00006830       ??$endl@DU?$char_traits@D@std@@@std@@YAAEAV?$basic_ostream@DU?$char_traits@D@std@@@0@AEAV10@@Z 0000000140007830 f i MyFirstCinderApp.obj
 0001:00006870       ??$?HDU?$char_traits@D@std@@V?$allocator@D@1@@std@@YA?AV?$basic_string@DU?$char_traits@D@std@@V?$allocator@D@2@@0@$$QEAV10@QEBD@Z 0000000140007870 f i MyFirstCinderApp.obj
 0001:000068d0       ??$?HDU?$char_traits@D@std@@V?$allocator@D@1@@std@@YA?AV?$basic_string@DU?$char_traits@D@std@@V?$allocator@D@2@@0@$$QEAV10@0@Z 00000001400078d0 f i MyFirstCinderApp.obj
 0001:00006900       ??$_Emplace_reallocate@V?$basic_string@DU?$char_traits@D@std@@V?$allocator@D@2@@std@@@?$vector@V?$basic_string@DU?$char_traits@D@std@@V?$allocator@D@2@@std@@V?$allocator@V?$basic_string@DU?$char_traits@D@std@@V?$allocator@D@2@@std@@@2@@std@@QEAAPEAV?$basic_string@DU?$char_traits@D@std@@V?$allocator@D@2@@1@QEAV21@$$QEAV21@@Z 0000000140007900 f i MyFirstCinderApp.obj
 0001:00006b90       ??$_Reallocate_grow_by@V<lambda_a3050a43f3157934f354774ab3dd2e02>@@_K_W@?$basic_string@_WU?$char_traits@_W@std@@V?$allocator@_W@2@@std@@AEAAAEAV01@_KV<lambda_a3050a43f3157934f354774ab3dd2e02>@@_K_W@Z 0000000140007b90 f i MyFirstCinderApp.obj
 0001:00006d40       ??$_Reallocate_grow_by@V<lambda_65e615be2a453ca0576c979606f46740>@@PEBD_K@?$basic_string@DU?$char_traits@D@std@@V?$allocator@D@2@@std@@AEAAAEAV01@_KV<lambda_65e615be2a453ca0576c979606f46740>@@PEBD_K@Z 0000000140007d40 f i MyFirstCinderApp.obj
 0001:00006ed0       ??$_Destroy_range@V?$allocator@V?$basic_string@DU?$char_traits@D@std@@V?$allocator@D@2@@std@@@std@@@std@@YAXPEAV?$basic_string@DU?$char_traits@D@std@@V?$allocator@D@2@@0@QEAV10@AEAV?$allocator@V?$basic_string@DU?$char_traits@D@std@@V?$allocator@D@2@@std@@@0@@Z 0000000140007ed0 f i MyFirstCinderApp.obj
 0001:00006f60       ??$_Reallocate_grow_by@V<lambda_e1befb086ad3257e3f042a63030725f7>@@_KD@?$basic_string@DU?$char_traits@D@std@@V?$allocator@D@2@@std@@AEAAAEAV01@_KV<lambda_e1befb086ad3257e3f042a63030725f7>@@_KD@Z 0000000140007f60 f i MyFirstCinderApp.obj
 0001:000070f0       ??0MyFirstCinderApp@@QEAA@XZ 00000001400080f0 f i MyFirstCinderApp.obj
 0001:00007230       ??_GMyFirstCinderApp@@UEAAPEAXI@Z 0000000140008230 f i MyFirstCinderApp.obj
 0001:00007230       ??_EMyFirstCinderApp@@UEAAPEAXI@Z 0000000140008230 f i * CIL library *:* CIL module *
 0001:000072f0       ??1Image@@QEAA@XZ          00000001400082f0 f i MyFirstCinderApp.obj
 0001:000073d0       ??1RapidJson@@QEAA@XZ      00000001400083d0 f i MyFirstCinderApp.obj
 0001:00007540       ??1?$set@V?$basic_string@DU?$char_traits@D@std@@V?$allocator@D@2@@std@@U?$less@V?$basic_string@DU?$char_traits@D@std@@V?$allocator@D@2@@std@@@2@V?$allocator@V?$basic_string@DU?$char_traits@D@std@@V?$allocator@D@2@@std@@@2@@std@@QEAA@XZ 0000000140008540 f i MyFirstCinderApp.obj
 0001:00007570       ?_Delete_this@?$_Ref_count_resource@PEAUIWICBitmapEncoder@@P6AXPEAX@Z@std@@EEAAXXZ 0000000140008570 f i cinder:ImageTargetFileWic.obj
 0001:00007570       ?_Delete_this@?$_Ref_count@V?$ImageTargetGlTexture@E@gl@cinder@@@std@@EEAAXXZ 0000000140008570 f i cinder:Texture.obj
 0001:00007570       ?_Delete_this@?$_Ref_count@VTexture2d@gl@cinder@@@std@@EEAAXXZ 0000000140008570 f i cinder:Texture.obj
 0001:00007570       ?_Delete_this@?$_Ref_count_obj2@VLoggerConsole@log@cinder@@@std@@EEAAXXZ 0000000140008570 f i cinder:Log.obj
 0001:00007570       ?_Delete_this@?$_Ref_count@VOStreamFile@cinder@@@std@@EEAAXXZ 0000000140008570 f i cinder:Stream.obj
 0001:00007570       ?_Delete_this@?$_Ref_count@Vwork@io_service@asio@@@std@@EEAAXXZ 0000000140008570 f i cinder:AppBase.obj
 0001:00007570       ?_Delete_this@?$_Ref_count@VDataSourcePath@cinder@@@std@@EEAAXXZ 0000000140008570 f i cinder:DataSource.obj
 0001:00007570       ?_Delete_this@?$_Ref_count@VImageTargetFileTinyExr@cinder@@@std@@EEAAXXZ 0000000140008570 f i cinder:ImageFileTinyExr.obj
 0001:00007570       ?_Delete_this@?$_Ref_count_resource@PEAUIWICBitmapFrameEncode@@P6AXPEAX@Z@std@@EEAAXXZ 0000000140008570 f i cinder:ImageTargetFileWic.obj
 0001:00007570       ?_Delete_this@?$_Ref_count@UDisconnector@detail@signals@cinder@@@std@@EEAAXXZ 0000000140008570 f i cinder:AppBase.obj
 0001:00007570       ?_Delete_this@?$_Ref_count@VImageTargetFileStbImage@cinder@@@std@@EEAAXXZ 0000000140008570 f i cinder:ImageTargetFileStbImage.obj
 0001:00007570       ?_Delete_this@?$_Ref_count@VIStreamMem@cinder@@@std@@EEAAXXZ 0000000140008570 f i cinder:Stream.obj
 0001:00007570       ?_Delete_this@?$_Ref_count@V?$ImageTargetGlTexture@M@gl@cinder@@@std@@EEAAXXZ 0000000140008570 f i cinder:Texture.obj
 0001:00007570       ?_Delete_this@?$_Ref_count@VImageSourceFileTinyExr@cinder@@@std@@EEAAXXZ 0000000140008570 f i cinder:ImageFileTinyExr.obj
 0001:00007570       ?_Delete_this@?$_Ref_count@VWindow@app@cinder@@@std@@EEAAXXZ 0000000140008570 f i cinder:AppImplMsw.obj
 0001:00007570       ?_Delete_this@?$_Ref_count@VTimeline@cinder@@@std@@EEAAXXZ 0000000140008570 f i cinder:AppBase.obj
 0001:00007570       ?_Delete_this@?$_Ref_count@VDataSourceBuffer@cinder@@@std@@EEAAXXZ 0000000140008570 f i cinder:DataSource.obj
 0001:00007570       ?_Delete_this@?$_Ref_count_resource@PEAMU?$default_delete@$$BY0A@M@std@@@std@@EEAAXXZ 0000000140008570 f i cinder:Surface.obj
 0001:00007570       ?_Delete_this@?$_Ref_count@VVertBatch@gl@cinder@@@std@@EEAAXXZ 0000000140008570 f i cinder:Batch.obj
 0001:00007570       ?_Delete_this@?$_Ref_count@VImageSourceFileStbImage@cinder@@@std@@EEAAXXZ 0000000140008570 f i cinder:ImageSourceFileStbImage.obj
 0001:00007570       ?_Delete_this@?$_Ref_count@VImageTargetFileWic@cinder@@@std@@EEAAXXZ 0000000140008570 f i cinder:ImageTargetFileWic.obj
 0001:00007570       ?_Delete_this@?$_Ref_count_resource@PEAEU?$default_delete@$$BY0A@E@std@@@std@@EEAAXXZ 0000000140008570 f i cinder:Surface.obj
 0001:00007570       ?_Delete_this@?$_Ref_count@V?$ImageTargetGlTexture@Thalf_float@cinder@@@gl@cinder@@@std@@EEAAXXZ 0000000140008570 f i cinder:Texture.obj
 0001:00007570       ?_Delete_this@?$_Ref_count@VImageSourceSurface@cinder@@@std@@EEAAXXZ 0000000140008570 f i cinder:Surface.obj
 0001:00007570       ?_Delete_this@?$_Ref_count@VGlslProg@gl@cinder@@@std@@EEAAXXZ 0000000140008570 f i cinder:GlslProg.obj
 0001:00007570       ?_Delete_this@?$_Ref_count@VDisplayMsw@cinder@@@std@@EEAAXXZ 0000000140008570 f i cinder:PlatformMsw.obj
 0001:00007570       ?_Delete_this@?$_Ref_count@VRendererGl@app@cinder@@@std@@EEAAXXZ 0000000140008570 f i MyFirstCinderApp.obj
 0001:00007570       ?_Delete_this@?$_Ref_count_resource@PEAVComOStream@msw@cinder@@P6AXPEAX@Z@std@@EEAAXXZ 0000000140008570 f i cinder:ImageTargetFileWic.obj
 0001:00007570       ?_Delete_this@?$_Ref_count@V?$map@V?$basic_string@DU?$char_traits@D@std@@V?$allocator@D@2@@std@@PEBU_GUID@@U?$less@V?$basic_string@DU?$char_traits@D@std@@V?$allocator@D@2@@std@@@2@V?$allocator@U?$pair@$$CBV?$basic_string@DU?$char_traits@D@std@@V?$allocator@D@2@@std@@PEBU_GUID@@@std@@@2@@std@@@std@@EEAAXXZ 0000000140008570 f i cinder:ImageTargetFileWic.obj
 0001:00007570       ?_Delete_this@?$_Ref_count@V?$ImageTargetGlTexture@G@gl@cinder@@@std@@EEAAXXZ 0000000140008570 f i cinder:Texture.obj
 0001:00007570       ?_Delete_this@?$_Ref_count_resource@PEAUIWICImagingFactory@@P6AXPEAX@Z@std@@EEAAXXZ 0000000140008570 f i cinder:ImageTargetFileWic.obj
 0001:00007570       ?_Delete_this@?$_Ref_count@VImageSourceFileWic@cinder@@@std@@EEAAXXZ 0000000140008570 f i cinder:ImageSourceFileWic.obj
 0001:00007570       ?_Delete_this@?$_Ref_count@VImageSourceFileRadiance@cinder@@@std@@EEAAXXZ 0000000140008570 f i cinder:ImageSourceFileRadiance.obj
 0001:00007570       ?_Delete_this@?$_Ref_count_resource@PEAVTexture2d@gl@cinder@@V?$function@$$A6AXPEAVTexture2d@gl@cinder@@@Z@std@@@std@@EEAAXXZ 0000000140008570 f i cinder:Texture.obj
 0001:00007570       ?_Delete_this@?$_Ref_count@Vio_service@asio@@@std@@EEAAXXZ 0000000140008570 f i cinder:AppBase.obj
 0001:00007570       ?_Delete_this@?$_Ref_count_resource@PEAUIWICBitmapDecoder@@P6AXPEAX@Z@std@@EEAAXXZ 0000000140008570 f i cinder:ImageSourceFileWic.obj
 0001:00007570       ?_Delete_this@?$_Ref_count@VBlankingWindow@app@cinder@@@std@@EEAAXXZ 0000000140008570 f i cinder:AppImplMswBasic.obj
 0001:00007570       ?_Delete_this@?$_Ref_count@UInst@ImageIoRegistrar@cinder@@@std@@EEAAXXZ 0000000140008570 f i cinder:ImageIo.obj
 0001:00007570       ?_Delete_this@?$_Ref_count@UPlatformDataMsw@gl@cinder@@@std@@EEAAXXZ 0000000140008570 f i cinder:RendererImplGlMsw.obj
 0001:00007570       ?_Delete_this@?$_Ref_count@VImageSourceTexture@gl@cinder@@@std@@EEAAXXZ 0000000140008570 f i cinder:Texture.obj
 0001:00007570       ?_Delete_this@?$_Ref_count@VDataTargetPath@cinder@@@std@@EEAAXXZ 0000000140008570 f i cinder:DataTarget.obj
 0001:00007570       ?_Delete_this@?$_Ref_count@VVbo@gl@cinder@@@std@@EEAAXXZ 0000000140008570 f i cinder:Vbo.obj
 0001:00007570       ?_Delete_this@?$_Ref_count@VVaoImplCore@gl@cinder@@@std@@EEAAXXZ 0000000140008570 f i cinder:VaoImplCore.obj
 0001:00007570       ?_Delete_this@?$_Ref_count_resource@PEAUIWICBitmapFrameDecode@@P6AXPEAX@Z@std@@EEAAXXZ 0000000140008570 f i cinder:ImageSourceFileWic.obj
 0001:00007570       ?_Delete_this@?$_Ref_count_resource@PEAUIWICStream@@P6AXPEAX@Z@std@@EEAAXXZ 0000000140008570 f i cinder:ImageSourceFileWic.obj
 0001:00007570       ?_Delete_this@?$_Ref_count@VIStreamFile@cinder@@@std@@EEAAXXZ 0000000140008570 f i cinder:Stream.obj
 0001:00007570       ?_Delete_this@?$_Ref_count@V?$ImageTargetSurface@E@cinder@@@std@@EEAAXXZ 0000000140008570 f i cinder:Surface.obj
 0001:00007570       ?_Delete_this@?$_Ref_count@VContext@gl@cinder@@@std@@EEAAXXZ 0000000140008570 f i cinder:Environment.obj
 0001:00007570       ?_Delete_this@?$_Ref_count_obj2@VShaderPreprocessor@gl@cinder@@@std@@EEAAXXZ 0000000140008570 f i cinder:GlslProg.obj
 0001:00007570       ?_Delete_this@?$_Ref_count_resource@PEAUIWICFormatConverter@@P6AXPEAX@Z@std@@EEAAXXZ 0000000140008570 f i cinder:ImageSourceFileWic.obj
 0001:00007570       ?_Delete_this@?$_Ref_count_obj2@VBuffer@cinder@@@std@@EEAAXXZ 0000000140008570 f i cinder:Stream.obj
 0001:00007590       ?_Destroy@?$_Ref_count@VVaoImplCore@gl@cinder@@@std@@EEAAXXZ 0000000140008590 f i cinder:VaoImplCore.obj
 0001:00007590       ?_Destroy@?$_Ref_count@VTexture2d@gl@cinder@@@std@@EEAAXXZ 0000000140008590 f i cinder:Texture.obj
 0001:00007590       ?_Destroy@?$_Ref_count@VVertBatch@gl@cinder@@@std@@EEAAXXZ 0000000140008590 f i cinder:Batch.obj
 0001:00007590       ?_Destroy@?$_Ref_count@VTimeline@cinder@@@std@@EEAAXXZ 0000000140008590 f i cinder:AppBase.obj
 0001:00007590       ?_Destroy@?$_Ref_count@VRendererGl@app@cinder@@@std@@EEAAXXZ 0000000140008590 f i MyFirstCinderApp.obj
 0001:00007590       ?_Destroy@?$_Ref_count@VDisplayMsw@cinder@@@std@@EEAAXXZ 0000000140008590 f i cinder:PlatformMsw.obj
 0001:00007590       ?_Destroy@?$_Ref_count@UPlatformDataMsw@gl@cinder@@@std@@EEAAXXZ 0000000140008590 f i cinder:RendererImplGlMsw.obj
 0001:000075b0       ??1?$_Temporary_owner@UPlatformDataMsw@gl@cinder@@@std@@QEAA@XZ 00000001400085b0 f i cinder:RendererImplGlMsw.obj
 0001:000075b0       ??1?$_Temporary_owner@VVaoImplCore@gl@cinder@@@std@@QEAA@XZ 00000001400085b0 f i cinder:VaoImplCore.obj
 0001:000075b0       ??1?$_Temporary_owner@VRendererGl@app@cinder@@@std@@QEAA@XZ 00000001400085b0 f i MyFirstCinderApp.obj
 0001:000075b0       ??1?$scoped_ptr@Vwin_iocp_io_service@detail@asio@@@detail@asio@@QEAA@XZ 00000001400085b0 f i cinder:AppBase.obj
 0001:000075b0       ??1?$_Temporary_owner@VTexture2d@gl@cinder@@@std@@QEAA@XZ 00000001400085b0 f i cinder:Texture.obj
 0001:000075b0       ??1?$_Temporary_owner@VDisplayMsw@cinder@@@std@@QEAA@XZ 00000001400085b0 f i cinder:PlatformMsw.obj
 0001:000075b0       ??1?$_Temporary_owner@VTimeline@cinder@@@std@@QEAA@XZ 00000001400085b0 f i cinder:AppBase.obj
 0001:000075b0       ??1?$unique_ptr@V_Facet_base@std@@U?$default_delete@V_Facet_base@std@@@2@@std@@QEAA@XZ 00000001400085b0 f i MyFirstCinderApp.obj
 0001:000075b0       ??1?$_Temporary_owner@VVertBatch@gl@cinder@@@std@@QEAA@XZ 00000001400085b0 f i cinder:Batch.obj
 0001:000075b0       ??1?$unique_ptr@VAppImplMswBasic@app@cinder@@U?$default_delete@VAppImplMswBasic@app@cinder@@@std@@@std@@QEAA@XZ 00000001400085b0 f i cinder:AppMsw.obj
 0001:000075d0       ??1?$GenericDocument@U?$UTF8@D@rapidjson@@V?$MemoryPoolAllocator@VCrtAllocator@rapidjson@@@2@VCrtAllocator@2@@rapidjson@@QEAA@XZ 00000001400085d0 f i MyFirstCinderApp.obj
 0001:00007670       ?_Xlength@?$vector@_WV?$allocator@_W@std@@@std@@CAXXZ 0000000140008670 f i cinder:CinderMsw.obj
 0001:00007670       ?_Xlength@?$vector@VTouch@TouchEvent@app@cinder@@V?$allocator@VTouch@TouchEvent@app@cinder@@@std@@@std@@CAXXZ 0000000140008670 f i cinder:AppImplMsw.obj
 0001:00007670       ?_Xlength@?$vector@UFormat@Window@app@cinder@@V?$allocator@UFormat@Window@app@cinder@@@std@@@std@@CAXXZ 0000000140008670 f i cinder:AppBase.obj
 0001:00007670       ?_Xlength@?$vector@GV?$allocator@G@std@@@std@@CAXXZ 0000000140008670 f i cinder:Font.obj
 0001:00007670       ?_Xlength@?$vector@IV?$allocator@I@std@@@std@@CAXXZ 0000000140008670 f i cinder:Context.cpp.obj
 0001:00007670       ?_Xlength@?$vector@_KV?$allocator@_K@std@@@std@@CAXXZ 0000000140008670 f i cinder:VboMesh.obj
 0001:00007670       ?_Xlength@?$vector@UUniformBlock@GlslProg@gl@cinder@@V?$allocator@UUniformBlock@GlslProg@gl@cinder@@@std@@@std@@CAXXZ 0000000140008670 f i cinder:GlslProg.obj
 0001:00007670       ?_Xlength@?$vector@V?$shared_ptr@VDisplay@cinder@@@std@@V?$allocator@V?$shared_ptr@VDisplay@cinder@@@std@@@2@@std@@CAXXZ 0000000140008670 f i cinder:PlatformMsw.obj
 0001:00007670       ?_Xlength@?$vector@Vpath@filesystem@std@@V?$allocator@Vpath@filesystem@std@@@3@@std@@CAXXZ 0000000140008670 f i cinder:AppImplMsw.obj
 0001:00007670       ?_Xlength@?$vector@EV?$allocator@E@std@@@std@@CAXXZ 0000000140008670 f i cinder:Unicode.obj
 0001:00007670       ?_Xlength@?$vector@MV?$allocator@M@std@@@std@@CAXXZ 0000000140008670 f i cinder:Context.cpp.obj
 0001:00007670       ?_Xlength@?$vector@UChannelInfo@tinyexr@@V?$allocator@UChannelInfo@tinyexr@@@std@@@std@@CAXXZ 0000000140008670 f i cinder:tinyexr.obj
 0001:00007670       ?_Xlength@?$vector@V?$shared_ptr@VLogger@log@cinder@@@std@@V?$allocator@V?$shared_ptr@VLogger@log@cinder@@@std@@@2@@std@@CAXXZ 0000000140008670 f i cinder:Log.obj
 0001:00007670       ?_Xlength@?$vector@UUniform@GlslProg@gl@cinder@@V?$allocator@UUniform@GlslProg@gl@cinder@@@std@@@std@@CAXXZ 0000000140008670 f i cinder:GlslProg.obj
 0001:00007670       ?_Xlength@?$vector@UTransformFeedbackVaryings@GlslProg@gl@cinder@@V?$allocator@UTransformFeedbackVaryings@GlslProg@gl@cinder@@@std@@@std@@CAXXZ 0000000140008670 f i cinder:GlslProg.obj
 0001:00007670       ?_Xlength@?$vector@UAttribute@GlslProg@gl@cinder@@V?$allocator@UAttribute@GlslProg@gl@cinder@@@std@@@std@@CAXXZ 0000000140008670 f i cinder:GlslProg.obj
 0001:00007670       ?_Xlength@?$vector@PEAVVao@gl@cinder@@V?$allocator@PEAVVao@gl@cinder@@@std@@@std@@CAXXZ 0000000140008670 f i cinder:Context.cpp.obj
 0001:00007670       ?_Xlength@?$vector@V?$vector@EV?$allocator@E@std@@@std@@V?$allocator@V?$vector@EV?$allocator@E@std@@@std@@@2@@std@@CAXXZ 0000000140008670 f i cinder:tinyexr.obj
 0001:00007670       ?_Xlength@?$vector@VConnection@signals@cinder@@V?$allocator@VConnection@signals@cinder@@@std@@@std@@CAXXZ 0000000140008670 f i cinder:Signals.obj
 0001:00007670       ?_Xlength@?$vector@PEBDV?$allocator@PEBD@std@@@std@@CAXXZ 0000000140008670 f i cinder:GlslProg.obj
 0001:00007670       ?_Xlength@?$vector@U_EXRAttribute@@V?$allocator@U_EXRAttribute@@@std@@@std@@CAXXZ 0000000140008670 f i cinder:tinyexr.obj
 0001:00007670       ?_Xlength@?$vector@U?$pair@IUVertexAttrib@Vao@gl@cinder@@@std@@V?$allocator@U?$pair@IUVertexAttrib@Vao@gl@cinder@@@std@@@2@@std@@CAXXZ 0000000140008670 f i cinder:Vao.obj
 0001:00007670       ?_Xlength@?$vector@U?$mat@$03$03M$0A@@glm@@V?$allocator@U?$mat@$03$03M$0A@@glm@@@std@@@std@@CAXXZ 0000000140008670 f i cinder:wrapper.obj
 0001:00007670       ?_Xlength@?$vector@UPIZChannelData@tinyexr@@V?$allocator@UPIZChannelData@tinyexr@@@std@@@std@@CAXXZ 0000000140008670 f i cinder:tinyexr.obj
 0001:00007670       ?_Xlength@?$vector@V?$basic_string@DU?$char_traits@D@std@@V?$allocator@D@2@@std@@V?$allocator@V?$basic_string@DU?$char_traits@D@std@@V?$allocator@D@2@@std@@@2@@std@@CAXXZ 0000000140008670 f i MyFirstCinderApp.obj
 0001:00007670       ?_Xlength@?$vector@PEBVGlslProg@gl@cinder@@V?$allocator@PEBVGlslProg@gl@cinder@@@std@@@std@@CAXXZ 0000000140008670 f i cinder:Context.cpp.obj
 0001:00007670       ?_Xlength@?$vector@V?$ChannelT@M@cinder@@V?$allocator@V?$ChannelT@M@cinder@@@std@@@std@@CAXXZ 0000000140008670 f i cinder:ImageFileTinyExr.obj
 0001:00007670       ?_Xlength@?$vector@DV?$allocator@D@std@@@std@@CAXXZ 0000000140008670 f i cinder:CinderImGui.obj
 0001:00007670       ?_Xlength@?$vector@U?$pair@U?$vec@$01H$0A@@glm@@U12@@std@@V?$allocator@U?$pair@U?$vec@$01H$0A@@glm@@U12@@std@@@2@@std@@CAXXZ 0000000140008670 f i cinder:Context.cpp.obj
 0001:00007670       ?_Xlength@?$vector@HV?$allocator@H@std@@@std@@CAXXZ 0000000140008670 f i cinder:CinderImGui.obj
 0001:00007690       ?allocate@?$allocator@V?$basic_string@DU?$char_traits@D@std@@V?$allocator@D@2@@std@@@std@@QEAAPEAV?$basic_string@DU?$char_traits@D@std@@V?$allocator@D@2@@2@_K@Z 0000000140008690 f i MyFirstCinderApp.obj
 0001:00007690       ?allocate@?$allocator@Vpath@filesystem@std@@@std@@QEAAPEAVpath@filesystem@2@_K@Z 0000000140008690 f i cinder:AppImplMsw.obj
 0001:00007700       ?put@?$basic_ostream@DU?$char_traits@D@std@@@std@@QEAAAEAV12@D@Z 0000000140008700 f i MyFirstCinderApp.obj
 0001:00007850       ?widen@?$basic_ios@DU?$char_traits@D@std@@@std@@QEBADD@Z 0000000140008850 f i MyFirstCinderApp.obj
 0001:000079a0       ??0?$basic_string@DU?$char_traits@D@std@@V?$allocator@D@2@@std@@QEAA@U_String_constructor_concat_tag@1@AEAV01@1@Z 00000001400089a0 f i MyFirstCinderApp.obj
 0001:00007ba0       ??_E?$_Ref_count@V?$ImageTargetGlTexture@M@gl@cinder@@@std@@UEAAPEAXI@Z 0000000140008ba0 f i cinder:Texture.obj
 0001:00007ba0       ??_E?$_Ref_count@VVertBatch@gl@cinder@@@std@@UEAAPEAXI@Z 0000000140008ba0 f i cinder:Batch.obj
 0001:00007ba0       ??_E?$_Ref_count@VContext@gl@cinder@@@std@@UEAAPEAXI@Z 0000000140008ba0 f i cinder:Environment.obj
 0001:00007ba0       ??_E?$_Ref_count@VIStreamFile@cinder@@@std@@UEAAPEAXI@Z 0000000140008ba0 f i cinder:Stream.obj
 0001:00007ba0       ??_G?$_Ref_count@VImageSourceSurface@cinder@@@std@@UEAAPEAXI@Z 0000000140008ba0 f i cinder:Surface.obj
 0001:00007ba0       ??_G?$_Ref_count@VGlslProg@gl@cinder@@@std@@UEAAPEAXI@Z 0000000140008ba0 f i cinder:GlslProg.obj
 0001:00007ba0       ??_G?$_Ref_count@VIStreamMem@cinder@@@std@@UEAAPEAXI@Z 0000000140008ba0 f i cinder:Stream.obj
 0001:00007ba0       ??_E?$_Ref_count@VImageTargetFileTinyExr@cinder@@@std@@UEAAPEAXI@Z 0000000140008ba0 f i cinder:ImageFileTinyExr.obj
 0001:00007ba0       ??_E?$_Ref_count@UInst@ImageIoRegistrar@cinder@@@std@@UEAAPEAXI@Z 0000000140008ba0 f i cinder:ImageIo.obj
 0001:00007ba0       ??_E?$_Ref_count@VDataSourceBuffer@cinder@@@std@@UEAAPEAXI@Z 0000000140008ba0 f i cinder:DataSource.obj
 0001:00007ba0       ??_G?$_Ref_count@VWindow@app@cinder@@@std@@UEAAPEAXI@Z 0000000140008ba0 f i cinder:AppImplMsw.obj
 0001:00007ba0       ??_G?$_Ref_count@VIStreamFile@cinder@@@std@@UEAAPEAXI@Z 0000000140008ba0 f i cinder:Stream.obj
 0001:00007ba0       ??_G?$_Ref_count@V?$ImageTargetSurface@E@cinder@@@std@@UEAAPEAXI@Z 0000000140008ba0 f i cinder:Surface.obj
 0001:00007ba0       ??_E?$_Ref_count@VIStreamMem@cinder@@@std@@UEAAPEAXI@Z 0000000140008ba0 f i cinder:Stream.obj
 0001:00007ba0       ??_E?$_Ref_count@UDisconnector@detail@signals@cinder@@@std@@UEAAPEAXI@Z 0000000140008ba0 f i cinder:AppBase.obj
 0001:00007ba0       ??_G?$_Ref_count@VTexture2d@gl@cinder@@@std@@UEAAPEAXI@Z 0000000140008ba0 f i cinder:Texture.obj
 0001:00007ba0       ??_E?$_Ref_count@VDataSourcePath@cinder@@@std@@UEAAPEAXI@Z 0000000140008ba0 f i cinder:DataSource.obj
 0001:00007ba0       ??_G?$_Ref_count@VImageSourceTexture@gl@cinder@@@std@@UEAAPEAXI@Z 0000000140008ba0 f i cinder:Texture.obj
 0001:00007ba0       ??_G?$_Ref_count@VDataSourcePath@cinder@@@std@@UEAAPEAXI@Z 0000000140008ba0 f i cinder:DataSource.obj
 0001:00007ba0       ??_E?$_Ref_count@VDisplayMsw@cinder@@@std@@UEAAPEAXI@Z 0000000140008ba0 f i cinder:PlatformMsw.obj
 0001:00007ba0       ??_E?$_Ref_count@VImageTargetFileStbImage@cinder@@@std@@UEAAPEAXI@Z 0000000140008ba0 f i cinder:ImageTargetFileStbImage.obj
 0001:00007ba0       ??_G?$_Ref_count@V?$ImageTargetGlTexture@E@gl@cinder@@@std@@UEAAPEAXI@Z 0000000140008ba0 f i cinder:Texture.obj
 0001:00007ba0       ??_E?$_Ref_count@V?$ImageTargetGlTexture@Thalf_float@cinder@@@gl@cinder@@@std@@UEAAPEAXI@Z 0000000140008ba0 f i cinder:Texture.obj
 0001:00007ba0       ??_G?$_Ref_count@V?$ImageTargetGlTexture@M@gl@cinder@@@std@@UEAAPEAXI@Z 0000000140008ba0 f i cinder:Texture.obj
 0001:00007ba0       ??_G?$_Ref_count@VDataSourceBuffer@cinder@@@std@@UEAAPEAXI@Z 0000000140008ba0 f i cinder:DataSource.obj
 0001:00007ba0       ??_E?$_Ref_count_resource@PEAMU?$default_delete@$$BY0A@M@std@@@std@@UEAAPEAXI@Z 0000000140008ba0 f i cinder:Surface.obj
 0001:00007ba0       ??_G?$_Ref_count@VImageSourceFileWic@cinder@@@std@@UEAAPEAXI@Z 0000000140008ba0 f i cinder:ImageSourceFileWic.obj
 0001:00007ba0       ??_G?$_Ref_count@VTimeline@cinder@@@std@@UEAAPEAXI@Z 0000000140008ba0 f i cinder:AppBase.obj
 0001:00007ba0       ??_G?$_Ref_count@UDisconnector@detail@signals@cinder@@@std@@UEAAPEAXI@Z 0000000140008ba0 f i cinder:AppBase.obj
 0001:00007ba0       ??_G?$_Ref_count@VDataTargetPath@cinder@@@std@@UEAAPEAXI@Z 0000000140008ba0 f i cinder:DataTarget.obj
 0001:00007ba0       ??_E?$_Ref_count@VImageSourceFileTinyExr@cinder@@@std@@UEAAPEAXI@Z 0000000140008ba0 f i cinder:ImageFileTinyExr.obj
 0001:00007ba0       ??_G?$_Ref_count@Vio_service@asio@@@std@@UEAAPEAXI@Z 0000000140008ba0 f i cinder:AppBase.obj
 0001:00007ba0       ??_G?$_Ref_count@VVbo@gl@cinder@@@std@@UEAAPEAXI@Z 0000000140008ba0 f i cinder:Vbo.obj
 0001:00007ba0       ??_G?$_Ref_count@VImageTargetFileTinyExr@cinder@@@std@@UEAAPEAXI@Z 0000000140008ba0 f i cinder:ImageFileTinyExr.obj
 0001:00007ba0       ??_E?$_Ref_count@VGlslProg@gl@cinder@@@std@@UEAAPEAXI@Z 0000000140008ba0 f i cinder:GlslProg.obj
 0001:00007ba0       ??_E?$_Ref_count_resource@PEAEU?$default_delete@$$BY0A@E@std@@@std@@UEAAPEAXI@Z 0000000140008ba0 f i cinder:Surface.obj
 0001:00007ba0       ??_E?$_Ref_count@V?$ImageTargetSurface@E@cinder@@@std@@UEAAPEAXI@Z 0000000140008ba0 f i cinder:Surface.obj
 0001:00007ba0       ??_G?$_Ref_count@VRendererGl@app@cinder@@@std@@UEAAPEAXI@Z 0000000140008ba0 f i MyFirstCinderApp.obj
 0001:00007ba0       ??_E?$_Ref_count@VVaoImplCore@gl@cinder@@@std@@UEAAPEAXI@Z 0000000140008ba0 f i cinder:VaoImplCore.obj
 0001:00007ba0       ??_E?$_Ref_count@V?$ImageTargetGlTexture@G@gl@cinder@@@std@@UEAAPEAXI@Z 0000000140008ba0 f i cinder:Texture.obj
 0001:00007ba0       ??_E?$_Ref_count@VImageSourceSurface@cinder@@@std@@UEAAPEAXI@Z 0000000140008ba0 f i cinder:Surface.obj
 0001:00007ba0       ??_G?$_Ref_count@V?$ImageTargetGlTexture@Thalf_float@cinder@@@gl@cinder@@@std@@UEAAPEAXI@Z 0000000140008ba0 f i cinder:Texture.obj
 0001:00007ba0       ??_G?$_Ref_count@VDisplayMsw@cinder@@@std@@UEAAPEAXI@Z 0000000140008ba0 f i cinder:PlatformMsw.obj
 0001:00007ba0       ??_G?$_Ref_count_resource@PEAEU?$default_delete@$$BY0A@E@std@@@std@@UEAAPEAXI@Z 0000000140008ba0 f i cinder:Surface.obj
 0001:00007ba0       ??_G?$_Ref_count_resource@PEAMU?$default_delete@$$BY0A@M@std@@@std@@UEAAPEAXI@Z 0000000140008ba0 f i cinder:Surface.obj
 0001:00007ba0       ??_G?$_Ref_count@VImageSourceFileTinyExr@cinder@@@std@@UEAAPEAXI@Z 0000000140008ba0 f i cinder:ImageFileTinyExr.obj
 0001:00007ba0       ??_G?$_Ref_count@VVaoImplCore@gl@cinder@@@std@@UEAAPEAXI@Z 0000000140008ba0 f i cinder:VaoImplCore.obj
 0001:00007ba0       ??_E?$_Ref_count@VImageTargetFileWic@cinder@@@std@@UEAAPEAXI@Z 0000000140008ba0 f i cinder:ImageTargetFileWic.obj
 0001:00007ba0       ??_G?$_Ref_count@VImageSourceFileRadiance@cinder@@@std@@UEAAPEAXI@Z 0000000140008ba0 f i cinder:ImageSourceFileRadiance.obj
 0001:00007ba0       ??_E?$_Ref_count@VRendererGl@app@cinder@@@std@@UEAAPEAXI@Z 0000000140008ba0 f i * CIL library *:* CIL module *
 0001:00007ba0       ??_E?$_Ref_count@VWindow@app@cinder@@@std@@UEAAPEAXI@Z 0000000140008ba0 f i cinder:AppImplMsw.obj
 0001:00007ba0       ??_E?$_Ref_count@VImageSourceFileRadiance@cinder@@@std@@UEAAPEAXI@Z 0000000140008ba0 f i cinder:ImageSourceFileRadiance.obj
 0001:00007ba0       ??_E?$_Ref_count@Vwork@io_service@asio@@@std@@UEAAPEAXI@Z 0000000140008ba0 f i cinder:AppBase.obj
 0001:00007ba0       ??_E?$_Ref_count@VTimeline@cinder@@@std@@UEAAPEAXI@Z 0000000140008ba0 f i cinder:AppBase.obj
 0001:00007ba0       ??_G?$_Ref_count@V?$map@V?$basic_string@DU?$char_traits@D@std@@V?$allocator@D@2@@std@@PEBU_GUID@@U?$less@V?$basic_string@DU?$char_traits@D@std@@V?$allocator@D@2@@std@@@2@V?$allocator@U?$pair@$$CBV?$basic_string@DU?$char_traits@D@std@@V?$allocator@D@2@@std@@PEBU_GUID@@@std@@@2@@std@@@std@@UEAAPEAXI@Z 0000000140008ba0 f i cinder:ImageTargetFileWic.obj
 0001:00007ba0       ??_G?$_Ref_count@UInst@ImageIoRegistrar@cinder@@@std@@UEAAPEAXI@Z 0000000140008ba0 f i cinder:ImageIo.obj
 0001:00007ba0       ??_G?$_Ref_count@Vwork@io_service@asio@@@std@@UEAAPEAXI@Z 0000000140008ba0 f i cinder:AppBase.obj
 0001:00007ba0       ??_E?$_Ref_count@VBlankingWindow@app@cinder@@@std@@UEAAPEAXI@Z 0000000140008ba0 f i cinder:AppImplMswBasic.obj
 0001:00007ba0       ??_E?$_Ref_count@VOStreamFile@cinder@@@std@@UEAAPEAXI@Z 0000000140008ba0 f i cinder:Stream.obj
 0001:00007ba0       ??_E?$_Ref_count@Vio_service@asio@@@std@@UEAAPEAXI@Z 0000000140008ba0 f i cinder:AppBase.obj
 0001:00007ba0       ??_G?$_Ref_count@UPlatformDataMsw@gl@cinder@@@std@@UEAAPEAXI@Z 0000000140008ba0 f i cinder:RendererImplGlMsw.obj
 0001:00007ba0       ??_E?$_Ref_count@VImageSourceFileStbImage@cinder@@@std@@UEAAPEAXI@Z 0000000140008ba0 f i cinder:ImageSourceFileStbImage.obj
 0001:00007ba0       ??_G?$_Ref_count@VBlankingWindow@app@cinder@@@std@@UEAAPEAXI@Z 0000000140008ba0 f i cinder:AppImplMswBasic.obj
 0001:00007ba0       ??_E?$_Ref_count@V?$map@V?$basic_string@DU?$char_traits@D@std@@V?$allocator@D@2@@std@@PEBU_GUID@@U?$less@V?$basic_string@DU?$char_traits@D@std@@V?$allocator@D@2@@std@@@2@V?$allocator@U?$pair@$$CBV?$basic_string@DU?$char_traits@D@std@@V?$allocator@D@2@@std@@PEBU_GUID@@@std@@@2@@std@@@std@@UEAAPEAXI@Z 0000000140008ba0 f i cinder:ImageTargetFileWic.obj
 0001:00007ba0       ??_E?$_Ref_count@VTexture2d@gl@cinder@@@std@@UEAAPEAXI@Z 0000000140008ba0 f i cinder:Texture.obj
 0001:00007ba0       ??_G?$_Ref_count@V?$ImageTargetGlTexture@G@gl@cinder@@@std@@UEAAPEAXI@Z 0000000140008ba0 f i cinder:Texture.obj
 0001:00007ba0       ??_E?$_Ref_count@UPlatformDataMsw@gl@cinder@@@std@@UEAAPEAXI@Z 0000000140008ba0 f i cinder:RendererImplGlMsw.obj
 0001:00007ba0       ??_G?$_Ref_count@VImageTargetFileWic@cinder@@@std@@UEAAPEAXI@Z 0000000140008ba0 f i cinder:ImageTargetFileWic.obj
 0001:00007ba0       ??_E?$_Ref_count@VImageSourceFileWic@cinder@@@std@@UEAAPEAXI@Z 0000000140008ba0 f i cinder:ImageSourceFileWic.obj
 0001:00007ba0       ??_G?$_Ref_count@VImageSourceFileStbImage@cinder@@@std@@UEAAPEAXI@Z 0000000140008ba0 f i cinder:ImageSourceFileStbImage.obj
 0001:00007ba0       ??_G?$_Ref_count@VContext@gl@cinder@@@std@@UEAAPEAXI@Z 0000000140008ba0 f i cinder:Environment.obj
 0001:00007ba0       ??_E?$_Ref_count@VImageSourceTexture@gl@cinder@@@std@@UEAAPEAXI@Z 0000000140008ba0 f i cinder:Texture.obj
 0001:00007ba0       ??_E?$_Ref_count@V?$ImageTargetGlTexture@E@gl@cinder@@@std@@UEAAPEAXI@Z 0000000140008ba0 f i cinder:Texture.obj
 0001:00007ba0       ??_G?$_Ref_count@VImageTargetFileStbImage@cinder@@@std@@UEAAPEAXI@Z 0000000140008ba0 f i cinder:ImageTargetFileStbImage.obj
 0001:00007ba0       ??_E?$_Ref_count@VVbo@gl@cinder@@@std@@UEAAPEAXI@Z 0000000140008ba0 f i cinder:Vbo.obj
 0001:00007ba0       ??_E?$_Ref_count@VDataTargetPath@cinder@@@std@@UEAAPEAXI@Z 0000000140008ba0 f i cinder:DataTarget.obj
 0001:00007ba0       ??_G?$_Ref_count@VVertBatch@gl@cinder@@@std@@UEAAPEAXI@Z 0000000140008ba0 f i cinder:Batch.obj
 0001:00007ba0       ??_G?$_Ref_count@VOStreamFile@cinder@@@std@@UEAAPEAXI@Z 0000000140008ba0 f i cinder:Stream.obj
 0001:00007bd0       ??1?$GenericStringBuffer@U?$UTF8@D@rapidjson@@VCrtAllocator@2@@rapidjson@@QEAA@XZ 0000000140008bd0 f i RapidJson.obj
 0001:00007bd0       ??1?$GenericReader@U?$UTF8@D@rapidjson@@U12@VCrtAllocator@2@@rapidjson@@QEAA@XZ 0000000140008bd0 f i RapidJson.obj
 0001:00007bd0       ??1?$Stack@VCrtAllocator@rapidjson@@@internal@rapidjson@@QEAA@XZ 0000000140008bd0 f i MyFirstCinderApp.obj
 0001:00007c00       ??1?$_Uninitialized_backout_al@V?$allocator@V?$basic_string@DU?$char_traits@D@std@@V?$allocator@D@2@@std@@@std@@@std@@QEAA@XZ 0000000140008c00 f i MyFirstCinderApp.obj
 0001:00007c10       ?_Delete_this@?$_Func_impl_no_alloc@P6AXPEAVSettings@AppMsw@app@cinder@@@ZXPEAV1234@@std@@EEAAX_N@Z 0000000140008c10 f i MyFirstCinderApp.obj
 0001:00007c10       ?_Delete_this@?$_Func_impl_no_alloc@P6AXXZX$$V@std@@EEAAX_N@Z 0000000140008c10 f i cinder:CinderImGui.obj
 0001:00007c10       ?_Delete_this@?$_Func_impl_no_alloc@P6AHPEAU_EXRImage@@@ZHPEAU1@@std@@EEAAX_N@Z 0000000140008c10 f i cinder:ImageFileTinyExr.obj
 0001:00007c10       ?_Delete_this@?$_Func_impl_no_alloc@P6AXAEAVKeyEvent@app@cinder@@@ZXAEAV123@@std@@EEAAX_N@Z 0000000140008c10 f i cinder:CinderImGui.obj
 0001:00007c10       ?_Delete_this@?$_Func_impl_no_alloc@P6AXAEAVMouseEvent@app@cinder@@@ZXAEAV123@@std@@EEAAX_N@Z 0000000140008c10 f i cinder:CinderImGui.obj
 0001:00007c10       ?_Delete_this@?$_Func_impl_no_alloc@P6AHPEAU_EXRHeader@@@ZHPEAU1@@std@@EEAAX_N@Z 0000000140008c10 f i cinder:ImageFileTinyExr.obj
 0001:00007c20       ?_Get@?$_Func_impl_no_alloc@P6AXAEAVKeyEvent@app@cinder@@@ZXAEAV123@@std@@EEBAPEBXXZ 0000000140008c20 f i cinder:CinderImGui.obj
 0001:00007c20       ?_Get@?$_Func_impl_no_alloc@P6AHPEAU_EXRHeader@@@ZHPEAU1@@std@@EEBAPEBXXZ 0000000140008c20 f i cinder:ImageFileTinyExr.obj
 0001:00007c20       ?_Get@?$_Func_impl_no_alloc@P6AXPEAVSettings@AppMsw@app@cinder@@@ZXPEAV1234@@std@@EEBAPEBXXZ 0000000140008c20 f i MyFirstCinderApp.obj
 0001:00007c20       ?getFilePath@DataTarget@cinder@@QEBAAEBVpath@filesystem@std@@XZ 0000000140008c20 f i cinder:DataTarget.obj
 0001:00007c20       ?_Get@?$_Func_impl_no_alloc@P6AXAEAVMouseEvent@app@cinder@@@ZXAEAV123@@std@@EEBAPEBXXZ 0000000140008c20 f i cinder:CinderImGui.obj
 0001:00007c20       _Mtx_getconcrtcs           0000000140008c20 f i libcpmt:mutex.obj
 0001:00007c20       ?_Get@?$_Func_impl_no_alloc@P6AHPEAU_EXRImage@@@ZHPEAU1@@std@@EEBAPEBXXZ 0000000140008c20 f i cinder:ImageFileTinyExr.obj
 0001:00007c20       ?_Get@?$_Func_impl_no_alloc@V?$_Binder@U_Unforced@std@@A6AXAEBV?$shared_ptr@VWindow@app@cinder@@@2@@ZAEBV32@@std@@X$$V@std@@EEBAPEBXXZ 0000000140008c20 f i cinder:CinderImGui.obj
 0001:00007c20       ?_Get@?$_Func_impl_no_alloc@P6AXXZX$$V@std@@EEBAPEBXXZ 0000000140008c20 f i cinder:CinderImGui.obj
 0001:00007c30       ?_Target_type@?$_Func_impl_no_alloc@P6AXPEAVSettings@AppMsw@app@cinder@@@ZXPEAV1234@@std@@EEBAAEBVtype_info@@XZ 0000000140008c30 f i MyFirstCinderApp.obj
 0001:00007c40       ?_Do_call@?$_Func_impl_no_alloc@P6AXPEAVSettings@AppMsw@app@cinder@@@ZXPEAV1234@@std@@EEAAX$$QEAPEAVSettings@AppMsw@app@cinder@@@Z 0000000140008c40 f i MyFirstCinderApp.obj
 0001:00007c50       ?_Copy@?$_Func_impl_no_alloc@P6AXPEAVSettings@AppMsw@app@cinder@@@ZXPEAV1234@@std@@EEBAPEAV?$_Func_base@XPEAVSettings@AppMsw@app@cinder@@@2@PEAX@Z 0000000140008c50 f i MyFirstCinderApp.obj
 0001:00007c50       ?_Move@?$_Func_impl_no_alloc@P6AXPEAVSettings@AppMsw@app@cinder@@@ZXPEAV1234@@std@@EEAAPEAV?$_Func_base@XPEAVSettings@AppMsw@app@cinder@@@2@PEAX@Z 0000000140008c50 f i MyFirstCinderApp.obj
 0001:00007c70       ??$_Convert_stringoid_to_wide@U_Normal_conversion@filesystem@std@@@filesystem@std@@YA?AV?$basic_string@_WU?$char_traits@_W@std@@V?$allocator@_W@2@@1@V?$basic_string_view@DU?$char_traits@D@std@@@1@U_Normal_conversion@01@@Z 0000000140008c70 f i MyFirstCinderApp.obj
 0001:00007cb0       ??$_Erase_tree@V?$allocator@U?$_Tree_node@U?$pair@$$CBHPEAUSignalLink@?$SignalProto@$$A6A_NXZUCollectorBooleanAnd@signals@cinder@@@detail@signals@cinder@@@std@@PEAX@std@@@std@@@?$_Tree_val@U?$_Tree_simple_types@U?$pair@$$CBHPEAUSignalLink@?$SignalProto@$$A6A_NXZUCollectorBooleanAnd@signals@cinder@@@detail@signals@cinder@@@std@@@std@@@std@@QEAAXAEAV?$allocator@U?$_Tree_node@U?$pair@$$CBHPEAUSignalLink@?$SignalProto@$$A6A_NXZUCollectorBooleanAnd@signals@cinder@@@detail@signals@cinder@@@std@@PEAX@std@@@1@PEAU?$_Tree_node@U?$pair@$$CBHPEAUSignalLink@?$SignalProto@$$A6A_NXZUCollectorBooleanAnd@signals@cinder@@@detail@signals@cinder@@@std@@PEAX@1@@Z 0000000140008cb0 f i cinder:AppBase.obj
 0001:00007cb0       ??$_Erase_tree@V?$allocator@U?$_Tree_node@U?$pair@$$CBHPEAUSignalLink@?$SignalProto@$$A6AXXZU?$CollectorDefault@X@detail@signals@cinder@@@detail@signals@cinder@@@std@@PEAX@std@@@std@@@?$_Tree_val@U?$_Tree_simple_types@U?$pair@$$CBHPEAUSignalLink@?$SignalProto@$$A6AXXZU?$CollectorDefault@X@detail@signals@cinder@@@detail@signals@cinder@@@std@@@std@@@std@@QEAAXAEAV?$allocator@U?$_Tree_node@U?$pair@$$CBHPEAUSignalLink@?$SignalProto@$$A6AXXZU?$CollectorDefault@X@detail@signals@cinder@@@detail@signals@cinder@@@std@@PEAX@std@@@1@PEAU?$_Tree_node@U?$pair@$$CBHPEAUSignalLink@?$SignalProto@$$A6AXXZU?$CollectorDefault@X@detail@signals@cinder@@@detail@signals@cinder@@@std@@PEAX@1@@Z 0000000140008cb0 f i cinder:AppBase.obj
 0001:00007cb0       ??$_Erase_tree_and_orphan@V?$allocator@U?$_Tree_node@U?$pair@$$CBHP6A?AV?$shared_ptr@VImageSource@cinder@@@std@@V?$shared_ptr@VDataSource@cinder@@@2@VOptions@ImageSource@cinder@@@Z@std@@PEAX@std@@@std@@@?$_Tree_val@U?$_Tree_simple_types@U?$pair@$$CBHP6A?AV?$shared_ptr@VImageSource@cinder@@@std@@V?$shared_ptr@VDataSource@cinder@@@2@VOptions@ImageSource@cinder@@@Z@std@@@std@@@std@@QEAAXAEAV?$allocator@U?$_Tree_node@U?$pair@$$CBHP6A?AV?$shared_ptr@VImageSource@cinder@@@std@@V?$shared_ptr@VDataSource@cinder@@@2@VOptions@ImageSource@cinder@@@Z@std@@PEAX@std@@@1@PEAU?$_Tree_node@U?$pair@$$CBHP6A?AV?$shared_ptr@VImageSource@cinder@@@std@@V?$shared_ptr@VDataSource@cinder@@@2@VOptions@ImageSource@cinder@@@Z@std@@PEAX@1@@Z 0000000140008cb0 f i cinder:ImageIo.obj
 0001:00007cb0       ??$_Erase_tree@V?$allocator@U?$_Tree_node@U?$pair@$$CBIPEAVShape@@@std@@PEAX@std@@@std@@@?$_Tree_val@U?$_Tree_simple_types@U?$pair@$$CBIPEAVShape@@@std@@@std@@@std@@QEAAXAEAV?$allocator@U?$_Tree_node@U?$pair@$$CBIPEAVShape@@@std@@PEAX@std@@@1@PEAU?$_Tree_node@U?$pair@$$CBIPEAVShape@@@std@@PEAX@1@@Z 0000000140008cb0 f i MyFirstCinderApp.obj
 0001:00007cb0       ??$_Erase_tree@V?$allocator@U?$_Tree_node@U?$pair@$$CBHPEAUSignalLink@?$SignalProto@$$A6A_NAEBVpath@filesystem@std@@PEAV?$basic_string@DU?$char_traits@D@std@@V?$allocator@D@2@@3@@ZU?$CollectorDefault@_N@detail@signals@cinder@@@detail@signals@cinder@@@std@@PEAX@std@@@std@@@?$_Tree_val@U?$_Tree_simple_types@U?$pair@$$CBHPEAUSignalLink@?$SignalProto@$$A6A_NAEBVpath@filesystem@std@@PEAV?$basic_string@DU?$char_traits@D@std@@V?$allocator@D@2@@3@@ZU?$CollectorDefault@_N@detail@signals@cinder@@@detail@signals@cinder@@@std@@@std@@@std@@QEAAXAEAV?$allocator@U?$_Tree_node@U?$pair@$$CBHPEAUSignalLink@?$SignalProto@$$A6A_NAEBVpath@filesystem@std@@PEAV?$basic_string@DU?$char_traits@D@std@@V?$allocator@D@2@@3@@ZU?$CollectorDefault@_N@detail@signals@cinder@@@detail@signals@cinder@@@std@@PEAX@std@@@1@PEAU?$_Tree_node@U?$pair@$$CBHPEAUSignalLink@?$SignalProto@$$A6A_NAEBVpath@filesystem@std@@PEAV?$basic_string@DU?$char_traits@D@std@@V?$allocator@D@2@@3@@ZU?$CollectorDefault@_N@detail@signals@cinder@@@detail@signals@cinder@@@std@@PEAX@1@@Z 0000000140008cb0 f i cinder:GlslProg.obj
 0001:00007cb0       ??$_Erase_tree@V?$allocator@U?$_Tree_node@U?$pair@$$CBHP6A?AV?$shared_ptr@VImageSource@cinder@@@std@@V?$shared_ptr@VDataSource@cinder@@@2@VOptions@ImageSource@cinder@@@Z@std@@PEAX@std@@@std@@@?$_Tree_val@U?$_Tree_simple_types@U?$pair@$$CBHP6A?AV?$shared_ptr@VImageSource@cinder@@@std@@V?$shared_ptr@VDataSource@cinder@@@2@VOptions@ImageSource@cinder@@@Z@std@@@std@@@std@@QEAAXAEAV?$allocator@U?$_Tree_node@U?$pair@$$CBHP6A?AV?$shared_ptr@VImageSource@cinder@@@std@@V?$shared_ptr@VDataSource@cinder@@@2@VOptions@ImageSource@cinder@@@Z@std@@PEAX@std@@@1@PEAU?$_Tree_node@U?$pair@$$CBHP6A?AV?$shared_ptr@VImageSource@cinder@@@std@@V?$shared_ptr@VDataSource@cinder@@@2@VOptions@ImageSource@cinder@@@Z@std@@PEAX@1@@Z 0000000140008cb0 f i cinder:ImageIo.obj
 0001:00007cb0       ??$_Erase_tree@V?$allocator@U?$_Tree_node@U?$pair@$$CBHPEAUSignalLink@?$SignalProto@$$A6AXAEAVFileDropEvent@app@cinder@@@ZU?$CollectorEvent@VFileDropEvent@app@cinder@@@23@@detail@signals@cinder@@@std@@PEAX@std@@@std@@@?$_Tree_val@U?$_Tree_simple_types@U?$pair@$$CBHPEAUSignalLink@?$SignalProto@$$A6AXAEAVFileDropEvent@app@cinder@@@ZU?$CollectorEvent@VFileDropEvent@app@cinder@@@23@@detail@signals@cinder@@@std@@@std@@@std@@QEAAXAEAV?$allocator@U?$_Tree_node@U?$pair@$$CBHPEAUSignalLink@?$SignalProto@$$A6AXAEAVFileDropEvent@app@cinder@@@ZU?$CollectorEvent@VFileDropEvent@app@cinder@@@23@@detail@signals@cinder@@@std@@PEAX@std@@@1@PEAU?$_Tree_node@U?$pair@$$CBHPEAUSignalLink@?$SignalProto@$$A6AXAEAVFileDropEvent@app@cinder@@@ZU?$CollectorEvent@VFileDropEvent@app@cinder@@@23@@detail@signals@cinder@@@std@@PEAX@1@@Z 0000000140008cb0 f i cinder:AppImplMsw.obj
 0001:00007cb0       ??$_Erase_tree@V?$allocator@U?$_Tree_node@U?$pair@$$CBHPEAUSignalLink@?$SignalProto@$$A6AXAEAVKeyEvent@app@cinder@@@ZU?$CollectorEvent@VKeyEvent@app@cinder@@@23@@detail@signals@cinder@@@std@@PEAX@std@@@std@@@?$_Tree_val@U?$_Tree_simple_types@U?$pair@$$CBHPEAUSignalLink@?$SignalProto@$$A6AXAEAVKeyEvent@app@cinder@@@ZU?$CollectorEvent@VKeyEvent@app@cinder@@@23@@detail@signals@cinder@@@std@@@std@@@std@@QEAAXAEAV?$allocator@U?$_Tree_node@U?$pair@$$CBHPEAUSignalLink@?$SignalProto@$$A6AXAEAVKeyEvent@app@cinder@@@ZU?$CollectorEvent@VKeyEvent@app@cinder@@@23@@detail@signals@cinder@@@std@@PEAX@std@@@1@PEAU?$_Tree_node@U?$pair@$$CBHPEAUSignalLink@?$SignalProto@$$A6AXAEAVKeyEvent@app@cinder@@@ZU?$CollectorEvent@VKeyEvent@app@cinder@@@23@@detail@signals@cinder@@@std@@PEAX@1@@Z 0000000140008cb0 f i cinder:AppImplMsw.obj
 0001:00007cb0       ??$_Erase_tree@V?$allocator@U?$_Tree_node@U?$pair@$$CBHPEAUSignalLink@?$SignalProto@$$A6AXAEAVTouchEvent@app@cinder@@@ZU?$CollectorEvent@VTouchEvent@app@cinder@@@23@@detail@signals@cinder@@@std@@PEAX@std@@@std@@@?$_Tree_val@U?$_Tree_simple_types@U?$pair@$$CBHPEAUSignalLink@?$SignalProto@$$A6AXAEAVTouchEvent@app@cinder@@@ZU?$CollectorEvent@VTouchEvent@app@cinder@@@23@@detail@signals@cinder@@@std@@@std@@@std@@QEAAXAEAV?$allocator@U?$_Tree_node@U?$pair@$$CBHPEAUSignalLink@?$SignalProto@$$A6AXAEAVTouchEvent@app@cinder@@@ZU?$CollectorEvent@VTouchEvent@app@cinder@@@23@@detail@signals@cinder@@@std@@PEAX@std@@@1@PEAU?$_Tree_node@U?$pair@$$CBHPEAUSignalLink@?$SignalProto@$$A6AXAEAVTouchEvent@app@cinder@@@ZU?$CollectorEvent@VTouchEvent@app@cinder@@@23@@detail@signals@cinder@@@std@@PEAX@1@@Z 0000000140008cb0 f i cinder:AppImplMsw.obj
 0001:00007cb0       ??$_Erase_tree@V?$allocator@U?$_Tree_node@U?$pair@$$CBHPEAUSignalLink@?$SignalProto@$$A6AXAEBV?$shared_ptr@VDisplay@cinder@@@std@@@ZU?$CollectorDefault@X@detail@signals@cinder@@@detail@signals@cinder@@@std@@PEAX@std@@@std@@@?$_Tree_val@U?$_Tree_simple_types@U?$pair@$$CBHPEAUSignalLink@?$SignalProto@$$A6AXAEBV?$shared_ptr@VDisplay@cinder@@@std@@@ZU?$CollectorDefault@X@detail@signals@cinder@@@detail@signals@cinder@@@std@@@std@@@std@@QEAAXAEAV?$allocator@U?$_Tree_node@U?$pair@$$CBHPEAUSignalLink@?$SignalProto@$$A6AXAEBV?$shared_ptr@VDisplay@cinder@@@std@@@ZU?$CollectorDefault@X@detail@signals@cinder@@@detail@signals@cinder@@@std@@PEAX@std@@@1@PEAU?$_Tree_node@U?$pair@$$CBHPEAUSignalLink@?$SignalProto@$$A6AXAEBV?$shared_ptr@VDisplay@cinder@@@std@@@ZU?$CollectorDefault@X@detail@signals@cinder@@@detail@signals@cinder@@@std@@PEAX@1@@Z 0000000140008cb0 f i cinder:AppBase.obj
 0001:00007cb0       ??$_Erase_tree@V?$allocator@U?$_Tree_node@U?$pair@$$CBHPEAUSignalLink@?$SignalProto@$$A6AXAEAVMouseEvent@app@cinder@@@ZU?$CollectorEvent@VMouseEvent@app@cinder@@@23@@detail@signals@cinder@@@std@@PEAX@std@@@std@@@?$_Tree_val@U?$_Tree_simple_types@U?$pair@$$CBHPEAUSignalLink@?$SignalProto@$$A6AXAEAVMouseEvent@app@cinder@@@ZU?$CollectorEvent@VMouseEvent@app@cinder@@@23@@detail@signals@cinder@@@std@@@std@@@std@@QEAAXAEAV?$allocator@U?$_Tree_node@U?$pair@$$CBHPEAUSignalLink@?$SignalProto@$$A6AXAEAVMouseEvent@app@cinder@@@ZU?$CollectorEvent@VMouseEvent@app@cinder@@@23@@detail@signals@cinder@@@std@@PEAX@std@@@1@PEAU?$_Tree_node@U?$pair@$$CBHPEAUSignalLink@?$SignalProto@$$A6AXAEAVMouseEvent@app@cinder@@@ZU?$CollectorEvent@VMouseEvent@app@cinder@@@23@@detail@signals@cinder@@@std@@PEAX@1@@Z 0000000140008cb0 f i cinder:AppImplMsw.obj
 0001:00007d10       ??$_Erase_tree@V?$allocator@U?$_Tree_node@V?$basic_string@DU?$char_traits@D@std@@V?$allocator@D@2@@std@@PEAX@std@@@std@@@?$_Tree_val@U?$_Tree_simple_types@V?$basic_string@DU?$char_traits@D@std@@V?$allocator@D@2@@std@@@std@@@std@@QEAAXAEAV?$allocator@U?$_Tree_node@V?$basic_string@DU?$char_traits@D@std@@V?$allocator@D@2@@std@@PEAX@std@@@1@PEAU?$_Tree_node@V?$basic_string@DU?$char_traits@D@std@@V?$allocator@D@2@@std@@PEAX@1@@Z 0000000140008d10 f i MyFirstCinderApp.obj
 0001:00007dd0       ??_ECircle@@UEAAPEAXI@Z    0000000140008dd0 f i * CIL library *:* CIL module *
 0001:00007dd0       ??_GCircle@@UEAAPEAXI@Z    0000000140008dd0 f i Circle.obj
 0001:00007e00       ?Copy@Circle@@UEBAPEAVShape@@XZ 0000000140008e00 f   Circle.obj
 0001:00007e60       ?Type@Circle@@UEAA?AV?$basic_string@DU?$char_traits@D@std@@V?$allocator@D@2@@std@@XZ 0000000140008e60 f   Circle.obj
 0001:00007ea0       ?Update@Circle@@UEAAXXZ    0000000140008ea0 f   Circle.obj
 0001:00007fe0       ?Draw@Circle@@UEAAXXZ      0000000140008fe0 f   Circle.obj
 0001:00008050       ?IsClickingOnShape@Circle@@UEAAXU?$vec@$01M$0A@@glm@@@Z 0000000140009050 f   Circle.obj
 0001:000080e0       ?UpdateShapeWASD@Circle@@UEAAX_N000@Z 00000001400090e0 f   Circle.obj
 0001:00008170       ??R?$mersenne_twister@I$0CA@$0CHA@$0BIN@$0BP@$0JJAILANP@$0L@$06$0JNCMFGIA@$0P@$0OPMGAAAA@$0BC@@std@@QEAAIXZ 0000000140009170 f i Circle.obj
 0001:00008310       ??$?RV?$mersenne_twister_engine@I$0CA@$0CHA@$0BIN@$0BP@$0JJAILANP@$0L@$0PPPPPPPP@$06$0JNCMFGIA@$0P@$0OPMGAAAA@$0BC@$0GMAHIJGF@@std@@@?$uniform_real@M@std@@QEBAMAEAV?$mersenne_twister_engine@I$0CA@$0CHA@$0BIN@$0BP@$0JJAILANP@$0L@$0PPPPPPPP@$06$0JNCMFGIA@$0P@$0OPMGAAAA@$0BC@$0GMAHIJGF@@1@@Z 0000000140009310 f i Circle.obj
 0001:000083c0       ?getChannelOrder@SurfaceConstraints@cinder@@UEBA?AVSurfaceChannelOrder@2@_N@Z 00000001400093c0 f i Image.obj
 0001:000083f0       ?getRowBytes@SurfaceConstraints@cinder@@UEBA_JHAEBVSurfaceChannelOrder@2@H@Z 00000001400093f0 f i Image.obj
 0001:00008400       ??_ESurfaceConstraintsDefault@cinder@@UEAAPEAXI@Z 0000000140009400 f i * CIL library *:* CIL module *
 0001:00008400       ??_GSurfaceConstraints@cinder@@UEAAPEAXI@Z 0000000140009400 f i Image.obj
 0001:00008400       ??_GSurfaceConstraintsDefault@cinder@@UEAAPEAXI@Z 0000000140009400 f i Image.obj
 0001:00008400       ??_ESurfaceConstraints@cinder@@UEAAPEAXI@Z 0000000140009400 f i * CIL library *:* CIL module *
 0001:00008430       ??1?$SurfaceT@E@cinder@@QEAA@XZ 0000000140009430 f i Image.obj
 0001:000084a0       ??1?$ChannelT@M@cinder@@QEAA@XZ 00000001400094a0 f i cinder:Surface.obj
 0001:000084a0       ??1?$ChannelT@E@cinder@@QEAA@XZ 00000001400094a0 f i Image.obj
 0001:000084f0       ??1Format@TextureBase@gl@cinder@@QEAA@XZ 00000001400094f0 f i Image.obj
 0001:000085b0       ??1Format@Texture2d@gl@cinder@@QEAA@XZ 00000001400095b0 f i Image.obj
 0001:00008600       ?SaveImage@Image@@QEAAXAEAVpath@filesystem@std@@@Z 0000000140009600 f   Image.obj
 0001:000089c0       ??1SurfaceConstraintsDefault@cinder@@UEAA@XZ 00000001400099c0 f i Image.obj
 0001:000089d0       ??$?0V?$basic_string@DU?$char_traits@D@std@@V?$allocator@D@2@@std@@$0A@@path@filesystem@std@@QEAA@AEBV?$basic_string@DU?$char_traits@D@std@@V?$allocator@D@2@@2@W4format@012@@Z 00000001400099d0 f i Image.obj
 0001:00008a30       ??0system_error@std@@QEAA@Verror_code@1@AEBV?$basic_string@DU?$char_traits@D@std@@V?$allocator@D@2@@1@@Z 0000000140009a30 f i RapidJson.obj
 0001:00008a60       ?getDepth@Texture2d@gl@cinder@@UEBAHXZ 0000000140009a60 f i cinder:Texture.obj
 0001:00008a60       ?length@charNode@@UEBAHXZ  0000000140009a60 f i libvcruntime:undname.obj
 0001:00008a60       ?raw_length@charNode@@UEBAHXZ 0000000140009a60 f i libvcruntime:undname.obj
 0001:00008a60       ?GetContextKind@ThreadInternalContext@details@Concurrency@@UEBA?AW4ContextKind@ContextBase@23@XZ 0000000140009a60 f i libconcrt:ThreadScheduler.obj
 0001:00008a60       _get_startup_argv_mode     0000000140009a60 f i LIBCMT:argv_mode.obj
 0001:00008a60       ?do_encoding@codecvt_base@std@@MEBAHXZ 0000000140009a60 f i RapidJson.obj
 0001:00008a60       ?do_max_length@codecvt_base@std@@MEBAHXZ 0000000140009a60 f i RapidJson.obj
 0001:00008a70       ??_Eios_base@std@@UEAAPEAXI@Z 0000000140009a70 f i * CIL library *:* CIL module *
 0001:00008a70       ??_Gios_base@std@@UEAAPEAXI@Z 0000000140009a70 f i RapidJson.obj
 0001:00008ab0       ?to_string@std@@YA?AV?$basic_string@DU?$char_traits@D@std@@V?$allocator@D@2@@1@H@Z 0000000140009ab0 f i RapidJson.obj
 0001:00008b90       ??0path@filesystem@std@@QEAA@AEBV012@@Z 0000000140009b90 f i RapidJson.obj
 0001:00008b90       ??0?$basic_string@_WU?$char_traits@_W@std@@V?$allocator@_W@2@@std@@QEAA@AEBV01@@Z 0000000140009b90 f i RapidJson.obj
 0001:00008c80       ??0filesystem_error@filesystem@std@@QEAA@AEBV?$basic_string@DU?$char_traits@D@std@@V?$allocator@D@2@@2@AEBVpath@12@Verror_code@2@@Z 0000000140009c80 f i RapidJson.obj
 0001:00008db0       ?what@filesystem_error@filesystem@std@@UEBAPEBDXZ 0000000140009db0 f i RapidJson.obj
 0001:00008dc0       ?_Pretty_message@filesystem_error@filesystem@std@@CA?AV?$basic_string@DU?$char_traits@D@std@@V?$allocator@D@2@@3@V?$basic_string_view@DU?$char_traits@D@std@@@3@AEBVpath@23@1@Z 0000000140009dc0 f i RapidJson.obj
 0001:000090b0       ??_Gfilesystem_error@filesystem@std@@UEAAPEAXI@Z 000000014000a0b0 f i RapidJson.obj
 0001:000090b0       ??_Efilesystem_error@filesystem@std@@UEAAPEAXI@Z 000000014000a0b0 f i * CIL library *:* CIL module *
 0001:00009200       ??1filesystem_error@filesystem@std@@UEAA@XZ 000000014000a200 f i RapidJson.obj
 0001:00009320       ??0filesystem_error@filesystem@std@@QEAA@AEBV012@@Z 000000014000a320 f i RapidJson.obj
 0001:000093b0       ?_Throw_fs_error@filesystem@std@@YAXPEBDAEBVerror_code@2@AEBVpath@12@@Z 000000014000a3b0 f i RapidJson.obj
 0001:00009410       ?_Get_any_status@filesystem@std@@YA?AU_File_status_and_error@12@AEBVpath@12@W4__std_fs_stats_flags@@@Z 000000014000a410 f i RapidJson.obj
 0001:000094f0       ??0RapidJson@@QEAA@XZ      000000014000a4f0 f   RapidJson.obj
 0001:00009a90       ??_D?$basic_ofstream@DU?$char_traits@D@std@@@std@@QEAAXXZ 000000014000aa90 f i RapidJson.obj
 0001:00009b30       ?LoadJsonResources@RapidJson@@QEAA_NXZ 000000014000ab30 f   RapidJson.obj
 0001:00009d30       ?GetJsonString@RapidJson@@QEAA?AV?$basic_string@DU?$char_traits@D@std@@V?$allocator@D@2@@std@@XZ 000000014000ad30 f   RapidJson.obj
 0001:0000a1c0       ??_D?$basic_stringstream@DU?$char_traits@D@std@@V?$allocator@D@2@@std@@QEAAXXZ 000000014000b1c0 f i RapidJson.obj
 0001:0000a2c0       ??_D?$basic_ifstream@DU?$char_traits@D@std@@@std@@QEAAXXZ 000000014000b2c0 f i RapidJson.obj
 0001:0000a360       ?SaveJsonResources@RapidJson@@QEAAXXZ 000000014000b360 f   RapidJson.obj
 0001:0000a830       ?WriteToProjectJsonFile@RapidJson@@QEAAXAEAV?$basic_string@DU?$char_traits@D@std@@V?$allocator@D@2@@std@@00@Z 000000014000b830 f   RapidJson.obj
 0001:0000ac10       ??1?$PrettyWriter@V?$GenericStringBuffer@U?$UTF8@D@rapidjson@@VCrtAllocator@2@@rapidjson@@U?$UTF8@D@2@U32@VCrtAllocator@2@$0A@@rapidjson@@QEAA@XZ 000000014000bc10 f i RapidJson.obj
 0001:0000ac40       ?CopyFromProjectJsonFile@RapidJson@@QEAAXXZ 000000014000bc40 f   RapidJson.obj
 0001:0000ae70       ??0?$basic_ifstream@DU?$char_traits@D@std@@@std@@QEAA@PEBDHH@Z 000000014000be70 f i RapidJson.obj
 0001:0000af90       ?seekpos@?$basic_stringbuf@DU?$char_traits@D@std@@V?$allocator@D@2@@std@@MEAA?AV?$fpos@U_Mbstatet@@@2@V32@H@Z 000000014000bf90 f i RapidJson.obj
 0001:0000b080       ?seekoff@?$basic_stringbuf@DU?$char_traits@D@std@@V?$allocator@D@2@@std@@MEAA?AV?$fpos@U_Mbstatet@@@2@_JHH@Z 000000014000c080 f i RapidJson.obj
 0001:0000b1e0       ?underflow@?$basic_stringbuf@DU?$char_traits@D@std@@V?$allocator@D@2@@std@@MEAAHXZ 000000014000c1e0 f i RapidJson.obj
 0001:0000b250       ?pbackfail@?$basic_stringbuf@DU?$char_traits@D@std@@V?$allocator@D@2@@std@@MEAAHH@Z 000000014000c250 f i RapidJson.obj
 0001:0000b2b0       ?overflow@?$basic_stringbuf@DU?$char_traits@D@std@@V?$allocator@D@2@@std@@MEAAHH@Z 000000014000c2b0 f i RapidJson.obj
 0001:0000b4c0       ??1?$basic_stringbuf@DU?$char_traits@D@std@@V?$allocator@D@2@@std@@UEAA@XZ 000000014000c4c0 f i RapidJson.obj
 0001:0000b5c0       ??0?$basic_stringstream@DU?$char_traits@D@std@@V?$allocator@D@2@@std@@QEAA@XZ 000000014000c5c0 f i RapidJson.obj
 0001:0000b6f0       ??1?$basic_iostream@DU?$char_traits@D@std@@@std@@UEAA@XZ 000000014000c6f0 f i RapidJson.obj
 0001:0000b770       ??1?$basic_istream@DU?$char_traits@D@std@@@std@@UEAA@XZ 000000014000c770 f i RapidJson.obj
 0001:0000b7a0       ?imbue@?$basic_filebuf@DU?$char_traits@D@std@@@std@@MEAAXAEBVlocale@2@@Z 000000014000c7a0 f i RapidJson.obj
 0001:0000b7d0       ?sync@?$basic_filebuf@DU?$char_traits@D@std@@@std@@MEAAHXZ 000000014000c7d0 f i RapidJson.obj
 0001:0000b820       ?setbuf@?$basic_filebuf@DU?$char_traits@D@std@@@std@@MEAAPEAV?$basic_streambuf@DU?$char_traits@D@std@@@2@PEAD_J@Z 000000014000c820 f i RapidJson.obj
 0001:0000b880       ?seekpos@?$basic_filebuf@DU?$char_traits@D@std@@@std@@MEAA?AV?$fpos@U_Mbstatet@@@2@V32@H@Z 000000014000c880 f i RapidJson.obj
 0001:0000b960       ?seekoff@?$basic_filebuf@DU?$char_traits@D@std@@@std@@MEAA?AV?$fpos@U_Mbstatet@@@2@_JHH@Z 000000014000c960 f i RapidJson.obj
 0001:0000ba50       ?xsputn@?$basic_filebuf@DU?$char_traits@D@std@@@std@@MEAA_JPEBD_J@Z 000000014000ca50 f i RapidJson.obj
 0001:0000bb80       ?xsgetn@?$basic_filebuf@DU?$char_traits@D@std@@@std@@MEAA_JPEAD_J@Z 000000014000cb80 f i RapidJson.obj
 0001:0000bd40       ?uflow@?$basic_filebuf@DU?$char_traits@D@std@@@std@@MEAAHXZ 000000014000cd40 f i RapidJson.obj
 0001:0000c010       ?underflow@?$basic_filebuf@DU?$char_traits@D@std@@@std@@MEAAHXZ 000000014000d010 f i RapidJson.obj
 0001:0000c080       ?pbackfail@?$basic_filebuf@DU?$char_traits@D@std@@@std@@MEAAHH@Z 000000014000d080 f i RapidJson.obj
 0001:0000c170       ?overflow@?$basic_filebuf@DU?$char_traits@D@std@@@std@@MEAAHH@Z 000000014000d170 f i RapidJson.obj
 0001:0000c310       ?_Unlock@?$basic_filebuf@DU?$char_traits@D@std@@@std@@UEAAXXZ 000000014000d310 f i RapidJson.obj
 0001:0000c330       ?_Lock@?$basic_filebuf@DU?$char_traits@D@std@@@std@@UEAAXXZ 000000014000d330 f i RapidJson.obj
 0001:0000c350       ??1?$basic_filebuf@DU?$char_traits@D@std@@@std@@UEAA@XZ 000000014000d350 f i RapidJson.obj
 0001:0000c400       ?seekoff@?$basic_streambuf@DU?$char_traits@D@std@@@std@@MEAA?AV?$fpos@U_Mbstatet@@@2@_JHH@Z 000000014000d400 f i RapidJson.obj
 0001:0000c400       ?seekpos@?$basic_streambuf@DU?$char_traits@D@std@@@std@@MEAA?AV?$fpos@U_Mbstatet@@@2@V32@H@Z 000000014000d400 f i RapidJson.obj
 0001:0000c420       ?xsputn@?$basic_streambuf@DU?$char_traits@D@std@@@std@@MEAA_JPEBD_J@Z 000000014000d420 f i RapidJson.obj
 0001:0000c4d0       ?xsgetn@?$basic_streambuf@DU?$char_traits@D@std@@@std@@MEAA_JPEAD_J@Z 000000014000d4d0 f i RapidJson.obj
 0001:0000c580       ?uflow@?$basic_streambuf@DU?$char_traits@D@std@@@std@@MEAAHXZ 000000014000d580 f i RapidJson.obj
 0001:0000c5c0       ?pbackfail@?$basic_streambuf@DU?$char_traits@D@std@@@std@@MEAAHH@Z 000000014000d5c0 f i RapidJson.obj
 0001:0000c5c0       ?overflow@?$basic_streambuf@DU?$char_traits@D@std@@@std@@MEAAHH@Z 000000014000d5c0 f i RapidJson.obj
 0001:0000c5c0       ?underflow@?$basic_streambuf@DU?$char_traits@D@std@@@std@@MEAAHXZ 000000014000d5c0 f i RapidJson.obj
 0001:0000c5d0       ??1?$basic_streambuf@DU?$char_traits@D@std@@@std@@UEAA@XZ 000000014000d5d0 f i RapidJson.obj
 0001:0000c630       ??0?$basic_ofstream@DU?$char_traits@D@std@@@std@@QEAA@PEBDHH@Z 000000014000d630 f i RapidJson.obj
 0001:0000c740       ??6?$basic_ostream@DU?$char_traits@D@std@@@std@@QEAAAEAV01@PEAV?$basic_streambuf@DU?$char_traits@D@std@@@1@@Z 000000014000d740 f i RapidJson.obj
 0001:0000ca00       ??1?$basic_ostream@DU?$char_traits@D@std@@@std@@UEAA@XZ 000000014000da00 f i RapidJson.obj
 0001:0000ca30       ??1?$basic_ios@DU?$char_traits@D@std@@@std@@UEAA@XZ 000000014000da30 f i RapidJson.obj
 0001:0000ca50       ??0?$GenericDocument@U?$UTF8@D@rapidjson@@V?$MemoryPoolAllocator@VCrtAllocator@rapidjson@@@2@VCrtAllocator@2@@rapidjson@@QEAA@PEAV?$MemoryPoolAllocator@VCrtAllocator@rapidjson@@@1@_KPEAVCrtAllocator@1@@Z 000000014000da50 f i RapidJson.obj
 0001:0000cae0       ?FindMember@?$GenericValue@U?$UTF8@D@rapidjson@@V?$MemoryPoolAllocator@VCrtAllocator@rapidjson@@@2@@rapidjson@@QEAA?AV?$GenericMemberIterator@$0A@U?$UTF8@D@rapidjson@@V?$MemoryPoolAllocator@VCrtAllocator@rapidjson@@@2@@2@PEBD@Z 000000014000dae0 f i RapidJson.obj
 0001:0000cc50       ??Y?$basic_string@DU?$char_traits@D@std@@V?$allocator@D@2@@std@@QEAAAEAV01@AEBV01@@Z 000000014000dc50 f i RapidJson.obj
 0001:0000cc70       ??4?$basic_string@DU?$char_traits@D@std@@V?$allocator@D@2@@std@@QEAAAEAV01@$$QEAV01@@Z 000000014000dc70 f i RapidJson.obj
 0001:0000cd00       ??0?$basic_string@DU?$char_traits@D@std@@V?$allocator@D@2@@std@@QEAA@XZ 000000014000dd00 f i RapidJson.obj
 0001:0000cd20       ??_E?$basic_ifstream@DU?$char_traits@D@std@@@std@@UEAAPEAXI@Z 000000014000dd20 f i * CIL library *:* CIL module *
 0001:0000cd20       ??_G?$basic_ifstream@DU?$char_traits@D@std@@@std@@UEAAPEAXI@Z 000000014000dd20 f i RapidJson.obj
 0001:0000cd60       ??_E?$basic_stringbuf@DU?$char_traits@D@std@@V?$allocator@D@2@@std@@UEAAPEAXI@Z 000000014000dd60 f i * CIL library *:* CIL module *
 0001:0000cd60       ??_G?$basic_stringbuf@DU?$char_traits@D@std@@V?$allocator@D@2@@std@@UEAAPEAXI@Z 000000014000dd60 f i RapidJson.obj
 0001:0000cda0       ??_E?$basic_stringstream@DU?$char_traits@D@std@@V?$allocator@D@2@@std@@UEAAPEAXI@Z 000000014000dda0 f i * CIL library *:* CIL module *
 0001:0000cda0       ??_G?$basic_stringstream@DU?$char_traits@D@std@@V?$allocator@D@2@@std@@UEAAPEAXI@Z 000000014000dda0 f i RapidJson.obj
 0001:0000cde0       ??_G?$basic_iostream@DU?$char_traits@D@std@@@std@@UEAAPEAXI@Z 000000014000dde0 f i RapidJson.obj
 0001:0000cde0       ??_E?$basic_iostream@DU?$char_traits@D@std@@@std@@UEAAPEAXI@Z 000000014000dde0 f i * CIL library *:* CIL module *
 0001:0000ce90       ??_G?$basic_istream@DU?$char_traits@D@std@@@std@@UEAAPEAXI@Z 000000014000de90 f i RapidJson.obj
 0001:0000ce90       ??_E?$basic_istream@DU?$char_traits@D@std@@@std@@UEAAPEAXI@Z 000000014000de90 f i * CIL library *:* CIL module *
 0001:0000cf00       ??_E?$basic_filebuf@DU?$char_traits@D@std@@@std@@UEAAPEAXI@Z 000000014000df00 f i * CIL library *:* CIL module *
 0001:0000cf00       ??_G?$basic_filebuf@DU?$char_traits@D@std@@@std@@UEAAPEAXI@Z 000000014000df00 f i RapidJson.obj
 0001:0000cf40       ??_G?$basic_streambuf@DU?$char_traits@D@std@@@std@@UEAAPEAXI@Z 000000014000df40 f i RapidJson.obj
 0001:0000cf40       ??_E?$basic_streambuf@DU?$char_traits@D@std@@@std@@UEAAPEAXI@Z 000000014000df40 f i * CIL library *:* CIL module *
 0001:0000cfc0       ??_G?$basic_ofstream@DU?$char_traits@D@std@@@std@@UEAAPEAXI@Z 000000014000dfc0 f i RapidJson.obj
 0001:0000cfc0       ??_E?$basic_ofstream@DU?$char_traits@D@std@@@std@@UEAAPEAXI@Z 000000014000dfc0 f i * CIL library *:* CIL module *
 0001:0000d000       ??_G?$basic_ostream@DU?$char_traits@D@std@@@std@@UEAAPEAXI@Z 000000014000e000 f i RapidJson.obj
 0001:0000d000       ??_E?$basic_ostream@DU?$char_traits@D@std@@@std@@UEAAPEAXI@Z 000000014000e000 f i * CIL library *:* CIL module *
 0001:0000d070       ??_E?$basic_ios@DU?$char_traits@D@std@@@std@@UEAAPEAXI@Z 000000014000e070 f i * CIL library *:* CIL module *
 0001:0000d070       ??_G?$basic_ios@DU?$char_traits@D@std@@@std@@UEAAPEAXI@Z 000000014000e070 f i RapidJson.obj
 0001:0000d0b0       ?do_length@?$codecvt@DDU_Mbstatet@@@std@@MEBAHAEAU_Mbstatet@@PEBD1_K@Z 000000014000e0b0 f i RapidJson.obj
 0001:0000d0d0       ?do_unshift@?$codecvt@DDU_Mbstatet@@@std@@MEBAHAEAU_Mbstatet@@PEAD1AEAPEAD@Z 000000014000e0d0 f i RapidJson.obj
 0001:0000d0e0       ?do_in@?$codecvt@DDU_Mbstatet@@@std@@MEBAHAEAU_Mbstatet@@PEBD1AEAPEBDPEAD3AEAPEAD@Z 000000014000e0e0 f i RapidJson.obj
 0001:0000d0e0       ?do_out@?$codecvt@DDU_Mbstatet@@@std@@MEBAHAEAU_Mbstatet@@PEBD1AEAPEBDPEAD3AEAPEAD@Z 000000014000e0e0 f i RapidJson.obj
 0001:0000d100       ?PrettyPrefix@?$PrettyWriter@V?$GenericStringBuffer@U?$UTF8@D@rapidjson@@VCrtAllocator@2@@rapidjson@@U?$UTF8@D@2@U32@VCrtAllocator@2@$0A@@rapidjson@@IEAAXW4Type@2@@Z 000000014000e100 f i RapidJson.obj
 0001:0000d320       ?_Tidy@?$basic_stringbuf@DU?$char_traits@D@std@@V?$allocator@D@2@@std@@IEAAXXZ 000000014000e320 f i RapidJson.obj
 0001:0000d3d0       ??0?$basic_istream@DU?$char_traits@D@std@@@std@@QEAA@PEAV?$basic_streambuf@DU?$char_traits@D@std@@@1@_N@Z 000000014000e3d0 f i RapidJson.obj
 0001:0000d450       ?_Initcvt@?$basic_filebuf@DU?$char_traits@D@std@@@std@@IEAAXAEBV?$codecvt@DDU_Mbstatet@@@2@@Z 000000014000e450 f i RapidJson.obj
 0001:0000d4d0       ?_Endwrite@?$basic_filebuf@DU?$char_traits@D@std@@@std@@IEAA_NXZ 000000014000e4d0 f i RapidJson.obj
 0001:0000d5c0       ?_Init@?$basic_filebuf@DU?$char_traits@D@std@@@std@@IEAAXPEAU_iobuf@@W4_Initfl@12@@Z 000000014000e5c0 f i RapidJson.obj
 0001:0000d690       ?close@?$basic_filebuf@DU?$char_traits@D@std@@@std@@QEAAPEAV12@XZ 000000014000e690 f i RapidJson.obj
 0001:0000d750       ?open@?$basic_filebuf@DU?$char_traits@D@std@@@std@@QEAAPEAV12@PEBDHH@Z 000000014000e750 f i RapidJson.obj
 0001:0000d800       ??0?$basic_filebuf@DU?$char_traits@D@std@@@std@@QEAA@XZ 000000014000e800 f i RapidJson.obj
 0001:0000d890       ?_Gnavail@?$basic_streambuf@DU?$char_traits@D@std@@@std@@IEBA_JXZ 000000014000e890 f i RapidJson.obj
 0001:0000d8b0       ??0?$basic_ostream@DU?$char_traits@D@std@@@std@@QEAA@PEAV?$basic_streambuf@DU?$char_traits@D@std@@@1@_N@Z 000000014000e8b0 f i RapidJson.obj
 0001:0000d930       ??_G?$num_put@DV?$ostreambuf_iterator@DU?$char_traits@D@std@@@std@@@std@@MEAAPEAXI@Z 000000014000e930 f i cinder:Texture.obj
 0001:0000d930       ??_E?$codecvt@DDU_Mbstatet@@@std@@MEAAPEAXI@Z 000000014000e930 f i * CIL library *:* CIL module *
 0001:0000d930       ??_G?$codecvt@DDU_Mbstatet@@@std@@MEAAPEAXI@Z 000000014000e930 f i RapidJson.obj
 0001:0000d930       ??_E?$num_put@DV?$ostreambuf_iterator@DU?$char_traits@D@std@@@std@@@std@@MEAAPEAXI@Z 000000014000e930 f i cinder:Texture.obj
 0001:0000d960       ??0?$basic_streambuf@DU?$char_traits@D@std@@@std@@IEAA@XZ 000000014000e960 f i RapidJson.obj
 0001:0000d9f0       ?init@?$basic_ios@DU?$char_traits@D@std@@@std@@IEAAXPEAV?$basic_streambuf@DU?$char_traits@D@std@@@2@_N@Z 000000014000e9f0 f i RapidJson.obj
 0001:0000dac0       ?WriteString@?$Writer@V?$GenericStringBuffer@U?$UTF8@D@rapidjson@@VCrtAllocator@2@@rapidjson@@U?$UTF8@D@2@U32@VCrtAllocator@2@$0A@@rapidjson@@IEAA_NPEBDI@Z 000000014000eac0 f i RapidJson.obj
 0001:0000dc10       ??$_Convert_wide_to_narrow_replace_chars@U?$char_traits@D@std@@V?$allocator@D@2@@filesystem@std@@YA?AV?$basic_string@DU?$char_traits@D@std@@V?$allocator@D@2@@1@W4__std_code_page@@V?$basic_string_view@_WU?$char_traits@_W@std@@@1@AEBV?$allocator@D@1@@Z 000000014000ec10 f i RapidJson.obj
 0001:0000dcf0       ??$?HDU?$char_traits@D@std@@V?$allocator@D@1@@std@@YA?AV?$basic_string@DU?$char_traits@D@std@@V?$allocator@D@2@@0@AEBV10@0@Z 000000014000ecf0 f i RapidJson.obj
 0001:0000de40       ??$?HDU?$char_traits@D@std@@V?$allocator@D@1@@std@@YA?AV?$basic_string@DU?$char_traits@D@std@@V?$allocator@D@2@@0@QEBD$$QEAV10@@Z 000000014000ee40 f i RapidJson.obj
 0001:0000df70       ??$use_facet@V?$codecvt@DDU_Mbstatet@@@std@@@std@@YAAEBV?$codecvt@DDU_Mbstatet@@@0@AEBVlocale@0@@Z 000000014000ef70 f i RapidJson.obj
 0001:0000e080       ??$_Reallocate_grow_by@V<lambda_9013ee9e23efe4882b67eff5b0ecf103>@@$$V@?$basic_string@DU?$char_traits@D@std@@V?$allocator@D@2@@std@@AEAAAEAV01@_KV<lambda_9013ee9e23efe4882b67eff5b0ecf103>@@@Z 000000014000f080 f i RapidJson.obj
 0001:0000e1d0       ??$_Reallocate_grow_by@V<lambda_319d5e083f45f90dcdce5dce53cbb275>@@D@?$basic_string@DU?$char_traits@D@std@@V?$allocator@D@2@@std@@AEAAAEAV01@_KV<lambda_319d5e083f45f90dcdce5dce53cbb275>@@D@Z 000000014000f1d0 f i RapidJson.obj
 0001:0000e340       ?_Getcat@?$codecvt@DDU_Mbstatet@@@std@@SA_KPEAPEBVfacet@locale@2@PEBV42@@Z 000000014000f340 f i RapidJson.obj
 0001:0000e4c0       ??0?$basic_string@DU?$char_traits@D@std@@V?$allocator@D@2@@std@@QEAA@U_String_constructor_concat_tag@1@AEBV01@QEBD_K23@Z 000000014000f4c0 f i RapidJson.obj
 0001:0000e5e0       ??$_Reallocate_grow_by@V<lambda_f3a66ab6a0570788f31503db83886f49>@@_KPEBD_K@?$basic_string@DU?$char_traits@D@std@@V?$allocator@D@2@@std@@AEAAAEAV01@_KV<lambda_f3a66ab6a0570788f31503db83886f49>@@_KPEBD2@Z 000000014000f5e0 f i RapidJson.obj
 0001:0000e790       ??$Expand@D@?$Stack@VCrtAllocator@rapidjson@@@internal@rapidjson@@AEAAX_K@Z 000000014000f790 f i RapidJson.obj
 0001:0000e830       ??$Expand@ULevel@?$Writer@V?$GenericStringBuffer@U?$UTF8@D@rapidjson@@VCrtAllocator@2@@rapidjson@@U?$UTF8@D@2@U32@VCrtAllocator@2@$0A@@rapidjson@@@?$Stack@VCrtAllocator@rapidjson@@@internal@rapidjson@@AEAAX_K@Z 000000014000f830 f i RapidJson.obj
 0001:0000e830       ??$Expand@V?$GenericValue@U?$UTF8@D@rapidjson@@V?$MemoryPoolAllocator@VCrtAllocator@rapidjson@@@2@@rapidjson@@@?$Stack@VCrtAllocator@rapidjson@@@internal@rapidjson@@AEAAX_K@Z 000000014000f830 f i RapidJson.obj
 0001:0000e8d0       ??$ParseStream@$0A@U?$UTF8@D@rapidjson@@U?$GenericStringStream@U?$UTF8@D@rapidjson@@@2@@?$GenericDocument@U?$UTF8@D@rapidjson@@V?$MemoryPoolAllocator@VCrtAllocator@rapidjson@@@2@VCrtAllocator@2@@rapidjson@@QEAAAEAV01@AEAU?$GenericStringStream@U?$UTF8@D@rapidjson@@@1@@Z 000000014000f8d0 f i RapidJson.obj
 0001:0000ea50       ??1ClearStackOnExit@?$GenericDocument@U?$UTF8@D@rapidjson@@V?$MemoryPoolAllocator@VCrtAllocator@rapidjson@@@2@VCrtAllocator@2@@rapidjson@@QEAA@XZ 000000014000fa50 f i RapidJson.obj
 0001:0000ea80       ??1ClearStackOnExit@?$GenericReader@U?$UTF8@D@rapidjson@@U12@VCrtAllocator@2@@rapidjson@@QEAA@XZ 000000014000fa80 f i RapidJson.obj
 0001:0000ea90       ??$ParseValue@$0A@U?$GenericStringStream@U?$UTF8@D@rapidjson@@@rapidjson@@V?$GenericDocument@U?$UTF8@D@rapidjson@@V?$MemoryPoolAllocator@VCrtAllocator@rapidjson@@@2@VCrtAllocator@2@@2@@?$GenericReader@U?$UTF8@D@rapidjson@@U12@VCrtAllocator@2@@rapidjson@@AEAAXAEAU?$GenericStringStream@U?$UTF8@D@rapidjson@@@1@AEAV?$GenericDocument@U?$UTF8@D@rapidjson@@V?$MemoryPoolAllocator@VCrtAllocator@rapidjson@@@2@VCrtAllocator@2@@1@@Z 000000014000fa90 f i RapidJson.obj
 0001:0000ecd0       ??$ParseString@$0A@U?$GenericStringStream@U?$UTF8@D@rapidjson@@@rapidjson@@V?$GenericDocument@U?$UTF8@D@rapidjson@@V?$MemoryPoolAllocator@VCrtAllocator@rapidjson@@@2@VCrtAllocator@2@@2@@?$GenericReader@U?$UTF8@D@rapidjson@@U12@VCrtAllocator@2@@rapidjson@@AEAAXAEAU?$GenericStringStream@U?$UTF8@D@rapidjson@@@1@AEAV?$GenericDocument@U?$UTF8@D@rapidjson@@V?$MemoryPoolAllocator@VCrtAllocator@rapidjson@@@2@VCrtAllocator@2@@1@_N@Z 000000014000fcd0 f i RapidJson.obj
 0001:0000f000       ??$ParseObject@$0A@U?$GenericStringStream@U?$UTF8@D@rapidjson@@@rapidjson@@V?$GenericDocument@U?$UTF8@D@rapidjson@@V?$MemoryPoolAllocator@VCrtAllocator@rapidjson@@@2@VCrtAllocator@2@@2@@?$GenericReader@U?$UTF8@D@rapidjson@@U12@VCrtAllocator@2@@rapidjson@@AEAAXAEAU?$GenericStringStream@U?$UTF8@D@rapidjson@@@1@AEAV?$GenericDocument@U?$UTF8@D@rapidjson@@V?$MemoryPoolAllocator@VCrtAllocator@rapidjson@@@2@VCrtAllocator@2@@1@@Z 0000000140010000 f i RapidJson.obj
 0001:0000f2e0       ??$ParseArray@$0A@U?$GenericStringStream@U?$UTF8@D@rapidjson@@@rapidjson@@V?$GenericDocument@U?$UTF8@D@rapidjson@@V?$MemoryPoolAllocator@VCrtAllocator@rapidjson@@@2@VCrtAllocator@2@@2@@?$GenericReader@U?$UTF8@D@rapidjson@@U12@VCrtAllocator@2@@rapidjson@@AEAAXAEAU?$GenericStringStream@U?$UTF8@D@rapidjson@@@1@AEAV?$GenericDocument@U?$UTF8@D@rapidjson@@V?$MemoryPoolAllocator@VCrtAllocator@rapidjson@@@2@VCrtAllocator@2@@1@@Z 00000001400102e0 f i RapidJson.obj
 0001:0000f510       ??$ParseNumber@$0A@U?$GenericStringStream@U?$UTF8@D@rapidjson@@@rapidjson@@V?$GenericDocument@U?$UTF8@D@rapidjson@@V?$MemoryPoolAllocator@VCrtAllocator@rapidjson@@@2@VCrtAllocator@2@@2@@?$GenericReader@U?$UTF8@D@rapidjson@@U12@VCrtAllocator@2@@rapidjson@@AEAAXAEAU?$GenericStringStream@U?$UTF8@D@rapidjson@@@1@AEAV?$GenericDocument@U?$UTF8@D@rapidjson@@V?$MemoryPoolAllocator@VCrtAllocator@rapidjson@@@2@VCrtAllocator@2@@1@@Z 0000000140010510 f i RapidJson.obj
 0001:0000fcd0       ??1?$StreamLocalCopy@U?$GenericStringStream@U?$UTF8@D@rapidjson@@@rapidjson@@$00@internal@rapidjson@@QEAA@XZ 0000000140010cd0 f i RapidJson.obj
 0001:0000fce0       ??0?$GenericValue@U?$UTF8@D@rapidjson@@V?$MemoryPoolAllocator@VCrtAllocator@rapidjson@@@2@@rapidjson@@QEAA@PEBDIAEAV?$MemoryPoolAllocator@VCrtAllocator@rapidjson@@@1@@Z 0000000140010ce0 f i RapidJson.obj
 0001:0000fd90       ?Malloc@?$MemoryPoolAllocator@VCrtAllocator@rapidjson@@@rapidjson@@QEAAPEAX_K@Z 0000000140010d90 f i RapidJson.obj
 0001:0000fe50       ??$Encode@V?$StackStream@D@?$GenericReader@U?$UTF8@D@rapidjson@@U12@VCrtAllocator@2@@rapidjson@@@?$UTF8@D@rapidjson@@SAXAEAV?$StackStream@D@?$GenericReader@U?$UTF8@D@rapidjson@@U12@VCrtAllocator@2@@1@I@Z 0000000140010e50 f i RapidJson.obj
 0001:0000ffe4       ??_E?$basic_ostream@DU?$char_traits@D@std@@@std@@$4PPPPPPPM@A@EAAPEAXI@Z 0000000140010fe4 f i RapidJson.obj
 0001:0000fff0       ??_E?$basic_stringstream@DU?$char_traits@D@std@@V?$allocator@D@2@@std@@$4PPPPPPPM@A@EAAPEAXI@Z 0000000140010ff0 f i RapidJson.obj
 0001:0000fffc       ??_E?$basic_ifstream@DU?$char_traits@D@std@@@std@@$4PPPPPPPM@A@EAAPEAXI@Z 0000000140010ffc f i RapidJson.obj
 0001:00010008       ??_E?$basic_istream@DU?$char_traits@D@std@@@std@@$4PPPPPPPM@A@EAAPEAXI@Z 0000000140011008 f i RapidJson.obj
 0001:00010014       ??_E?$basic_ofstream@DU?$char_traits@D@std@@@std@@$4PPPPPPPM@A@EAAPEAXI@Z 0000000140011014 f i RapidJson.obj
 0001:00010020       ??_E?$basic_iostream@DU?$char_traits@D@std@@@std@@$4PPPPPPPM@A@EAAPEAXI@Z 0000000140011020 f i RapidJson.obj
 0001:00010030       ??_EShape@@UEAAPEAXI@Z     0000000140011030 f i * CIL library *:* CIL module *
 0001:00010030       ??_GShape@@UEAAPEAXI@Z     0000000140011030 f i Rectangle.obj
 0001:00010060       ?_Throw_tree_length_error@std@@YAXXZ 0000000140011060 f i ShapePark.obj
 0001:00010080       ??1ShapePark@@QEAA@XZ      0000000140011080 f   ShapePark.obj
 0001:000101b0       ?RemoveShape@ShapePark@@QEAAXXZ 00000001400111b0 f   ShapePark.obj
 0001:00010380       ?erase@?$_Tree@V?$_Tmap_traits@IPEAVShape@@U?$less@I@std@@V?$allocator@U?$pair@$$CBIPEAVShape@@@std@@@3@$0A@@std@@@std@@QEAA_KAEBI@Z 0000000140011380 f i ShapePark.obj
 0001:000105c0       ?_Extract@?$_Tree_val@U?$_Tree_simple_types@U?$pair@$$CBIPEAVShape@@@std@@@std@@@std@@QEAAPEAU?$_Tree_node@U?$pair@$$CBIPEAVShape@@@std@@PEAX@2@V?$_Tree_unchecked_const_iterator@V?$_Tree_val@U?$_Tree_simple_types@U?$pair@$$CBIPEAVShape@@@std@@@std@@@std@@U_Iterator_base0@2@@2@@Z 00000001400115c0 f i ShapePark.obj
 0001:00010a60       ?_Insert_node@?$_Tree_val@U?$_Tree_simple_types@U?$pair@$$CBHP6A?AV?$shared_ptr@VImageSource@cinder@@@std@@V?$shared_ptr@VDataSource@cinder@@@2@VOptions@ImageSource@cinder@@@Z@std@@@std@@@std@@QEAAPEAU?$_Tree_node@U?$pair@$$CBHP6A?AV?$shared_ptr@VImageSource@cinder@@@std@@V?$shared_ptr@VDataSource@cinder@@@2@VOptions@ImageSource@cinder@@@Z@std@@PEAX@2@U?$_Tree_id@PEAU?$_Tree_node@U?$pair@$$CBHP6A?AV?$shared_ptr@VImageSource@cinder@@@std@@V?$shared_ptr@VDataSource@cinder@@@2@VOptions@ImageSource@cinder@@@Z@std@@PEAX@std@@@2@QEAU32@@Z 0000000140011a60 f i cinder:ImageIo.obj
 0001:00010a60       ?_Insert_node@?$_Tree_val@U?$_Tree_simple_types@U?$pair@$$CBV?$basic_string@DU?$char_traits@D@std@@V?$allocator@D@2@@std@@V?$multimap@HP6A?AV?$shared_ptr@VImageSource@cinder@@@std@@V?$shared_ptr@VDataSource@cinder@@@2@VOptions@ImageSource@cinder@@@ZU?$less@H@2@V?$allocator@U?$pair@$$CBHP6A?AV?$shared_ptr@VImageSource@cinder@@@std@@V?$shared_ptr@VDataSource@cinder@@@2@VOptions@ImageSource@cinder@@@Z@std@@@2@@2@@std@@@std@@@std@@QEAAPEAU?$_Tree_node@U?$pair@$$CBV?$basic_string@DU?$char_traits@D@std@@V?$allocator@D@2@@std@@V?$multimap@HP6A?AV?$shared_ptr@VImageSource@cinder@@@std@@V?$shared_ptr@VDataSource@cinder@@@2@VOptions@ImageSource@cinder@@@ZU?$less@H@2@V?$allocator@U?$pair@$$CBHP6A?AV?$shared_ptr@VImageSource@cinder@@@std@@V?$shared_ptr@VDataSource@cinder@@@2@VOptions@ImageSource@cinder@@@Z@std@@@2@@2@@std@@PEAX@2@U?$_Tree_id@PEAU?$_Tree_node@U?$pair@$$CBV?$basic_string@DU?$char_traits@D@std@@V?$allocator@D@2@@std@@V?$multimap@HP6A?AV?$shared_ptr@VImageSource@cinder@@@std@@V?$shared_ptr@VDataSource@cinder@@@2@VOptions@ImageSource@cinder@@@ZU?$less@H@2@V?$allocator@U?$pair@$$CBHP6A?AV?$shared_ptr@VImageSource@cinder@@@std@@V?$shared_ptr@VDataSource@cinder@@@2@VOptions@ImageSource@cinder@@@Z@std@@@2@@2@@std@@PEAX@std@@@2@QEAU32@@Z 0000000140011a60 f i cinder:ImageIo.obj
 0001:00010a60       ?_Insert_node@?$_Tree_val@U?$_Tree_simple_types@U?$pair@$$CBHPEAUSignalLink@?$SignalProto@$$A6AXAEAVMouseEvent@app@cinder@@@ZU?$CollectorEvent@VMouseEvent@app@cinder@@@23@@detail@signals@cinder@@@std@@@std@@@std@@QEAAPEAU?$_Tree_node@U?$pair@$$CBHPEAUSignalLink@?$SignalProto@$$A6AXAEAVMouseEvent@app@cinder@@@ZU?$CollectorEvent@VMouseEvent@app@cinder@@@23@@detail@signals@cinder@@@std@@PEAX@2@U?$_Tree_id@PEAU?$_Tree_node@U?$pair@$$CBHPEAUSignalLink@?$SignalProto@$$A6AXAEAVMouseEvent@app@cinder@@@ZU?$CollectorEvent@VMouseEvent@app@cinder@@@23@@detail@signals@cinder@@@std@@PEAX@std@@@2@QEAU32@@Z 0000000140011a60 f i cinder:CinderImGui.obj
 0001:00010a60       ?_Insert_node@?$_Tree_val@U?$_Tree_simple_types@U?$pair@$$CBV?$basic_string@DU?$char_traits@D@std@@V?$allocator@D@2@@std@@V?$multimap@HU?$pair@P6A?AV?$shared_ptr@VImageTarget@cinder@@@std@@V?$shared_ptr@VDataTarget@cinder@@@2@V?$shared_ptr@VImageSource@cinder@@@2@VOptions@ImageTarget@cinder@@AEBV?$basic_string@DU?$char_traits@D@std@@V?$allocator@D@2@@2@@ZV82@@std@@U?$less@H@2@V?$allocator@U?$pair@$$CBHU?$pair@P6A?AV?$shared_ptr@VImageTarget@cinder@@@std@@V?$shared_ptr@VDataTarget@cinder@@@2@V?$shared_ptr@VImageSource@cinder@@@2@VOptions@ImageTarget@cinder@@AEBV?$basic_string@DU?$char_traits@D@std@@V?$allocator@D@2@@2@@ZV82@@std@@@std@@@2@@2@@std@@@std@@@std@@QEAAPEAU?$_Tree_node@U?$pair@$$CBV?$basic_string@DU?$char_traits@D@std@@V?$allocator@D@2@@std@@V?$multimap@HU?$pair@P6A?AV?$shared_ptr@VImageTarget@cinder@@@std@@V?$shared_ptr@VDataTarget@cinder@@@2@V?$shared_ptr@VImageSource@cinder@@@2@VOptions@ImageTarget@cinder@@AEBV?$basic_string@DU?$char_traits@D@std@@V?$allocator@D@2@@2@@ZV82@@std@@U?$less@H@2@V?$allocator@U?$pair@$$CBHU?$pair@P6A?AV?$shared_ptr@VImageTarget@cinder@@@std@@V?$shared_ptr@VDataTarget@cinder@@@2@V?$shared_ptr@VImageSource@cinder@@@2@VOptions@ImageTarget@cinder@@AEBV?$basic_string@DU?$char_traits@D@std@@V?$allocator@D@2@@2@@ZV82@@std@@@std@@@2@@2@@std@@PEAX@2@U?$_Tree_id@PEAU?$_Tree_node@U?$pair@$$CBV?$basic_string@DU?$char_traits@D@std@@V?$allocator@D@2@@std@@V?$multimap@HU?$pair@P6A?AV?$shared_ptr@VImageTarget@cinder@@@std@@V?$shared_ptr@VDataTarget@cinder@@@2@V?$shared_ptr@VImageSource@cinder@@@2@VOptions@ImageTarget@cinder@@AEBV?$basic_string@DU?$char_traits@D@std@@V?$allocator@D@2@@2@@ZV82@@std@@U?$less@H@2@V?$allocator@U?$pair@$$CBHU?$pair@P6A?AV?$shared_ptr@VImageTarget@cinder@@@std@@V?$shared_ptr@VDataTarget@cinder@@@2@V?$shared_ptr@VImageSource@cinder@@@2@VOptions@ImageTarget@cinder@@AEBV?$basic_string@DU?$char_traits@D@std@@V?$allocator@D@2@@2@@ZV82@@std@@@std@@@2@@2@@std@@PEAX@std@@@2@QEAU32@@Z 0000000140011a60 f i cinder:ImageIo.obj
 0001:00010a60       ?_Insert_node@?$_Tree_val@U?$_Tree_simple_types@H@std@@@std@@QEAAPEAU?$_Tree_node@HPEAX@2@U?$_Tree_id@PEAU?$_Tree_node@HPEAX@std@@@2@QEAU32@@Z 0000000140011a60 f i cinder:GlslProg.obj
 0001:00010a60       ?_Insert_node@?$_Tree_val@U?$_Tree_simple_types@U?$pair@$$CBHPEAUSignalLink@?$SignalProto@$$A6AXXZU?$CollectorDefault@X@detail@signals@cinder@@@detail@signals@cinder@@@std@@@std@@@std@@QEAAPEAU?$_Tree_node@U?$pair@$$CBHPEAUSignalLink@?$SignalProto@$$A6AXXZU?$CollectorDefault@X@detail@signals@cinder@@@detail@signals@cinder@@@std@@PEAX@2@U?$_Tree_id@PEAU?$_Tree_node@U?$pair@$$CBHPEAUSignalLink@?$SignalProto@$$A6AXXZU?$CollectorDefault@X@detail@signals@cinder@@@detail@signals@cinder@@@std@@PEAX@std@@@2@QEAU32@@Z 0000000140011a60 f i cinder:CinderImGui.obj
 0001:00010a60       ?_Insert_node@?$_Tree_val@U?$_Tree_simple_types@U?$pair@$$CBHPEAUSignalLink@?$SignalProto@$$A6AXAEAVKeyEvent@app@cinder@@@ZU?$CollectorEvent@VKeyEvent@app@cinder@@@23@@detail@signals@cinder@@@std@@@std@@@std@@QEAAPEAU?$_Tree_node@U?$pair@$$CBHPEAUSignalLink@?$SignalProto@$$A6AXAEAVKeyEvent@app@cinder@@@ZU?$CollectorEvent@VKeyEvent@app@cinder@@@23@@detail@signals@cinder@@@std@@PEAX@2@U?$_Tree_id@PEAU?$_Tree_node@U?$pair@$$CBHPEAUSignalLink@?$SignalProto@$$A6AXAEAVKeyEvent@app@cinder@@@ZU?$CollectorEvent@VKeyEvent@app@cinder@@@23@@detail@signals@cinder@@@std@@PEAX@std@@@2@QEAU32@@Z 0000000140011a60 f i cinder:CinderImGui.obj
 0001:00010a60       ?_Insert_node@?$_Tree_val@U?$_Tree_simple_types@U?$pair@$$CBIPEAVShape@@@std@@@std@@@std@@QEAAPEAU?$_Tree_node@U?$pair@$$CBIPEAVShape@@@std@@PEAX@2@U?$_Tree_id@PEAU?$_Tree_node@U?$pair@$$CBIPEAVShape@@@std@@PEAX@std@@@2@QEAU32@@Z 0000000140011a60 f i ShapePark.obj
 0001:00010a60       ?_Insert_node@?$_Tree_val@U?$_Tree_simple_types@U?$pair@$$CBIV?$vector@HV?$allocator@H@std@@@std@@@std@@@std@@@std@@QEAAPEAU?$_Tree_node@U?$pair@$$CBIV?$vector@HV?$allocator@H@std@@@std@@@std@@PEAX@2@U?$_Tree_id@PEAU?$_Tree_node@U?$pair@$$CBIV?$vector@HV?$allocator@H@std@@@std@@@std@@PEAX@std@@@2@QEAU32@@Z 0000000140011a60 f i cinder:Context.cpp.obj
 0001:00010a60       ?_Insert_node@?$_Tree_val@U?$_Tree_simple_types@U?$pair@$$CBEV?$map@IV?$vector@HV?$allocator@H@std@@@std@@U?$less@I@2@V?$allocator@U?$pair@$$CBIV?$vector@HV?$allocator@H@std@@@std@@@std@@@2@@std@@@std@@@std@@@std@@QEAAPEAU?$_Tree_node@U?$pair@$$CBEV?$map@IV?$vector@HV?$allocator@H@std@@@std@@U?$less@I@2@V?$allocator@U?$pair@$$CBIV?$vector@HV?$allocator@H@std@@@std@@@std@@@2@@std@@@std@@PEAX@2@U?$_Tree_id@PEAU?$_Tree_node@U?$pair@$$CBEV?$map@IV?$vector@HV?$allocator@H@std@@@std@@U?$less@I@2@V?$allocator@U?$pair@$$CBIV?$vector@HV?$allocator@H@std@@@std@@@std@@@2@@std@@@std@@PEAX@std@@@2@QEAU32@@Z 0000000140011a60 f i cinder:Context.cpp.obj
 0001:00010a60       ?_Insert_node@?$_Tree_val@U?$_Tree_simple_types@PEBVGlslProg@gl@cinder@@@std@@@std@@QEAAPEAU?$_Tree_node@PEBVGlslProg@gl@cinder@@PEAX@2@U?$_Tree_id@PEAU?$_Tree_node@PEBVGlslProg@gl@cinder@@PEAX@std@@@2@QEAU32@@Z 0000000140011a60 f i cinder:Context.cpp.obj
 0001:00010a60       ?_Insert_node@?$_Tree_val@U?$_Tree_simple_types@U?$pair@$$CBHU?$pair@P6A?AV?$shared_ptr@VImageTarget@cinder@@@std@@V?$shared_ptr@VDataTarget@cinder@@@2@V?$shared_ptr@VImageSource@cinder@@@2@VOptions@ImageTarget@cinder@@AEBV?$basic_string@DU?$char_traits@D@std@@V?$allocator@D@2@@2@@ZV82@@std@@@std@@@std@@@std@@QEAAPEAU?$_Tree_node@U?$pair@$$CBHU?$pair@P6A?AV?$shared_ptr@VImageTarget@cinder@@@std@@V?$shared_ptr@VDataTarget@cinder@@@2@V?$shared_ptr@VImageSource@cinder@@@2@VOptions@ImageTarget@cinder@@AEBV?$basic_string@DU?$char_traits@D@std@@V?$allocator@D@2@@2@@ZV82@@std@@@std@@PEAX@2@U?$_Tree_id@PEAU?$_Tree_node@U?$pair@$$CBHU?$pair@P6A?AV?$shared_ptr@VImageTarget@cinder@@@std@@V?$shared_ptr@VDataTarget@cinder@@@2@V?$shared_ptr@VImageSource@cinder@@@2@VOptions@ImageTarget@cinder@@AEBV?$basic_string@DU?$char_traits@D@std@@V?$allocator@D@2@@2@@ZV82@@std@@@std@@PEAX@std@@@2@QEAU32@@Z 0000000140011a60 f i cinder:ImageIo.obj
 0001:00010a60       ?_Insert_node@?$_Tree_val@U?$_Tree_simple_types@W4Attrib@geom@cinder@@@std@@@std@@QEAAPEAU?$_Tree_node@W4Attrib@geom@cinder@@PEAX@2@U?$_Tree_id@PEAU?$_Tree_node@W4Attrib@geom@cinder@@PEAX@std@@@2@QEAU32@@Z 0000000140011a60 f i cinder:draw.obj
 0001:00010a60       ?_Insert_node@?$_Tree_val@U?$_Tree_simple_types@U?$pair@$$CBVShaderDef@gl@cinder@@V?$shared_ptr@VGlslProg@gl@cinder@@@std@@@std@@@std@@@std@@QEAAPEAU?$_Tree_node@U?$pair@$$CBVShaderDef@gl@cinder@@V?$shared_ptr@VGlslProg@gl@cinder@@@std@@@std@@PEAX@2@U?$_Tree_id@PEAU?$_Tree_node@U?$pair@$$CBVShaderDef@gl@cinder@@V?$shared_ptr@VGlslProg@gl@cinder@@@std@@@std@@PEAX@std@@@2@QEAU32@@Z 0000000140011a60 f i cinder:Context.cpp.obj
 0001:00010a60       ?_Insert_node@?$_Tree_val@U?$_Tree_simple_types@U?$pair@$$CBV?$basic_string@DU?$char_traits@D@std@@V?$allocator@D@2@@std@@PEBU_GUID@@@std@@@std@@@std@@QEAAPEAU?$_Tree_node@U?$pair@$$CBV?$basic_string@DU?$char_traits@D@std@@V?$allocator@D@2@@std@@PEBU_GUID@@@std@@PEAX@2@U?$_Tree_id@PEAU?$_Tree_node@U?$pair@$$CBV?$basic_string@DU?$char_traits@D@std@@V?$allocator@D@2@@std@@PEBU_GUID@@@std@@PEAX@std@@@2@QEAU32@@Z 0000000140011a60 f i cinder:ImageTargetFileWic.obj
 0001:00010a60       ?_Insert_node@?$_Tree_val@U?$_Tree_simple_types@U?$pair@$$CBV?$basic_string@DU?$char_traits@D@std@@V?$allocator@D@2@@std@@W4UniformSemantic@gl@cinder@@@std@@@std@@@std@@QEAAPEAU?$_Tree_node@U?$pair@$$CBV?$basic_string@DU?$char_traits@D@std@@V?$allocator@D@2@@std@@W4UniformSemantic@gl@cinder@@@std@@PEAX@2@U?$_Tree_id@PEAU?$_Tree_node@U?$pair@$$CBV?$basic_string@DU?$char_traits@D@std@@V?$allocator@D@2@@std@@W4UniformSemantic@gl@cinder@@@std@@PEAX@std@@@2@QEAU32@@Z 0000000140011a60 f i cinder:GlslProg.obj
 0001:00010a60       ?_Insert_node@?$_Tree_val@U?$_Tree_simple_types@PEBVBufferObj@gl@cinder@@@std@@@std@@QEAAPEAU?$_Tree_node@PEBVBufferObj@gl@cinder@@PEAX@2@U?$_Tree_id@PEAU?$_Tree_node@PEBVBufferObj@gl@cinder@@PEAX@std@@@2@QEAU32@@Z 0000000140011a60 f i cinder:Context.cpp.obj
 0001:00010a60       ?_Insert_node@?$_Tree_val@U?$_Tree_simple_types@PEBVTextureBase@gl@cinder@@@std@@@std@@QEAAPEAU?$_Tree_node@PEBVTextureBase@gl@cinder@@PEAX@2@U?$_Tree_id@PEAU?$_Tree_node@PEBVTextureBase@gl@cinder@@PEAX@std@@@2@QEAU32@@Z 0000000140011a60 f i cinder:Context.cpp.obj
 0001:00010a60       ?_Insert_node@?$_Tree_val@U?$_Tree_simple_types@U?$pair@$$CBIV?$vector@EV?$allocator@E@std@@@std@@@std@@@std@@@std@@QEAAPEAU?$_Tree_node@U?$pair@$$CBIV?$vector@EV?$allocator@E@std@@@std@@@std@@PEAX@2@U?$_Tree_id@PEAU?$_Tree_node@U?$pair@$$CBIV?$vector@EV?$allocator@E@std@@@std@@@std@@PEAX@std@@@2@QEAU32@@Z 0000000140011a60 f i cinder:Context.cpp.obj
 0001:00010a60       ?_Insert_node@?$_Tree_val@U?$_Tree_simple_types@V?$basic_string@DU?$char_traits@D@std@@V?$allocator@D@2@@std@@@std@@@std@@QEAAPEAU?$_Tree_node@V?$basic_string@DU?$char_traits@D@std@@V?$allocator@D@2@@std@@PEAX@2@U?$_Tree_id@PEAU?$_Tree_node@V?$basic_string@DU?$char_traits@D@std@@V?$allocator@D@2@@std@@PEAX@std@@@2@QEAU32@@Z 0000000140011a60 f i cinder:GlslProg.obj
 0001:00010a60       ?_Insert_node@?$_Tree_val@U?$_Tree_simple_types@U?$pair@$$CBV?$basic_string@DU?$char_traits@D@std@@V?$allocator@D@2@@std@@W4Attrib@geom@cinder@@@std@@@std@@@std@@QEAAPEAU?$_Tree_node@U?$pair@$$CBV?$basic_string@DU?$char_traits@D@std@@V?$allocator@D@2@@std@@W4Attrib@geom@cinder@@@std@@PEAX@2@U?$_Tree_id@PEAU?$_Tree_node@U?$pair@$$CBV?$basic_string@DU?$char_traits@D@std@@V?$allocator@D@2@@std@@W4Attrib@geom@cinder@@@std@@PEAX@std@@@2@QEAU32@@Z 0000000140011a60 f i cinder:GlslProg.obj
 0001:00010a60       ?_Insert_node@?$_Tree_val@U?$_Tree_simple_types@Vpath@filesystem@std@@@std@@@std@@QEAAPEAU?$_Tree_node@Vpath@filesystem@std@@PEAX@2@U?$_Tree_id@PEAU?$_Tree_node@Vpath@filesystem@std@@PEAX@std@@@2@QEAU32@@Z 0000000140011a60 f i cinder:ShaderPreprocessor.obj
 0001:00010a60       ?_Insert_node@?$_Tree_val@U?$_Tree_simple_types@U?$pair@QEAXV?$shared_ptr@VTimelineItem@cinder@@@std@@@std@@@std@@@std@@QEAAPEAU?$_Tree_node@U?$pair@QEAXV?$shared_ptr@VTimelineItem@cinder@@@std@@@std@@PEAX@2@U?$_Tree_id@PEAU?$_Tree_node@U?$pair@QEAXV?$shared_ptr@VTimelineItem@cinder@@@std@@@std@@PEAX@std@@@2@QEAU32@@Z 0000000140011a60 f i cinder:Timeline.obj
 0001:00010a60       ?_Insert_node@?$_Tree_val@U?$_Tree_simple_types@PEBVVao@gl@cinder@@@std@@@std@@QEAAPEAU?$_Tree_node@PEBVVao@gl@cinder@@PEAX@2@U?$_Tree_id@PEAU?$_Tree_node@PEBVVao@gl@cinder@@PEAX@std@@@2@QEAU32@@Z 0000000140011a60 f i cinder:Context.cpp.obj
 0001:00010a60       ?_Insert_node@?$_Tree_val@U?$_Tree_simple_types@U?$pair@$$CBV?$basic_string@DU?$char_traits@D@std@@V?$allocator@D@2@@std@@V12@@std@@@std@@@std@@QEAAPEAU?$_Tree_node@U?$pair@$$CBV?$basic_string@DU?$char_traits@D@std@@V?$allocator@D@2@@std@@V12@@std@@PEAX@2@U?$_Tree_id@PEAU?$_Tree_node@U?$pair@$$CBV?$basic_string@DU?$char_traits@D@std@@V?$allocator@D@2@@std@@V12@@std@@PEAX@std@@@2@QEAU32@@Z 0000000140011a60 f i cinder:PlatformMsw.obj
 0001:00010a60       ?_Insert_node@?$_Tree_val@U?$_Tree_simple_types@U?$pair@$$CBKU?$vec@$01M$0A@@glm@@@std@@@std@@@std@@QEAAPEAU?$_Tree_node@U?$pair@$$CBKU?$vec@$01M$0A@@glm@@@std@@PEAX@2@U?$_Tree_id@PEAU?$_Tree_node@U?$pair@$$CBKU?$vec@$01M$0A@@glm@@@std@@PEAX@std@@@2@QEAU32@@Z 0000000140011a60 f i cinder:AppImplMsw.obj
 0001:00010ce0       ??1?$_Alloc_construct_ptr@V?$allocator@U?$_Tree_node@U?$pair@$$CBHPEAUSignalLink@?$SignalProto@$$A6AXAEAVMouseEvent@app@cinder@@@ZU?$CollectorEvent@VMouseEvent@app@cinder@@@23@@detail@signals@cinder@@@std@@PEAX@std@@@std@@@std@@QEAA@XZ 0000000140011ce0 f i cinder:CinderImGui.obj
 0001:00010ce0       ??1?$_Alloc_construct_ptr@V?$allocator@U?$_Tree_node@U?$pair@$$CBHP6A?AV?$shared_ptr@VImageSource@cinder@@@std@@V?$shared_ptr@VDataSource@cinder@@@2@VOptions@ImageSource@cinder@@@Z@std@@PEAX@std@@@std@@@std@@QEAA@XZ 0000000140011ce0 f i cinder:ImageIo.obj
 0001:00010ce0       ??1?$_Alloc_construct_ptr@V?$allocator@U?$_Tree_node@U?$pair@$$CBHPEAUSignalLink@?$SignalProto@$$A6AXAEAVKeyEvent@app@cinder@@@ZU?$CollectorEvent@VKeyEvent@app@cinder@@@23@@detail@signals@cinder@@@std@@PEAX@std@@@std@@@std@@QEAA@XZ 0000000140011ce0 f i cinder:CinderImGui.obj
 0001:00010ce0       ??1?$_Tree_temp_node@V?$allocator@U?$_Tree_node@U?$pair@$$CBHP6A?AV?$shared_ptr@VImageSource@cinder@@@std@@V?$shared_ptr@VDataSource@cinder@@@2@VOptions@ImageSource@cinder@@@Z@std@@PEAX@std@@@std@@@std@@QEAA@XZ 0000000140011ce0 f i cinder:ImageIo.obj
 0001:00010ce0       ??1?$_Alloc_construct_ptr@V?$allocator@U?$_Tree_node@U?$pair@$$CBIPEAVShape@@@std@@PEAX@std@@@std@@@std@@QEAA@XZ 0000000140011ce0 f i ShapePark.obj
 0001:00010ce0       ??1?$_Alloc_construct_ptr@V?$allocator@U?$_Tree_node@U?$pair@$$CBHPEAUSignalLink@?$SignalProto@$$A6AXXZU?$CollectorDefault@X@detail@signals@cinder@@@detail@signals@cinder@@@std@@PEAX@std@@@std@@@std@@QEAA@XZ 0000000140011ce0 f i cinder:CinderImGui.obj
 0001:00010d00       ?clipBy@Area@cinder@@QEAAXAEBV12@@Z 0000000140011d00 f   cinder:Area.obj
 0001:00010d80       ?clippedSrcDst@cinder@@YA?AU?$pair@VArea@cinder@@U?$vec@$01H$0A@@glm@@@std@@AEBVArea@1@00AEBU?$vec@$01H$0A@@glm@@@Z 0000000140011d80 f   cinder:Area.obj
 0001:00010f90       ?getClipBy@Area@cinder@@QEBA?AV12@AEBV12@@Z 0000000140011f90 f   cinder:Area.obj
 0001:00010fc0       ?set@Area@cinder@@QEAAXHHHH@Z 0000000140011fc0 f   cinder:Area.obj
 0001:00010ff0       ??$_Uninitialized_copy@PEAVTouch@TouchEvent@app@cinder@@V?$allocator@VTouch@TouchEvent@app@cinder@@@std@@@std@@YAPEAVTouch@TouchEvent@app@cinder@@QEAV1234@0PEAV1234@AEAV?$allocator@VTouch@TouchEvent@app@cinder@@@0@@Z 0000000140011ff0 f i cinder:Window.cpp.obj
 0001:00011070       ??0ExcInvalidWindow@app@cinder@@QEAA@AEBV012@@Z 0000000140012070 f i cinder:Window.cpp.obj
 0001:000110e0       ??0ExcInvalidWindow@app@cinder@@QEAA@XZ 00000001400120e0 f i cinder:Window.cpp.obj
 0001:00011110       ??0Exception@cinder@@QEAA@AEBV01@@Z 0000000140012110 f i cinder:Window.cpp.obj
 0001:00011170       ??0KeyEvent@app@cinder@@QEAA@AEBV012@@Z 0000000140012170 f i cinder:Window.cpp.obj
 0001:00011200       ??0MouseEvent@app@cinder@@QEAA@AEBV012@@Z 0000000140012200 f i cinder:Window.cpp.obj
 0001:00011270       ??0TouchEvent@app@cinder@@QEAA@AEBV012@@Z 0000000140012270 f i cinder:Window.cpp.obj
 0001:00011410       ??1?$_Tidy_guard@V?$vector@Vpath@filesystem@std@@V?$allocator@Vpath@filesystem@std@@@3@@std@@@std@@QEAA@XZ 0000000140012410 f i cinder:Window.cpp.obj
 0001:00011420       ??1?$_Uninitialized_backout_al@V?$allocator@Vpath@filesystem@std@@@std@@@std@@QEAA@XZ 0000000140012420 f i cinder:Window.cpp.obj
 0001:00011460       ??1ResourceLoadExcMsw@app@cinder@@UEAA@XZ 0000000140012460 f i cinder:PlatformMsw.obj
 0001:00011460       ??1ShaderPreprocessorExc@gl@cinder@@UEAA@XZ 0000000140012460 f i cinder:ShaderPreprocessor.obj
 0001:00011460       ??1ImageIoExceptionUnknownExtension@cinder@@UEAA@XZ 0000000140012460 f i cinder:ImageIo.obj
 0001:00011460       ??1ExcContextMakeCurrent@gl@cinder@@UEAA@XZ 0000000140012460 f i cinder:Environment.obj
 0001:00011460       ??1ImageIoExceptionIllegalDataType@cinder@@UEAA@XZ 0000000140012460 f i cinder:ImageIo.obj
 0001:00011460       ??1ExcInvalidWindow@app@cinder@@UEAA@XZ 0000000140012460 f i cinder:Window.cpp.obj
 0001:00011460       ??1GlslProgCompileExc@gl@cinder@@UEAA@XZ 0000000140012460 f i cinder:GlslProg.obj
 0001:00011460       ??1ImageIoException@cinder@@UEAA@XZ 0000000140012460 f i cinder:ImageSourceFileWic.obj
 0001:00011460       ??1ImageIoExceptionFailedWriteTinyExr@cinder@@UEAA@XZ 0000000140012460 f i cinder:ImageFileTinyExr.obj
 0001:00011460       ??1ImageIoExceptionFailedLoad@cinder@@UEAA@XZ 0000000140012460 f i cinder:ImageSourceFileWic.obj
 0001:00011460       ??1ExcRendererAllocation@app@cinder@@UEAA@XZ 0000000140012460 f i cinder:RendererGl.obj
 0001:00011460       ??1StreamExc@cinder@@UEAA@XZ 0000000140012460 f i cinder:Stream.obj
 0001:00011460       ??1ResourceLoadExc@app@cinder@@UEAA@XZ 0000000140012460 f i cinder:PlatformMsw.obj
 0001:00011460       ??1GlslProgLinkExc@gl@cinder@@UEAA@XZ 0000000140012460 f i cinder:GlslProg.obj
 0001:00011460       ??1ImageIoExceptionIllegalColorModel@cinder@@UEAA@XZ 0000000140012460 f i cinder:Texture.obj
 0001:00011460       ??1ImageIoExceptionFailedLoadTinyExr@cinder@@UEAA@XZ 0000000140012460 f i cinder:ImageFileTinyExr.obj
 0001:00011460       ??1AssetLoadExc@app@cinder@@UEAA@XZ 0000000140012460 f i cinder:Platform.obj
 0001:00011460       ??1ImageIoExceptionFailedWrite@cinder@@UEAA@XZ 0000000140012460 f i cinder:ImageTargetFileWic.obj
 0001:00011460       ??1ImageSourceFileRadianceException@cinder@@UEAA@XZ 0000000140012460 f i cinder:ImageSourceFileRadiance.obj
 0001:00011460       ??1GlslProgExc@gl@cinder@@UEAA@XZ 0000000140012460 f i cinder:GlslProg.obj
 0001:00011460       ??1ImageIoExceptionIllegalChannelOrder@cinder@@UEAA@XZ 0000000140012460 f i cinder:ImageIo.obj
 0001:00011470       ??1Exception@cinder@@UEAA@XZ 0000000140012470 f i cinder:Window.cpp.obj
 0001:000114f0       ??_GImageIoExceptionIllegalDataType@cinder@@UEAAPEAXI@Z 00000001400124f0 f i cinder:ImageIo.obj
 0001:000114f0       ??_GException@gl@cinder@@UEAAPEAXI@Z 00000001400124f0 f i cinder:Environment.obj
 0001:000114f0       ??_GExcRendererAllocation@app@cinder@@UEAAPEAXI@Z 00000001400124f0 f i cinder:RendererGl.obj
 0001:000114f0       ??_EExcRenderer@app@cinder@@UEAAPEAXI@Z 00000001400124f0 f i cinder:RendererGl.obj
 0001:000114f0       ??_EResourceLoadExc@app@cinder@@UEAAPEAXI@Z 00000001400124f0 f i cinder:Platform.obj
 0001:000114f0       ??_GImageIoExceptionFailedLoadTinyExr@cinder@@UEAAPEAXI@Z 00000001400124f0 f i cinder:ImageFileTinyExr.obj
 0001:000114f0       ??_GResourceLoadExcMsw@app@cinder@@UEAAPEAXI@Z 00000001400124f0 f i cinder:PlatformMsw.obj
 0001:000114f0       ??_EImageIoExceptionFailedWriteTinyExr@cinder@@UEAAPEAXI@Z 00000001400124f0 f i cinder:ImageFileTinyExr.obj
 0001:000114f0       ??_GException@cinder@@UEAAPEAXI@Z 00000001400124f0 f i cinder:Window.cpp.obj
 0001:000114f0       ??_EImageIoExceptionIllegalDataType@cinder@@UEAAPEAXI@Z 00000001400124f0 f i cinder:ImageIo.obj
 0001:000114f0       ??_EImageIoExceptionUnknownExtension@cinder@@UEAAPEAXI@Z 00000001400124f0 f i cinder:ImageIo.obj
 0001:000114f0       ??_EImageIoExceptionIllegalColorModel@cinder@@UEAAPEAXI@Z 00000001400124f0 f i cinder:Texture.obj
 0001:000114f0       ??_EAssetLoadExc@app@cinder@@UEAAPEAXI@Z 00000001400124f0 f i cinder:Platform.obj
 0001:000114f0       ??_GExcContextMakeCurrent@gl@cinder@@UEAAPEAXI@Z 00000001400124f0 f i cinder:Environment.obj
 0001:000114f0       ??_EImageIoExceptionFailedLoad@cinder@@UEAAPEAXI@Z 00000001400124f0 f i cinder:ImageSourceFileWic.obj
 0001:000114f0       ??_EShaderPreprocessorExc@gl@cinder@@UEAAPEAXI@Z 00000001400124f0 f i cinder:ShaderPreprocessor.obj
 0001:000114f0       ??_EGlslProgExc@gl@cinder@@UEAAPEAXI@Z 00000001400124f0 f i cinder:GlslProg.obj
 0001:000114f0       ??_EExcInvalidWindow@app@cinder@@UEAAPEAXI@Z 00000001400124f0 f i cinder:Window.cpp.obj
 0001:000114f0       ??_GImageIoExceptionIllegalChannelOrder@cinder@@UEAAPEAXI@Z 00000001400124f0 f i cinder:ImageIo.obj
 0001:000114f0       ??_EImageIoExceptionIllegalChannelOrder@cinder@@UEAAPEAXI@Z 00000001400124f0 f i cinder:ImageIo.obj
 0001:000114f0       ??_EException@gl@cinder@@UEAAPEAXI@Z 00000001400124f0 f i cinder:Environment.obj
 0001:000114f0       ??_GGlslProgExc@gl@cinder@@UEAAPEAXI@Z 00000001400124f0 f i cinder:GlslProg.obj
 0001:000114f0       ??_EImageIoExceptionFailedWrite@cinder@@UEAAPEAXI@Z 00000001400124f0 f i cinder:ImageTargetFileWic.obj
 0001:000114f0       ??_GShaderPreprocessorExc@gl@cinder@@UEAAPEAXI@Z 00000001400124f0 f i cinder:ShaderPreprocessor.obj
 0001:000114f0       ??_GGlslProgLinkExc@gl@cinder@@UEAAPEAXI@Z 00000001400124f0 f i cinder:GlslProg.obj
 0001:000114f0       ??_EImageIoExceptionFailedLoadTinyExr@cinder@@UEAAPEAXI@Z 00000001400124f0 f i cinder:ImageFileTinyExr.obj
 0001:000114f0       ??_GAssetLoadExc@app@cinder@@UEAAPEAXI@Z 00000001400124f0 f i cinder:Platform.obj
 0001:000114f0       ??_GImageIoExceptionFailedWrite@cinder@@UEAAPEAXI@Z 00000001400124f0 f i cinder:ImageTargetFileWic.obj
 0001:000114f0       ??_GImageIoExceptionFailedLoad@cinder@@UEAAPEAXI@Z 00000001400124f0 f i cinder:ImageSourceFileWic.obj
 0001:000114f0       ??_GImageSourceFileRadianceException@cinder@@UEAAPEAXI@Z 00000001400124f0 f i cinder:ImageSourceFileRadiance.obj
 0001:000114f0       ??_GImageIoException@cinder@@UEAAPEAXI@Z 00000001400124f0 f i cinder:Texture.obj
 0001:000114f0       ??_EImageSourceFileRadianceException@cinder@@UEAAPEAXI@Z 00000001400124f0 f i cinder:ImageSourceFileRadiance.obj
 0001:000114f0       ??_EGlslProgLinkExc@gl@cinder@@UEAAPEAXI@Z 00000001400124f0 f i cinder:GlslProg.obj
 0001:000114f0       ??_GExcRenderer@app@cinder@@UEAAPEAXI@Z 00000001400124f0 f i cinder:RendererGl.obj
 0001:000114f0       ??_EExcContextMakeCurrent@gl@cinder@@UEAAPEAXI@Z 00000001400124f0 f i cinder:Environment.obj
 0001:000114f0       ??_GExcInvalidWindow@app@cinder@@UEAAPEAXI@Z 00000001400124f0 f i cinder:Window.cpp.obj
 0001:000114f0       ??_GResourceLoadExc@app@cinder@@UEAAPEAXI@Z 00000001400124f0 f i cinder:Platform.obj
 0001:000114f0       ??_GImageIoExceptionUnknownExtension@cinder@@UEAAPEAXI@Z 00000001400124f0 f i cinder:ImageIo.obj
 0001:000114f0       ??_EResourceLoadExcMsw@app@cinder@@UEAAPEAXI@Z 00000001400124f0 f i cinder:PlatformMsw.obj
 0001:000114f0       ??_GImageIoExceptionIllegalColorModel@cinder@@UEAAPEAXI@Z 00000001400124f0 f i cinder:Texture.obj
 0001:000114f0       ??_EImageIoException@cinder@@UEAAPEAXI@Z 00000001400124f0 f i cinder:Texture.obj
 0001:000114f0       ??_GImageIoExceptionFailedWriteTinyExr@cinder@@UEAAPEAXI@Z 00000001400124f0 f i cinder:ImageFileTinyExr.obj
 0001:000114f0       ??_EExcRendererAllocation@app@cinder@@UEAAPEAXI@Z 00000001400124f0 f i cinder:RendererGl.obj
 0001:000114f0       ??_EException@cinder@@UEAAPEAXI@Z 00000001400124f0 f i cinder:Window.cpp.obj
 0001:00011530       ??_EFileDropEvent@app@cinder@@UEAAPEAXI@Z 0000000140012530 f i cinder:Window.cpp.obj
 0001:00011530       ??_GFileDropEvent@app@cinder@@UEAAPEAXI@Z 0000000140012530 f i cinder:Window.cpp.obj
 0001:00011570       ??_EKeyEvent@app@cinder@@UEAAPEAXI@Z 0000000140012570 f i cinder:Window.cpp.obj
 0001:00011570       ??_GKeyEvent@app@cinder@@UEAAPEAXI@Z 0000000140012570 f i cinder:Window.cpp.obj
 0001:000115b0       ??_EMouseEvent@app@cinder@@UEAAPEAXI@Z 00000001400125b0 f i cinder:Window.cpp.obj
 0001:000115b0       ??_GMouseEvent@app@cinder@@UEAAPEAXI@Z 00000001400125b0 f i cinder:Window.cpp.obj
 0001:00011640       ??_GTouchEvent@app@cinder@@UEAAPEAXI@Z 0000000140012640 f i cinder:Window.cpp.obj
 0001:00011640       ??_ETouchEvent@app@cinder@@UEAAPEAXI@Z 0000000140012640 f i cinder:Window.cpp.obj
 0001:00011680       ?applyCurrentContext@Window@app@cinder@@IEAAXXZ 0000000140012680 f   cinder:Window.cpp.obj
 0001:00011700       ?emit@?$SignalProto@$$A6AXAEAVKeyEvent@app@cinder@@@ZU?$CollectorEvent@VKeyEvent@app@cinder@@@23@@detail@signals@cinder@@QEAAXAEAU?$CollectorEvent@VKeyEvent@app@cinder@@@app@4@AEAVKeyEvent@64@@Z 0000000140012700 f i cinder:Window.cpp.obj
 0001:00011700       ?emit@?$SignalProto@$$A6AXAEAVMouseEvent@app@cinder@@@ZU?$CollectorEvent@VMouseEvent@app@cinder@@@23@@detail@signals@cinder@@QEAAXAEAU?$CollectorEvent@VMouseEvent@app@cinder@@@app@4@AEAVMouseEvent@64@@Z 0000000140012700 f i cinder:Window.cpp.obj
 0001:00011700       ?emit@?$SignalProto@$$A6AXAEAVTouchEvent@app@cinder@@@ZU?$CollectorEvent@VTouchEvent@app@cinder@@@23@@detail@signals@cinder@@QEAAXAEAU?$CollectorEvent@VTouchEvent@app@cinder@@@app@4@AEAVTouchEvent@64@@Z 0000000140012700 f i cinder:Window.cpp.obj
 0001:00011830       ?emit@?$SignalProto@$$A6AXXZU?$CollectorDefault@X@detail@signals@cinder@@@detail@signals@cinder@@QEAAXXZ 0000000140012830 f i cinder:Window.cpp.obj
 0001:00011910       ?emitClose@Window@app@cinder@@QEAAXXZ 0000000140012910 f   cinder:Window.cpp.obj
 0001:00011920       ?emitDisplayChange@Window@app@cinder@@QEAAXXZ 0000000140012920 f   cinder:Window.cpp.obj
 0001:00011940       ?emitDraw@Window@app@cinder@@QEAAXXZ 0000000140012940 f   cinder:Window.cpp.obj
 0001:00011980       ?emitFileDrop@Window@app@cinder@@QEAAXPEAVFileDropEvent@23@@Z 0000000140012980 f   cinder:Window.cpp.obj
 0001:00011c00       ?emitKeyDown@Window@app@cinder@@QEAAXPEAVKeyEvent@23@@Z 0000000140012c00 f   cinder:Window.cpp.obj
 0001:00011c80       ?emitKeyUp@Window@app@cinder@@QEAAXPEAVKeyEvent@23@@Z 0000000140012c80 f   cinder:Window.cpp.obj
 0001:00011d00       ?emitMouseDown@Window@app@cinder@@QEAAXPEAVMouseEvent@23@@Z 0000000140012d00 f   cinder:Window.cpp.obj
 0001:00011d70       ?emitMouseDrag@Window@app@cinder@@QEAAXPEAVMouseEvent@23@@Z 0000000140012d70 f   cinder:Window.cpp.obj
 0001:00011de0       ?emitMouseMove@Window@app@cinder@@QEAAXPEAVMouseEvent@23@@Z 0000000140012de0 f   cinder:Window.cpp.obj
 0001:00011e50       ?emitMouseUp@Window@app@cinder@@QEAAXPEAVMouseEvent@23@@Z 0000000140012e50 f   cinder:Window.cpp.obj
 0001:00011ec0       ?emitMouseWheel@Window@app@cinder@@QEAAXPEAVMouseEvent@23@@Z 0000000140012ec0 f   cinder:Window.cpp.obj
 0001:00011f30       ?emitMove@Window@app@cinder@@QEAAXXZ 0000000140012f30 f   cinder:Window.cpp.obj
 0001:00011f50       ?emitResize@Window@app@cinder@@QEAAXXZ 0000000140012f50 f   cinder:Window.cpp.obj
 0001:00011ff0       ?emitTouchesBegan@Window@app@cinder@@QEAAXPEAVTouchEvent@23@@Z 0000000140012ff0 f   cinder:Window.cpp.obj
 0001:00012070       ?emitTouchesEnded@Window@app@cinder@@QEAAXPEAVTouchEvent@23@@Z 0000000140013070 f   cinder:Window.cpp.obj
 0001:000120f0       ?emitTouchesMoved@Window@app@cinder@@QEAAXPEAVTouchEvent@23@@Z 00000001400130f0 f   cinder:Window.cpp.obj
 0001:00012170       ?getContentScale@Window@app@cinder@@QEBAMXZ 0000000140013170 f   cinder:Window.cpp.obj
 0001:000121a0       ?getRenderer@Window@app@cinder@@QEBA?AV?$shared_ptr@VRenderer@app@cinder@@@std@@XZ 00000001400131a0 f   cinder:Window.cpp.obj
 0001:000121e0       ?getSize@Window@app@cinder@@UEBA?AU?$vec@$01H$0A@@glm@@XZ 00000001400131e0 f   cinder:Window.cpp.obj
 0001:00012220       ?isFullScreen@Window@app@cinder@@QEBA_NXZ 0000000140013220 f   cinder:Window.cpp.obj
 0001:00012250       ?setFullScreen@Window@app@cinder@@QEAAX_NAEBUFullScreenOptions@23@@Z 0000000140013250 f   cinder:Window.cpp.obj
 0001:000122a0       ?setPos@Window@app@cinder@@QEBAXAEBU?$vec@$01H$0A@@glm@@@Z 00000001400132a0 f   cinder:Window.cpp.obj
 0001:000122d0       ?testValid@Window@app@cinder@@IEBAXXZ 00000001400132d0 f i cinder:Window.cpp.obj
 0001:00012330       ?what@ExcInvalidWindow@app@cinder@@EEBAPEBDXZ 0000000140013330 f i cinder:Window.cpp.obj
 0001:00012340       ?what@Exception@cinder@@UEBAPEBDXZ 0000000140013340 f i cinder:Window.cpp.obj
 0001:00012350       ??$?0UDisconnector@detail@signals@cinder@@$0A@@?$shared_ptr@UDisconnector@detail@signals@cinder@@@std@@QEAA@PEAUDisconnector@detail@signals@cinder@@@Z 0000000140013350 f i cinder:AppBase.obj
 0001:000123d0       ??$?6$$BY08D@Entry@log@cinder@@QEAAAEAU012@AEAY08$$CBD@Z 00000001400133d0 f i cinder:AppBase.obj
 0001:000123d0       ??$?6$$BY0CO@D@Entry@log@cinder@@QEAAAEAU012@AEAY0CO@$$CBD@Z 00000001400133d0 f i cinder:AppBase.obj
 0001:000123f0       ??$?6PEBD@Entry@log@cinder@@QEAAAEAU012@AEBQEBD@Z 00000001400133f0 f i cinder:AppBase.obj
 0001:00012420       ??$?6V?$basic_string@DU?$char_traits@D@std@@V?$allocator@D@2@@std@@@Entry@log@cinder@@QEAAAEAU012@AEBV?$basic_string@DU?$char_traits@D@std@@V?$allocator@D@2@@std@@@Z 0000000140013420 f i cinder:AppBase.obj
 0001:00012450       ??$_Assign_range@PEAV?$basic_string@DU?$char_traits@D@std@@V?$allocator@D@2@@std@@@?$vector@V?$basic_string@DU?$char_traits@D@std@@V?$allocator@D@2@@std@@V?$allocator@V?$basic_string@DU?$char_traits@D@std@@V?$allocator@D@2@@std@@@2@@std@@AEAAXPEAV?$basic_string@DU?$char_traits@D@std@@V?$allocator@D@2@@1@0Uforward_iterator_tag@1@@Z 0000000140013450 f i cinder:AppBase.obj
 0001:00012650       ??$_Insert_string@DU?$char_traits@D@std@@_K@std@@YAAEAV?$basic_ostream@DU?$char_traits@D@std@@@0@AEAV10@QEBD_K@Z 0000000140013650 f i cinder:AppBase.obj
 0001:00012920       ??$throw_exception@Vinvalid_service_owner@asio@@@detail@asio@@YAXAEBVinvalid_service_owner@1@@Z 0000000140013920 f i cinder:AppBase.obj
 0001:00012950       ??$throw_exception@Vservice_already_exists@asio@@@detail@asio@@YAXAEBVservice_already_exists@1@@Z 0000000140013950 f i cinder:AppBase.obj
 0001:00012980       ??$throw_exception@Vsystem_error@std@@@detail@asio@@YAXAEBVsystem_error@std@@@Z 0000000140013980 f i cinder:AppBase.obj
 0001:000129b0       ??0?$Signal@$$A6AXAEBV?$shared_ptr@VDisplay@cinder@@@std@@@ZU?$CollectorDefault@X@detail@signals@cinder@@@signals@cinder@@QEAA@XZ 00000001400139b0 f i cinder:AppBase.obj
 0001:00012a50       ??0?$Signal@$$A6AXXZU?$CollectorDefault@X@detail@signals@cinder@@@signals@cinder@@QEAA@XZ 0000000140013a50 f i cinder:AppBase.obj
 0001:00012af0       ??0?$winsock_init@$01$0A@@detail@asio@@QEAA@_N@Z 0000000140013af0 f i cinder:AppBase.obj
 0001:00012ba0       ??0AppBase@app@cinder@@IEAA@XZ 0000000140013ba0 f   cinder:AppBase.obj
 0001:00013170       ??0Format@Window@app@cinder@@QEAA@AEBU0123@@Z 0000000140014170 f i cinder:AppBase.obj
 0001:00013270       ??0Format@Window@app@cinder@@QEAA@V?$shared_ptr@VRenderer@app@cinder@@@std@@V?$shared_ptr@VDisplay@cinder@@@5@_NU?$vec@$01H$0A@@glm@@3@Z 0000000140014270 f i cinder:AppBase.obj
 0001:000133a0       ??0Location@log@cinder@@QEAA@AEBV?$basic_string@DU?$char_traits@D@std@@V?$allocator@D@2@@std@@0AEB_K@Z 00000001400143a0 f i cinder:AppBase.obj
 0001:000133f0       ??0Settings@AppBase@app@cinder@@QEAA@XZ 00000001400143f0 f   cinder:AppBase.obj
 0001:000134e0       ??0exception_ptr@std@@QEAA@AEBV01@@Z 00000001400144e0 f i cinder:AppBase.obj
 0001:00013500       ??0execution_context@asio@@IEAA@XZ 0000000140014500 f i cinder:AppBase.obj
 0001:00013580       ??0invalid_service_owner@asio@@QEAA@AEBV01@@Z 0000000140014580 f i cinder:AppBase.obj
 0001:000135c0       ??0invalid_service_owner@asio@@QEAA@XZ 00000001400145c0 f i cinder:AppBase.obj
 0001:00013610       ??0logic_error@std@@QEAA@AEBV01@@Z 0000000140014610 f i cinder:AppBase.obj
 0001:00013650       ??0service_already_exists@asio@@QEAA@AEBV01@@Z 0000000140014650 f i cinder:AppBase.obj
 0001:00013690       ??0service_already_exists@asio@@QEAA@XZ 0000000140014690 f i cinder:AppBase.obj
 0001:000136e0       ??0win_iocp_io_service@detail@asio@@QEAA@AEAVexecution_context@2@_K@Z 00000001400146e0 f i cinder:AppBase.obj
 0001:00013860       ??1?$Signal@$$A6AXAEBV?$shared_ptr@VDisplay@cinder@@@std@@@ZU?$CollectorDefault@X@detail@signals@cinder@@@signals@cinder@@QEAA@XZ 0000000140014860 f i cinder:AppBase.obj
 0001:00013870       ??1?$Signal@$$A6AXXZU?$CollectorDefault@X@detail@signals@cinder@@@signals@cinder@@QEAA@XZ 0000000140014870 f i cinder:AppBase.obj
 0001:00013880       ??1?$Signal@$$A6A_NXZUCollectorBooleanAnd@signals@cinder@@@signals@cinder@@QEAA@XZ 0000000140014880 f i cinder:AppBase.obj
 0001:00013890       ??1?$SignalProto@$$A6AXAEBV?$shared_ptr@VDisplay@cinder@@@std@@@ZU?$CollectorDefault@X@detail@signals@cinder@@@detail@signals@cinder@@QEAA@XZ 0000000140014890 f i cinder:AppBase.obj
 0001:00013a90       ??1?$SignalProto@$$A6AXXZU?$CollectorDefault@X@detail@signals@cinder@@@detail@signals@cinder@@QEAA@XZ 0000000140014a90 f i cinder:AppBase.obj
 0001:00013c90       ??1?$SignalProto@$$A6A_NXZUCollectorBooleanAnd@signals@cinder@@@detail@signals@cinder@@QEAA@XZ 0000000140014c90 f i cinder:AppBase.obj
 0001:00013e90       ??1?$_Temporary_owner@UDisconnector@detail@signals@cinder@@@std@@QEAA@XZ 0000000140014e90 f i cinder:AppBase.obj
 0001:00013e90       ??1?$_Temporary_owner@VBlankingWindow@app@cinder@@@std@@QEAA@XZ 0000000140014e90 f i cinder:AppImplMswBasic.obj
 0001:00013ea0       ??1?$_Temporary_owner@Vio_service@asio@@@std@@QEAA@XZ 0000000140014ea0 f i cinder:AppBase.obj
 0001:00013ef0       ??1?$_Temporary_owner@Vwork@io_service@asio@@@std@@QEAA@XZ 0000000140014ef0 f i cinder:AppBase.obj
 0001:00013f30       ??1?$_Uninitialized_backout_al@V?$allocator@UFormat@Window@app@cinder@@@std@@@std@@QEAA@XZ 0000000140014f30 f i cinder:AppBase.obj
 0001:00013f70       ??1?$execution_context_service_base@Vwin_iocp_io_service@detail@asio@@@detail@asio@@UEAA@XZ 0000000140014f70 f i cinder:AppBase.obj
 0001:00013f80       ??1?$map@HPEAUSignalLink@?$SignalProto@$$A6AXAEAVTouchEvent@app@cinder@@@ZU?$CollectorEvent@VTouchEvent@app@cinder@@@23@@detail@signals@cinder@@U?$greater@H@std@@V?$allocator@U?$pair@$$CBHPEAUSignalLink@?$SignalProto@$$A6AXAEAVTouchEvent@app@cinder@@@ZU?$CollectorEvent@VTouchEvent@app@cinder@@@23@@detail@signals@cinder@@@std@@@7@@std@@QEAA@XZ 0000000140014f80 f i cinder:AppImplMsw.obj
 0001:00013f80       ??1?$map@HPEAUSignalLink@?$SignalProto@$$A6AXAEAVMouseEvent@app@cinder@@@ZU?$CollectorEvent@VMouseEvent@app@cinder@@@23@@detail@signals@cinder@@U?$greater@H@std@@V?$allocator@U?$pair@$$CBHPEAUSignalLink@?$SignalProto@$$A6AXAEAVMouseEvent@app@cinder@@@ZU?$CollectorEvent@VMouseEvent@app@cinder@@@23@@detail@signals@cinder@@@std@@@7@@std@@QEAA@XZ 0000000140014f80 f i cinder:AppImplMsw.obj
 0001:00013f80       ??1?$map@HPEAUSignalLink@?$SignalProto@$$A6AXAEBV?$shared_ptr@VDisplay@cinder@@@std@@@ZU?$CollectorDefault@X@detail@signals@cinder@@@detail@signals@cinder@@U?$greater@H@std@@V?$allocator@U?$pair@$$CBHPEAUSignalLink@?$SignalProto@$$A6AXAEBV?$shared_ptr@VDisplay@cinder@@@std@@@ZU?$CollectorDefault@X@detail@signals@cinder@@@detail@signals@cinder@@@std@@@7@@std@@QEAA@XZ 0000000140014f80 f i cinder:AppBase.obj
 0001:00013f80       ??1?$map@HPEAUSignalLink@?$SignalProto@$$A6A_NXZUCollectorBooleanAnd@signals@cinder@@@detail@signals@cinder@@U?$greater@H@std@@V?$allocator@U?$pair@$$CBHPEAUSignalLink@?$SignalProto@$$A6A_NXZUCollectorBooleanAnd@signals@cinder@@@detail@signals@cinder@@@std@@@7@@std@@QEAA@XZ 0000000140014f80 f i cinder:AppBase.obj
 0001:00013f80       ??1?$map@HPEAUSignalLink@?$SignalProto@$$A6AXAEAVKeyEvent@app@cinder@@@ZU?$CollectorEvent@VKeyEvent@app@cinder@@@23@@detail@signals@cinder@@U?$greater@H@std@@V?$allocator@U?$pair@$$CBHPEAUSignalLink@?$SignalProto@$$A6AXAEAVKeyEvent@app@cinder@@@ZU?$CollectorEvent@VKeyEvent@app@cinder@@@23@@detail@signals@cinder@@@std@@@7@@std@@QEAA@XZ 0000000140014f80 f i cinder:AppImplMsw.obj
 0001:00013f80       ??1?$map@HPEAUSignalLink@?$SignalProto@$$A6AXXZU?$CollectorDefault@X@detail@signals@cinder@@@detail@signals@cinder@@U?$greater@H@std@@V?$allocator@U?$pair@$$CBHPEAUSignalLink@?$SignalProto@$$A6AXXZU?$CollectorDefault@X@detail@signals@cinder@@@detail@signals@cinder@@@std@@@7@@std@@QEAA@XZ 0000000140014f80 f i cinder:AppBase.obj
 0001:00013f80       ??1?$map@HPEAUSignalLink@?$SignalProto@$$A6A_NAEBVpath@filesystem@std@@PEAV?$basic_string@DU?$char_traits@D@std@@V?$allocator@D@2@@3@@ZU?$CollectorDefault@_N@detail@signals@cinder@@@detail@signals@cinder@@U?$greater@H@std@@V?$allocator@U?$pair@$$CBHPEAUSignalLink@?$SignalProto@$$A6A_NAEBVpath@filesystem@std@@PEAV?$basic_string@DU?$char_traits@D@std@@V?$allocator@D@2@@3@@ZU?$CollectorDefault@_N@detail@signals@cinder@@@detail@signals@cinder@@@std@@@7@@std@@QEAA@XZ 0000000140014f80 f i cinder:ShaderPreprocessor.obj
 0001:00013f80       ??1?$map@HPEAUSignalLink@?$SignalProto@$$A6AXAEAVFileDropEvent@app@cinder@@@ZU?$CollectorEvent@VFileDropEvent@app@cinder@@@23@@detail@signals@cinder@@U?$greater@H@std@@V?$allocator@U?$pair@$$CBHPEAUSignalLink@?$SignalProto@$$A6AXAEAVFileDropEvent@app@cinder@@@ZU?$CollectorEvent@VFileDropEvent@app@cinder@@@23@@detail@signals@cinder@@@std@@@7@@std@@QEAA@XZ 0000000140014f80 f i cinder:AppImplMsw.obj
 0001:00013fe0       ??1?$op_queue@Vwin_iocp_operation@detail@asio@@@detail@asio@@QEAA@XZ 0000000140014fe0 f i cinder:AppBase.obj
 0001:00014060       ??1?$scoped_lock@Vwin_mutex@detail@asio@@@detail@asio@@QEAA@XZ 0000000140015060 f i cinder:AppBase.obj
 0001:00014080       ??1?$scoped_ptr@Vwin_thread@detail@asio@@@detail@asio@@QEAA@XZ 0000000140015080 f i cinder:AppBase.obj
 0001:000140b0       ??1?$winsock_init@$01$0A@@detail@asio@@QEAA@XZ 00000001400150b0 f i cinder:AppBase.obj
 0001:000140d0       ??1AppBase@app@cinder@@UEAA@XZ 00000001400150d0 f   cinder:AppBase.obj
 0001:00014250       ??1Location@log@cinder@@QEAA@XZ 0000000140015250 f i cinder:AppBase.obj
 0001:00014250       ??1?$pair@$$CBV?$basic_string@DU?$char_traits@D@std@@V?$allocator@D@2@@std@@V12@@std@@QEAA@XZ 0000000140015250 f i cinder:PlatformMsw.obj
 0001:00014300       ??1auto_handle@win_iocp_io_service@detail@asio@@QEAA@XZ 0000000140015300 f i cinder:AppBase.obj
 0001:00014310       ??1context@?$call_stack@Vthread_context@detail@asio@@Vthread_info_base@23@@detail@asio@@QEAA@XZ 0000000140015310 f i cinder:AppBase.obj
 0001:00014330       ??1exception_ptr@std@@QEAA@XZ 0000000140015330 f i cinder:AppBase.obj
 0001:00014340       ??1execution_context@asio@@IEAA@XZ 0000000140015340 f i cinder:AppBase.obj
 0001:000143d0       ??1local_free_on_block_exit@detail@asio@@QEAA@XZ 00000001400153d0 f i cinder:AppBase.obj
 0001:000143e0       ??1win_iocp_thread_info@detail@asio@@QEAA@XZ 00000001400153e0 f i cinder:AppBase.obj
 0001:000143f0       ??1_ReentrantBlockingLock@details@Concurrency@@QEAA@XZ 00000001400153f0 f i libconcrt:rtlocks.obj
 0001:000143f0       _Mtxdst                    00000001400153f0 f i libcpmt:xmtx.obj
 0001:000143f0       ??1_NonReentrantBlockingLock@details@Concurrency@@QEAA@XZ 00000001400153f0 f i libconcrt:rtlocks.obj
 0001:000143f0       ??1win_mutex@detail@asio@@QEAA@XZ 00000001400153f0 f i cinder:AppBase.obj
 0001:00014400       ??1work_finished_on_block_exit@win_iocp_io_service@detail@asio@@QEAA@XZ 0000000140015400 f i cinder:AppBase.obj
 0001:00014430       ??4?$shared_ptr@VRenderer@app@cinder@@@std@@QEAAAEAV01@AEBV01@@Z 0000000140015430 f i cinder:AppBase.obj
 0001:000144c0       ??Y?$basic_string@DU?$char_traits@D@std@@V?$allocator@D@2@@std@@QEAAAEAV01@QEBD@Z 00000001400154c0 f i cinder:AppBase.obj
 0001:000144e0       ??_EAppBase@app@cinder@@UEAAPEAXI@Z 00000001400154e0 f i cinder:AppBase.obj
 0001:000144e0       ??_GAppBase@app@cinder@@UEAAPEAXI@Z 00000001400154e0 f i cinder:AppBase.obj
 0001:00014520       ??_Eservice@execution_context@asio@@MEAAPEAXI@Z 0000000140015520 f i cinder:AppBase.obj
 0001:00014520       ??_Gservice@execution_context@asio@@MEAAPEAXI@Z 0000000140015520 f i cinder:AppBase.obj
 0001:00014550       ??_Ewin_iocp_io_service@detail@asio@@UEAAPEAXI@Z 0000000140015550 f i cinder:AppBase.obj
 0001:00014550       ??_Gwin_iocp_io_service@detail@asio@@UEAAPEAXI@Z 0000000140015550 f i cinder:AppBase.obj
 0001:000145f0       ?_Destroy@?$_Ref_count@VBlankingWindow@app@cinder@@@std@@EEAAXXZ 00000001400155f0 f i cinder:AppImplMswBasic.obj
 0001:000145f0       ?_Destroy@?$_Ref_count@UDisconnector@detail@signals@cinder@@@std@@EEAAXXZ 00000001400155f0 f i cinder:AppBase.obj
 0001:00014600       ?_Destroy@?$_Ref_count@Vio_service@asio@@@std@@EEAAXXZ 0000000140015600 f i cinder:AppBase.obj
 0001:00014650       ?_Destroy@?$_Ref_count@Vwork@io_service@asio@@@std@@EEAAXXZ 0000000140015650 f i cinder:AppBase.obj
 0001:00014690       ?_Umove@?$vector@UFormat@Window@app@cinder@@V?$allocator@UFormat@Window@app@cinder@@@std@@@std@@AEAAPEAUFormat@Window@app@cinder@@PEAU3456@00@Z 0000000140015690 f i cinder:AppBase.obj
 0001:00014800       ?cleanupLaunch@AppBase@app@cinder@@KAXXZ 0000000140015800 f   cinder:AppBase.obj
 0001:00014820       ?console@AppBase@app@cinder@@QEAAAEAV?$basic_ostream@DU?$char_traits@D@std@@@std@@XZ 0000000140015820 f   cinder:AppBase.obj
 0001:00014840       ?create@Timeline@cinder@@SA?AV?$shared_ptr@VTimeline@cinder@@@std@@XZ 0000000140015840 f i cinder:AppBase.obj
 0001:00014970       ?disconnect@?$SignalProto@$$A6AXAEAVTouchEvent@app@cinder@@@ZU?$CollectorEvent@VTouchEvent@app@cinder@@@23@@detail@signals@cinder@@EEAA_NPEAUSignalLinkBase@234@H@Z 0000000140015970 f i cinder:AppImplMsw.obj
 0001:00014970       ?disconnect@?$SignalProto@$$A6A_NAEBVpath@filesystem@std@@PEAV?$basic_string@DU?$char_traits@D@std@@V?$allocator@D@2@@3@@ZU?$CollectorDefault@_N@detail@signals@cinder@@@detail@signals@cinder@@EEAA_NPEAUSignalLinkBase@234@H@Z 0000000140015970 f i cinder:GlslProg.obj
 0001:00014970       ?disconnect@?$SignalProto@$$A6AXAEBV?$shared_ptr@VDisplay@cinder@@@std@@@ZU?$CollectorDefault@X@detail@signals@cinder@@@detail@signals@cinder@@EEAA_NPEAUSignalLinkBase@234@H@Z 0000000140015970 f i cinder:AppBase.obj
 0001:00014970       ?disconnect@?$SignalProto@$$A6AXXZU?$CollectorDefault@X@detail@signals@cinder@@@detail@signals@cinder@@EEAA_NPEAUSignalLinkBase@234@H@Z 0000000140015970 f i cinder:AppBase.obj
 0001:00014970       ?disconnect@?$SignalProto@$$A6AXAEAVFileDropEvent@app@cinder@@@ZU?$CollectorEvent@VFileDropEvent@app@cinder@@@23@@detail@signals@cinder@@EEAA_NPEAUSignalLinkBase@234@H@Z 0000000140015970 f i cinder:AppImplMsw.obj
 0001:00014970       ?disconnect@?$SignalProto@$$A6AXAEAVKeyEvent@app@cinder@@@ZU?$CollectorEvent@VKeyEvent@app@cinder@@@23@@detail@signals@cinder@@EEAA_NPEAUSignalLinkBase@234@H@Z 0000000140015970 f i cinder:AppImplMsw.obj
 0001:00014970       ?disconnect@?$SignalProto@$$A6AXAEAVMouseEvent@app@cinder@@@ZU?$CollectorEvent@VMouseEvent@app@cinder@@@23@@detail@signals@cinder@@EEAA_NPEAUSignalLinkBase@234@H@Z 0000000140015970 f i cinder:AppImplMsw.obj
 0001:00014970       ?disconnect@?$SignalProto@$$A6A_NXZUCollectorBooleanAnd@signals@cinder@@@detail@signals@cinder@@EEAA_NPEAUSignalLinkBase@234@H@Z 0000000140015970 f i cinder:AppBase.obj
 0001:000149c0       ?do_init@win_mutex@detail@asio@@AEAAHXZ 00000001400159c0 f i cinder:AppBase.obj
 0001:000149f0       ?do_one@win_iocp_io_service@detail@asio@@AEAA_K_NAEAVerror_code@std@@@Z 00000001400159f0 f i cinder:AppBase.obj
 0001:00014e90       ?do_throw_error@detail@asio@@YAXAEBVerror_code@std@@@Z 0000000140015e90 f i cinder:AppBase.obj
 0001:00014ec0       ?do_throw_error@detail@asio@@YAXAEBVerror_code@std@@PEBD@Z 0000000140015ec0 f i cinder:AppBase.obj
 0001:00014f50       ?emit@?$SignalProto@$$A6AXAEBV?$shared_ptr@VDisplay@cinder@@@std@@@ZU?$CollectorDefault@X@detail@signals@cinder@@@detail@signals@cinder@@QEAAXAEBV?$shared_ptr@VDisplay@cinder@@@std@@@Z 0000000140015f50 f i cinder:AppBase.obj
 0001:00015040       ?emitCleanup@AppBase@app@cinder@@QEAAXXZ 0000000140016040 f   cinder:AppBase.obj
 0001:00015070       ?emitDidBecomeActive@AppBase@app@cinder@@QEAAXXZ 0000000140016070 f   cinder:AppBase.obj
 0001:00015080       ?emitDisplayChanged@AppBase@app@cinder@@QEAAXAEBV?$shared_ptr@VDisplay@cinder@@@std@@@Z 0000000140016080 f   cinder:AppBase.obj
 0001:00015090       ?emitDisplayConnected@AppBase@app@cinder@@QEAAXAEBV?$shared_ptr@VDisplay@cinder@@@std@@@Z 0000000140016090 f   cinder:AppBase.obj
 0001:000150a0       ?emitDisplayDisconnected@AppBase@app@cinder@@QEAAXAEBV?$shared_ptr@VDisplay@cinder@@@std@@@Z 00000001400160a0 f   cinder:AppBase.obj
 0001:000150b0       ?emitWillResignActive@AppBase@app@cinder@@QEAAXXZ 00000001400160b0 f   cinder:AppBase.obj
 0001:000150c0       ?executeLaunch@AppBase@app@cinder@@IEAAXXZ 00000001400160c0 f   cinder:AppBase.obj
 0001:00015100       ?fileDrop@AppBase@app@cinder@@UEAAXVFileDropEvent@23@@Z 0000000140016100 f i cinder:AppBase.obj
 0001:00015110       ?get@AppBase@app@cinder@@SAPEAV123@XZ 0000000140016110 f   cinder:AppBase.obj
 0001:00015120       ?get_misc_category@error@asio@@YAAEBVerror_category@std@@XZ 0000000140016120 f i cinder:AppBase.obj
 0001:000151b0       ?get_system_category@error@asio@@YAAEBVerror_category@std@@XZ 00000001400161b0 f i cinder:AppBase.obj
 0001:00015240       ?initialize@AppBase@app@cinder@@KAXPEAVSettings@123@AEBV?$shared_ptr@VRenderer@app@cinder@@@std@@PEBDHQEBQEAD@Z 0000000140016240 f   cinder:AppBase.obj
 0001:000153b0       ?join@win_thread@detail@asio@@QEAAXXZ 00000001400163b0 f i cinder:AppBase.obj
 0001:00015440       ?keyUp@AppBase@app@cinder@@UEAAXVKeyEvent@23@@Z 0000000140016440 f i cinder:AppBase.obj
 0001:00015440       ?keyDown@AppBase@app@cinder@@UEAAXVKeyEvent@23@@Z 0000000140016440 f i cinder:AppBase.obj
 0001:00015450       ?message@misc_category@detail@error@asio@@UEBA?AV?$basic_string@DU?$char_traits@D@std@@V?$allocator@D@2@@std@@H@Z 0000000140016450 f i cinder:AppBase.obj
 0001:00015540       ?message@system_category@detail@asio@@UEBA?AV?$basic_string@DU?$char_traits@D@std@@V?$allocator@D@2@@std@@H@Z 0000000140016540 f i cinder:AppBase.obj
 0001:00015630       ?name@misc_category@detail@error@asio@@UEBAPEBDXZ 0000000140016630 f i cinder:AppBase.obj
 0001:00015640       ?name@system_category@detail@asio@@UEBAPEBDXZ 0000000140016640 f i cinder:AppBase.obj
 0001:00015650       ?name@type_info@@QEBAPEBDXZ 0000000140016650 f i cinder:AppBase.obj
 0001:00015660       ?onTerminate@AppBase@app@cinder@@CAXXZ 0000000140016660 f   cinder:AppBase.obj
 0001:000156d0       ?prepareLaunch@AppBase@app@cinder@@KAXXZ 00000001400166d0 f   cinder:AppBase.obj
 0001:000156f0       ?privateSetup__@AppBase@app@cinder@@UEAAXXZ 00000001400166f0 f   cinder:AppBase.obj
 0001:00015730       ?privateUpdate__@AppBase@app@cinder@@UEAAXXZ 0000000140016730 f   cinder:AppBase.obj
 0001:000159a0       ?restoreWindowContext@AppBase@app@cinder@@UEAAXXZ 00000001400169a0 f   cinder:AppBase.obj
 0001:00015a50       ?rethrow_exception@std@@YAXVexception_ptr@1@@Z 0000000140016a50 f i cinder:AppBase.obj
 0001:00015a60       ?shutdown_service@win_iocp_io_service@detail@asio@@UEAAXXZ 0000000140016a60 f i cinder:AppBase.obj
 0001:00015c60       ?stop@win_iocp_io_service@detail@asio@@QEAAXXZ 0000000140016c60 f i cinder:AppBase.obj
 0001:00015cd0       ??0ExcRenderer@app@cinder@@QEAA@AEBV012@@Z 0000000140016cd0 f i cinder:RendererGl.obj
 0001:00015d40       ??0ExcRendererAllocation@app@cinder@@QEAA@AEBV012@@Z 0000000140016d40 f i cinder:RendererGl.obj
 0001:00015db0       ??0ExcRendererAllocation@app@cinder@@QEAA@AEBV?$basic_string@DU?$char_traits@D@std@@V?$allocator@D@2@@std@@@Z 0000000140016db0 f i cinder:RendererGl.obj
 0001:00015de0       ??0RendererGl@app@cinder@@QEAA@AEBUOptions@012@@Z 0000000140016de0 f   cinder:RendererGl.obj
 0001:00015e20       ??_ERenderer@app@cinder@@UEAAPEAXI@Z 0000000140016e20 f i cinder:RendererGl.obj
 0001:00015e20       ??_GRenderer@app@cinder@@UEAAPEAXI@Z 0000000140016e20 f i cinder:RendererGl.obj
 0001:00015e50       ??_GRendererGl@app@cinder@@UEAAPEAXI@Z 0000000140016e50 f i cinder:RendererGl.obj
 0001:00015e50       ??_ERendererGl@app@cinder@@UEAAPEAXI@Z 0000000140016e50 f i cinder:RendererGl.obj
 0001:00015f40       ?clone@RendererGl@app@cinder@@UEBA?AV?$shared_ptr@VRenderer@app@cinder@@@std@@XZ 0000000140016f40 f i cinder:RendererGl.obj
 0001:00016020       ?copyWindowSurface@RendererGl@app@cinder@@UEAA?AV?$SurfaceT@E@3@AEBVArea@3@H@Z 0000000140017020 f   cinder:RendererGl.obj
 0001:00016110       ?defaultResize@RendererGl@app@cinder@@UEAAXXZ 0000000140017110 f   cinder:RendererGl.obj
 0001:00016120       ?finishDraw@RendererGl@app@cinder@@UEAAXXZ 0000000140017120 f   cinder:RendererGl.obj
 0001:00016160       ?finishToggleFullScreen@RendererGl@app@cinder@@UEAAXXZ 0000000140017160 f   cinder:RendererGl.obj
 0001:00016170       ?getDc@RendererGl@app@cinder@@UEBAPEAUHDC__@@XZ 0000000140017170 f   cinder:RendererGl.obj
 0001:00016180       ?getHwnd@RendererGl@app@cinder@@UEBAPEAUHWND__@@XZ 0000000140017180 f   cinder:RendererGl.obj
 0001:00016190       ?kill@RendererGl@app@cinder@@UEAAXXZ 0000000140017190 f   cinder:RendererGl.obj
 0001:000161a0       ?makeCurrentContext@RendererGl@app@cinder@@UEAAX_N@Z 00000001400171a0 f   cinder:RendererGl.obj
 0001:000161b0       ?prepareToggleFullScreen@RendererGl@app@cinder@@UEAAXXZ 00000001400171b0 f   cinder:RendererGl.obj
 0001:000161c0       ?setup@RendererGl@app@cinder@@UEAAXPEAVWindowImplMsw@23@V?$shared_ptr@VRenderer@app@cinder@@@std@@@Z 00000001400171c0 f   cinder:RendererGl.obj
 0001:000162e0       ?startDraw@RendererGl@app@cinder@@UEAAXXZ 00000001400172e0 f   cinder:RendererGl.obj
 0001:00016320       ?swapBuffers@RendererGl@app@cinder@@UEAAXXZ 0000000140017320 f   cinder:RendererGl.obj
 0001:00016330       ??$_Emplace_reallocate@AEBV?$basic_string@DU?$char_traits@D@std@@V?$allocator@D@2@@std@@@?$vector@V?$basic_string@DU?$char_traits@D@std@@V?$allocator@D@2@@std@@V?$allocator@V?$basic_string@DU?$char_traits@D@std@@V?$allocator@D@2@@std@@@2@@std@@QEAAPEAV?$basic_string@DU?$char_traits@D@std@@V?$allocator@D@2@@1@QEAV21@AEBV21@@Z 0000000140017330 f i cinder:AppMsw.obj
 0001:00016560       ??0AppMsw@app@cinder@@QEAA@XZ 0000000140017560 f   cinder:AppMsw.obj
 0001:00016630       ??1AppMsw@app@cinder@@UEAA@XZ 0000000140017630 f   cinder:AppMsw.obj
 0001:00016670       ??_GAppMsw@app@cinder@@UEAAPEAXI@Z 0000000140017670 f i cinder:AppMsw.obj
 0001:00016670       ??_EAppMsw@app@cinder@@UEAAPEAXI@Z 0000000140017670 f i cinder:AppMsw.obj
 0001:000166d0       ?createWindow@AppMsw@app@cinder@@UEAA?AV?$shared_ptr@VWindow@app@cinder@@@std@@AEBUFormat@Window@23@@Z 00000001400176d0 f   cinder:AppMsw.obj
 0001:00016820       ?disableFrameRate@AppMsw@app@cinder@@UEAAXXZ 0000000140017820 f   cinder:AppMsw.obj
 0001:00016830       ?getForegroundWindow@AppMsw@app@cinder@@UEBA?AV?$shared_ptr@VWindow@app@cinder@@@std@@XZ 0000000140017830 f   cinder:AppMsw.obj
 0001:00016850       ?getFrameRate@AppMsw@app@cinder@@UEBAMXZ 0000000140017850 f   cinder:AppMsw.obj
 0001:00016860       ?getMousePos@AppMsw@app@cinder@@UEBA?AU?$vec@$01H$0A@@glm@@XZ 0000000140017860 f   cinder:AppMsw.obj
 0001:00016890       ?getNumWindows@AppMsw@app@cinder@@UEBA_KXZ 0000000140017890 f   cinder:AppMsw.obj
 0001:000168a0       ?getWindow@AppMsw@app@cinder@@UEBA?AV?$shared_ptr@VWindow@app@cinder@@@std@@XZ 00000001400178a0 f   cinder:AppMsw.obj
 0001:000168c0       ?getWindowIndex@AppMsw@app@cinder@@UEBA?AV?$shared_ptr@VWindow@app@cinder@@@std@@_K@Z 00000001400178c0 f   cinder:AppMsw.obj
 0001:000168e0       ?hideCursor@AppMsw@app@cinder@@UEAAXXZ 00000001400178e0 f   cinder:AppMsw.obj
 0001:000168f0       ?initialize@AppMsw@app@cinder@@SAXPEAVSettings@123@AEBV?$shared_ptr@VRenderer@app@cinder@@@std@@PEBD@Z 00000001400178f0 f   cinder:AppMsw.obj
 0001:00016a10       ?isFrameRateEnabled@AppMsw@app@cinder@@UEBA_NXZ 0000000140017a10 f   cinder:AppMsw.obj
 0001:00016a20       ?launch@AppMsw@app@cinder@@MEAAXXZ 0000000140017a20 f   cinder:AppMsw.obj
 0001:00016ab0       ?quit@AppMsw@app@cinder@@UEAAXXZ 0000000140017ab0 f   cinder:AppMsw.obj
 0001:00016ad0       ?setFrameRate@AppMsw@app@cinder@@UEAAXM@Z 0000000140017ad0 f   cinder:AppMsw.obj
 0001:00016ae0       ?showCursor@AppMsw@app@cinder@@UEAAXXZ 0000000140017ae0 f   cinder:AppMsw.obj
 0001:00016af0       ??$?DM$0A@@glm@@YA?AU?$mat@$03$03M$0A@@0@AEBU10@0@Z 0000000140017af0 f i cinder:wrapper.obj
 0001:00017040       ??$_Uninitialized_copy@PEAU?$mat@$03$03M$0A@@glm@@V?$allocator@U?$mat@$03$03M$0A@@glm@@@std@@@std@@YAPEAU?$mat@$03$03M$0A@@glm@@QEAU12@0PEAU12@AEAV?$allocator@U?$mat@$03$03M$0A@@glm@@@0@@Z 0000000140018040 f i cinder:wrapper.obj
 0001:000170c0       ??$inverseTranspose@M$0A@@glm@@YA?AU?$mat@$02$02M$0A@@0@AEBU10@@Z 00000001400180c0 f i cinder:wrapper.obj
 0001:000172f0       ??$inverseTranspose@M$0A@@glm@@YA?AU?$mat@$03$03M$0A@@0@AEBU10@@Z 00000001400182f0 f i cinder:wrapper.obj
 0001:000179a0       ?_Umove@?$vector@U?$mat@$03$03M$0A@@glm@@V?$allocator@U?$mat@$03$03M$0A@@glm@@@std@@@std@@AEAAPEAU?$mat@$03$03M$0A@@glm@@PEAU34@00@Z 00000001400189a0 f i cinder:wrapper.obj
 0001:00017a20       ?allocate@?$allocator@U?$mat@$03$03M$0A@@glm@@@std@@QEAAPEAU?$mat@$03$03M$0A@@glm@@_K@Z 0000000140018a20 f i cinder:wrapper.obj
 0001:00017a20       ?allocate@?$allocator@UUniform@GlslProg@gl@cinder@@@std@@QEAAPEAUUniform@GlslProg@gl@cinder@@_K@Z 0000000140018a20 f i cinder:GlslProg.obj
 0001:00017a90       ?begin@gl@cinder@@YAXI@Z   0000000140018a90 f   cinder:wrapper.obj
 0001:00017ab0       ?calcModelMatrixInverseTranspose@gl@cinder@@YA?AU?$mat@$02$02M$0A@@glm@@XZ 0000000140018ab0 f   cinder:wrapper.obj
 0001:00017bb0       ?calcNormalMatrix@gl@cinder@@YA?AU?$mat@$02$02M$0A@@glm@@XZ 0000000140018bb0 f   cinder:wrapper.obj
 0001:00017c90       ?calcViewMatrixInverse@gl@cinder@@YA?AU?$mat@$03$03M$0A@@glm@@XZ 0000000140018c90 f   cinder:wrapper.obj
 0001:00017d20       ?calcViewportMatrix@gl@cinder@@YA?AU?$mat@$03$03M$0A@@glm@@XZ 0000000140018d20 f   cinder:wrapper.obj
 0001:00017de0       ?call@?$compute_inverse@$03$03M$0A@$0A@@detail@glm@@SA?AU?$mat@$03$03M$0A@@3@AEBU43@@Z 0000000140018de0 f i cinder:wrapper.obj
 0001:000183d0       ?clear@gl@cinder@@YAXAEBV?$ColorAT@M@2@_N@Z 00000001400193d0 f   cinder:wrapper.obj
 0001:00018430       ?color@gl@cinder@@YAXAEBV?$ColorT@M@2@@Z 0000000140019430 f   cinder:wrapper.obj
 0001:00018480       ?context@gl@cinder@@YAPEAVContext@12@XZ 0000000140019480 f   cinder:wrapper.obj
 0001:00018490       ?deallocate@?$allocator@UUniform@GlslProg@gl@cinder@@@std@@QEAAXQEAUUniform@GlslProg@gl@cinder@@_K@Z 0000000140019490 f i cinder:GlslProg.obj
 0001:00018490       ?deallocate@?$allocator@U?$mat@$03$03M$0A@@glm@@@std@@QEAAXQEAU?$mat@$03$03M$0A@@glm@@_K@Z 0000000140019490 f i cinder:wrapper.obj
 0001:000184e0       ?enableVertexAttribArray@gl@cinder@@YAXI@Z 00000001400194e0 f   cinder:wrapper.obj
 0001:00018500       ?end@gl@cinder@@YAXXZ      0000000140019500 f   cinder:wrapper.obj
 0001:000185d0       ?getModelMatrix@gl@cinder@@YA?AU?$mat@$03$03M$0A@@glm@@XZ 00000001400195d0 f   cinder:wrapper.obj
 0001:00018640       ?getModelView@gl@cinder@@YA?AU?$mat@$03$03M$0A@@glm@@XZ 0000000140019640 f   cinder:wrapper.obj
 0001:00018680       ?getModelViewProjection@gl@cinder@@YA?AU?$mat@$03$03M$0A@@glm@@XZ 0000000140019680 f   cinder:wrapper.obj
 0001:00018700       ?getProjectionMatrix@gl@cinder@@YA?AU?$mat@$03$03M$0A@@glm@@XZ 0000000140019700 f   cinder:wrapper.obj
 0001:00018770       ?getStockShader@gl@cinder@@YAAEAV?$shared_ptr@VGlslProg@gl@cinder@@@std@@AEBVShaderDef@12@@Z 0000000140019770 f   cinder:wrapper.obj
 0001:00018790       ?getVersion@gl@cinder@@YA?AU?$pair@HH@std@@XZ 0000000140019790 f   cinder:wrapper.obj
 0001:000188d0       ?getViewMatrix@gl@cinder@@YA?AU?$mat@$03$03M$0A@@glm@@XZ 00000001400198d0 f   cinder:wrapper.obj
 0001:00018940       ?isExtensionAvailable@gl@cinder@@YA_NAEBV?$basic_string@DU?$char_traits@D@std@@V?$allocator@D@2@@std@@@Z 0000000140019940 f   cinder:wrapper.obj
 0001:00018970       ?setMatricesWindow@gl@cinder@@YAXHH_N@Z 0000000140019970 f   cinder:wrapper.obj
 0001:00018aa0       ?toGeomPrimitive@gl@cinder@@YA?AW4Primitive@geom@2@I@Z 0000000140019aa0 f   cinder:wrapper.obj
 0001:00018ae0       ?vertexAttrib4f@gl@cinder@@YAXIMMMM@Z 0000000140019ae0 f   cinder:wrapper.obj
 0001:00018b50       ?vertexAttribPointer@gl@cinder@@YAXIHIEHPEBX@Z 0000000140019b50 f   cinder:wrapper.obj
 0001:00018bc0       ?viewport@gl@cinder@@YAXU?$pair@U?$vec@$01H$0A@@glm@@U12@@std@@@Z 0000000140019bc0 f   cinder:wrapper.obj
 0001:00018be0       ??0Timer@cinder@@QEAA@_N@Z 0000000140019be0 f   cinder:Timer.obj
 0001:00018c70       ?getSeconds@Timer@cinder@@QEBANXZ 0000000140019c70 f   cinder:Timer.obj
 0001:00018cd0       ??3@YAXPEAX@Z              0000000140019cd0 f   LIBCMT:delete_scalar.obj
 0001:00018ce0       ??0?$shared_ptr@VVbo@gl@cinder@@@std@@QEAA@XZ 0000000140019ce0 f i cinder:Context.cpp.obj
 0001:00018ce0       ??0?$ImVector@PEAUImDrawList@@@@QEAA@XZ 0000000140019ce0 f i cinder:imgui.obj
 0001:00018cf0       ??0ImGuiContext@@QEAA@PEAUImFontAtlas@@@Z 0000000140019cf0 f i cinder:imgui.obj
 0001:00019760       ??0ImGuiIO@@QEAA@XZ        000000014001a760 f   cinder:imgui.obj
 0001:00019b00       ??0ImGuiStyle@@QEAA@XZ     000000014001ab00 f   cinder:imgui.obj
 0001:00019c70       ??0ImGuiWindow@@QEAA@PEAUImGuiContext@@PEBD@Z 000000014001ac70 f   cinder:imgui.obj
 0001:0001a1b0       ??0ImGuiWindowTempData@@QEAA@XZ 000000014001b1b0 f i cinder:imgui.obj
 0001:0001a310       ??1ImGuiTextBuffer@@QEAA@XZ 000000014001b310 f i cinder:imgui.obj
 0001:0001a310       ??1?$ImChunkStream@UImGuiWindowSettings@@@@QEAA@XZ 000000014001b310 f i cinder:imgui.obj
 0001:0001a310       ??1ImGuiStorage@@QEAA@XZ   000000014001b310 f i cinder:imgui.obj
 0001:0001a350       ??1?$ImPool@UImGuiTabBar@@@@QEAA@XZ 000000014001b350 f i cinder:imgui.obj
 0001:0001a3c0       ??1?$ImVector@UImGuiColumns@@@@QEAA@XZ 000000014001b3c0 f i cinder:imgui.obj
 0001:0001a3c0       ??1?$ImVector@UImGuiPopupData@@@@QEAA@XZ 000000014001b3c0 f i cinder:imgui.obj
 0001:0001a3c0       ??1?$ImVector@PEAUImGuiWindow@@@@QEAA@XZ 000000014001b3c0 f i cinder:imgui.obj
 0001:0001a3c0       ??1?$ImVector@PEAUImDrawList@@@@QEAA@XZ 000000014001b3c0 f i cinder:imgui.obj
 0001:0001a3c0       ??1?$ImVector@D@@QEAA@XZ   000000014001b3c0 f i cinder:imgui.obj
 0001:0001a3c0       ??1?$ImVector@UImGuiShrinkWidthItem@@@@QEAA@XZ 000000014001b3c0 f i cinder:imgui.obj
 0001:0001a3c0       ??1?$ImVector@E@@QEAA@XZ   000000014001b3c0 f i cinder:imgui.obj
 0001:0001a3c0       ??1?$ImVector@UImGuiStyleMod@@@@QEAA@XZ 000000014001b3c0 f i cinder:imgui.obj
 0001:0001a3c0       ??1?$ImVector@UImGuiColorMod@@@@QEAA@XZ 000000014001b3c0 f i cinder:imgui.obj
 0001:0001a3c0       ??1?$ImVector@I@@QEAA@XZ   000000014001b3c0 f i cinder:imgui.obj
 0001:0001a3c0       ??1?$ImVector@PEAUImFont@@@@QEAA@XZ 000000014001b3c0 f i cinder:imgui.obj
 0001:0001a3c0       ??1?$ImVector@G@@QEAA@XZ   000000014001b3c0 f i cinder:imgui.obj
 0001:0001a3c0       ??1?$ImVector@UImGuiSettingsHandler@@@@QEAA@XZ 000000014001b3c0 f i cinder:imgui.obj
 0001:0001a3c0       ??1?$ImVector@UImGuiPtrOrIndex@@@@QEAA@XZ 000000014001b3c0 f i cinder:imgui.obj
 0001:0001a400       ??1ImDrawData@@QEAA@XZ     000000014001b400 f i cinder:imgui.obj
 0001:0001a420       ??1ImDrawDataBuilder@@QEAA@XZ 000000014001b420 f i cinder:imgui.obj
 0001:0001a440       ??1ImDrawList@@QEAA@XZ     000000014001b440 f i cinder:imgui.obj
 0001:0001a590       ??1ImGuiContext@@QEAA@XZ   000000014001b590 f i cinder:imgui.obj
 0001:0001a9a0       ??1ImGuiIO@@QEAA@XZ        000000014001b9a0 f i cinder:imgui.obj
 0001:0001a9e0       ??1ImGuiInputTextState@@QEAA@XZ 000000014001b9e0 f i cinder:imgui.obj
 0001:0001aa70       ??1ImGuiWindow@@QEAA@XZ    000000014001ba70 f   cinder:imgui.obj
 0001:0001ac00       ??1ImGuiWindowTempData@@QEAA@XZ 000000014001bc00 f i cinder:imgui.obj
 0001:0001ad60       ?AddInputCharacter@ImGuiIO@@QEAAXI@Z 000000014001bd60 f   cinder:imgui.obj
 0001:0001afc0       ?Begin@ImGui@@YA_NPEBDPEA_NH@Z 000000014001bfc0 f   cinder:imgui.obj
 0001:0001d150       ?BeginChildEx@ImGui@@YA_NPEBDIAEBUImVec2@@_NH@Z 000000014001e150 f   cinder:imgui.obj
 0001:0001d390       ?BeginChildFrame@ImGui@@YA_NIAEBUImVec2@@H@Z 000000014001e390 f   cinder:imgui.obj
 0001:0001d5d0       ?BeginGroup@ImGui@@YAXXZ   000000014001e5d0 f   cinder:imgui.obj
 0001:0001d6f0       ?BeginPopupEx@ImGui@@YA_NIH@Z 000000014001e6f0 f   cinder:imgui.obj
 0001:0001d7b0       ?BeginTooltipEx@ImGui@@YAXHH@Z 000000014001e7b0 f   cinder:imgui.obj
 0001:0001d980       ?CalcFontSize@ImGuiWindow@@QEBAMXZ 000000014001e980 f i cinder:imgui.obj
 0001:0001d9b0       ?CalcItemSize@ImGui@@YA?AUImVec2@@U2@MM@Z 000000014001e9b0 f   cinder:imgui.obj
 0001:0001daa0       ?CalcItemWidth@ImGui@@YAMXZ 000000014001eaa0 f   cinder:imgui.obj
 0001:0001de60       ?CalcTextSize@ImGui@@YA?AUImVec2@@PEBD0_NM@Z 000000014001ee60 f   cinder:imgui.obj
 0001:0001df40       ?CalcTypematicRepeatAmount@ImGui@@YAHMMMM@Z 000000014001ef40 f   cinder:imgui.obj
 0001:0001e5a0       ?CalcWrapWidthForPos@ImGui@@YAMAEBUImVec2@@M@Z 000000014001f5a0 f   cinder:imgui.obj
 0001:0001e650       ?Clear@?$ImPool@UImGuiTabBar@@@@QEAAXXZ 000000014001f650 f i cinder:imgui.obj
 0001:0001e780       ?ClearActiveID@ImGui@@YAXXZ 000000014001f780 f   cinder:imgui.obj
 0001:0001e7e0       ?ClearDragDrop@ImGui@@YAXXZ 000000014001f7e0 f   cinder:imgui.obj
 0001:0001e8b0       ?ClipWithFull@ImRect@@QEAAXAEBU1@@Z 000000014001f8b0 f i cinder:imgui.obj
 0001:0001e930       ?CloseCurrentPopup@ImGui@@YAXXZ 000000014001f930 f   cinder:imgui.obj
 0001:0001e9f0       ?ClosePopupToLevel@ImGui@@YAXH_N@Z 000000014001f9f0 f   cinder:imgui.obj
 0001:0001ead0       ?ClosePopupsOverWindow@ImGui@@YAXPEAUImGuiWindow@@_N@Z 000000014001fad0 f   cinder:imgui.obj
 0001:0001ebb0       ?ColorConvertFloat4ToU32@ImGui@@YAIAEBUImVec4@@@Z 000000014001fbb0 f   cinder:imgui.obj
 0001:0001ec60       ?Contains@ImRect@@QEBA_NAEBUImVec2@@@Z 000000014001fc60 f i cinder:imgui.obj
 0001:0001ec90       ?CreateContext@ImGui@@YAPEAUImGuiContext@@PEAUImFontAtlas@@@Z 000000014001fc90 f   cinder:imgui.obj
 0001:0001f030       ?CreateNewWindowSettings@ImGui@@YAPEAUImGuiWindowSettings@@PEBD@Z 0000000140020030 f   cinder:imgui.obj
 0001:0001f130       ?DebugCheckVersionAndDataLayout@ImGui@@YA_NPEBD_K11111@Z 0000000140020130 f   cinder:imgui.obj
 0001:0001f1c0       ?DestroyContext@ImGui@@YAXPEAUImGuiContext@@@Z 00000001400201c0 f   cinder:imgui.obj
 0001:0001f230       ?End@ImGui@@YAXXZ          0000000140020230 f   cinder:imgui.obj
 0001:0001f480       ?EndChild@ImGui@@YAXXZ     0000000140020480 f   cinder:imgui.obj
 0001:0001f6f0       ?EndChildFrame@ImGui@@YAXXZ 00000001400206f0 f   cinder:imgui.obj
 0001:0001f700       ?EndFrame@ImGui@@YAXXZ     0000000140020700 f   cinder:imgui.obj
 0001:0001f9e0       ?EndGroup@ImGui@@YAXXZ     00000001400209e0 f   cinder:imgui.obj
 0001:0001fce0       ?EndPopup@ImGui@@YAXXZ     0000000140020ce0 f   cinder:imgui.obj
 0001:0001fd30       ?FindBestWindowPosForPopup@ImGui@@YA?AUImVec2@@PEAUImGuiWindow@@@Z 0000000140020d30 f   cinder:imgui.obj
 0001:00020090       ?FindBestWindowPosForPopupEx@ImGui@@YA?AUImVec2@@AEBU2@0PEAHAEBUImRect@@2W4ImGuiPopupPositionPolicy@@@Z 0000000140021090 f   cinder:imgui.obj
 0001:000203d0       ?FindWindowByID@ImGui@@YAPEAUImGuiWindow@@I@Z 00000001400213d0 f   cinder:imgui.obj
 0001:000204f0       ?FocusTopMostWindowUnderOne@ImGui@@YAXPEAUImGuiWindow@@0@Z 00000001400214f0 f   cinder:imgui.obj
 0001:000205b0       ?FocusWindow@ImGui@@YAXPEAUImGuiWindow@@@Z 00000001400215b0 f   cinder:imgui.obj
 0001:000207a0       ?FocusableItemRegister@ImGui@@YA_NPEAUImGuiWindow@@I@Z 00000001400217a0 f   cinder:imgui.obj
 0001:00020880       ?FocusableItemUnregister@ImGui@@YAXPEAUImGuiWindow@@@Z 0000000140021880 f   cinder:imgui.obj
 0001:00020890       ?GcCompactTransientWindowBuffers@ImGui@@YAXPEAUImGuiWindow@@@Z 0000000140021890 f   cinder:imgui.obj
 0001:00020a30       ?GetClipboardText@ImGui@@YAPEBDXZ 0000000140021a30 f   cinder:imgui.obj
 0001:00020bb0       ?GetColorU32@ImGui@@YAIHM@Z 0000000140021bb0 f   cinder:imgui.obj
 0001:00020c00       ?GetContentRegionAvail@ImGui@@YA?AUImVec2@@XZ 0000000140021c00 f   cinder:imgui.obj
 0001:00020c50       ?GetContentRegionMaxAbs@ImGui@@YA?AUImVec2@@XZ 0000000140021c50 f   cinder:imgui.obj
 0001:00020c80       ?GetDrawData@ImGui@@YAPEAUImDrawData@@XZ 0000000140021c80 f   cinder:imgui.obj
 0001:00020ca0       ?GetFrameHeight@ImGui@@YAMXZ 0000000140021ca0 f   cinder:imgui.obj
 0001:00020cc0       ?GetID@ImGui@@YAIPEBD@Z    0000000140021cc0 f   cinder:imgui.obj
 0001:00020d20       ?GetID@ImGuiWindow@@QEAAIH@Z 0000000140021d20 f   cinder:imgui.obj
 0001:00020dc0       ?GetID@ImGuiWindow@@QEAAIPEBD0@Z 0000000140021dc0 f   cinder:imgui.obj
 0001:00020e20       ?GetIDNoKeepAlive@ImGuiWindow@@QEAAIPEBD0@Z 0000000140021e20 f   cinder:imgui.obj
 0001:00020e50       ?GetIO@ImGui@@YAAEAUImGuiIO@@XZ 0000000140021e50 f   cinder:imgui.obj
 0001:00020e60       ?GetNavInputAmount2d@ImGui@@YA?AUImVec2@@HW4ImGuiInputReadMode@@MM@Z 0000000140021e60 f   cinder:imgui.obj
 0001:000210a0       ?GetNavInputAmount@ImGui@@YAMHW4ImGuiInputReadMode@@@Z 00000001400220a0 f   cinder:imgui.obj
 0001:00021300       ?GetScrollMaxY@ImGui@@YAMXZ 0000000140022300 f   cinder:imgui.obj
 0001:00021320       ?GetStyle@ImGui@@YAAEAUImGuiStyle@@XZ 0000000140022320 f   cinder:imgui.obj
 0001:00021330       ?GetTextLineHeight@ImGui@@YAMXZ 0000000140022330 f   cinder:imgui.obj
 0001:00021340       ?GetTextLineHeightWithSpacing@ImGui@@YAMXZ 0000000140022340 f   cinder:imgui.obj
 0001:00021360       ?GetTopMostPopupModal@ImGui@@YAPEAUImGuiWindow@@XZ 0000000140022360 f   cinder:imgui.obj
 0001:000213c0       ?ImFileOpen@@YAPEAU_iobuf@@PEBD0@Z 00000001400223c0 f   cinder:imgui.obj
 0001:00021510       ?ImFormatString@@YAHPEAD_KPEBDZZ 0000000140022510 f   cinder:imgui.obj
 0001:00021590       ?ImFormatStringV@@YAHPEAD_KPEBD0@Z 0000000140022590 f   cinder:imgui.obj
 0001:00021620       ?ImHashStr@@YAIPEBD_KI@Z   0000000140022620 f   cinder:imgui.obj
 0001:000216d0       ?ImStrTrimBlanks@@YAXPEAD@Z 00000001400226d0 f   cinder:imgui.obj
 0001:00021760       ?ImStrbolW@@YAPEBGPEBG0@Z  0000000140022760 f   cinder:imgui.obj
 0001:00021780       ?ImStrncpy@@YAXPEADPEBD_K@Z 0000000140022780 f   cinder:imgui.obj
 0001:000217b0       ?ImTextCharFromUtf8@@YAHPEAIPEBD1@Z 00000001400227b0 f   cinder:imgui.obj
 0001:000219a0       ?ImTextCountCharsFromUtf8@@YAHPEBD0@Z 00000001400229a0 f   cinder:imgui.obj
 0001:00021c20       ?ImTextCountUtf8BytesFromStr@@YAHPEBG0@Z 0000000140022c20 f   cinder:imgui.obj
 0001:00021c70       ?ImTextStrFromUtf8@@YAHPEAGHPEBD1PEAPEBD@Z 0000000140022c70 f   cinder:imgui.obj
 0001:00021f30       ?ImTextStrToUtf8@@YAHPEADHPEBG1@Z 0000000140022f30 f   cinder:imgui.obj
 0001:00022000       ?ImTriangleContainsPoint@@YA_NAEBUImVec2@@000@Z 0000000140023000 f   cinder:imgui.obj
 0001:00022180       ?Initialize@ImGui@@YAXPEAUImGuiContext@@@Z 0000000140023180 f   cinder:imgui.obj
 0001:00022370       ?IsClippedEx@ImGui@@YA_NAEBUImRect@@I_N@Z 0000000140023370 f   cinder:imgui.obj
 0001:000223f0       ?IsItemActive@ImGui@@YA_NXZ 00000001400233f0 f   cinder:imgui.obj
 0001:00022420       ?IsItemHovered@ImGui@@YA_NH@Z 0000000140023420 f   cinder:imgui.obj
 0001:00022510       ?IsKeyPressed@ImGui@@YA_NH_N@Z 0000000140023510 f   cinder:imgui.obj
 0001:000225d0       ?IsMouseClicked@ImGui@@YA_NH_N@Z 00000001400235d0 f   cinder:imgui.obj
 0001:00022640       ?IsMouseDragging@ImGui@@YA_NHM@Z 0000000140023640 f   cinder:imgui.obj
 0001:00022680       ?IsMouseHoveringRect@ImGui@@YA_NAEBUImVec2@@0_N@Z 0000000140023680 f   cinder:imgui.obj
 0001:00022750       ?IsMousePosValid@ImGui@@YA_NPEBUImVec2@@@Z 0000000140023750 f   cinder:imgui.obj
 0001:00022790       ?IsPopupOpen@ImGui@@YA_NIH@Z 0000000140023790 f   cinder:imgui.obj
 0001:00022810       ?IsRectVisible@ImGui@@YA_NAEBUImVec2@@0@Z 0000000140023810 f   cinder:imgui.obj
 0001:00022890       ?ItemAdd@ImGui@@YA_NAEBUImRect@@IPEBU2@@Z 0000000140023890 f   cinder:imgui.obj
 0001:000229d0       ?ItemHoverable@ImGui@@YA_NAEBUImRect@@I@Z 00000001400239d0 f   cinder:imgui.obj
 0001:00022b50       ?ItemSize@ImGui@@YAXAEBUImRect@@M@Z 0000000140023b50 f   cinder:imgui.obj
 0001:00022b90       ?ItemSize@ImGui@@YAXAEBUImVec2@@M@Z 0000000140023b90 f   cinder:imgui.obj
 0001:00022ce0       ?KeepAliveID@ImGui@@YAXI@Z 0000000140023ce0 f   cinder:imgui.obj
 0001:00022d10       ?LoadIniSettingsFromMemory@ImGui@@YAXPEBD_K@Z 0000000140023d10 f   cinder:imgui.obj
 0001:00023080       ?LogRenderedText@ImGui@@YAXPEBUImVec2@@PEBD1@Z 0000000140024080 f   cinder:imgui.obj
 0001:00023220       ?LogText@ImGui@@YAXPEBDZZ  0000000140024220 f   cinder:imgui.obj
 0001:00023310       ?MarkItemEdited@ImGui@@YAXI@Z 0000000140024310 f   cinder:imgui.obj
 0001:00023330       ?MemAlloc@ImGui@@YAPEAX_K@Z 0000000140024330 f   cinder:imgui.obj
 0001:00023350       ?MemFree@ImGui@@YAXPEAX@Z  0000000140024350 f   cinder:imgui.obj
 0001:000237b0       ?NavInitWindow@ImGui@@YAXPEAUImGuiWindow@@_N@Z 00000001400247b0 f   cinder:imgui.obj
 0001:00023860       ?NavMoveRequestButNoResultYet@ImGui@@YA_NXZ 0000000140024860 f   cinder:imgui.obj
 0001:00023890       ?NavMoveRequestCancel@ImGui@@YAXXZ 0000000140024890 f   cinder:imgui.obj
 0001:000238d0       ?NavMoveRequestForward@ImGui@@YAXHHAEBUImRect@@H@Z 00000001400248d0 f   cinder:imgui.obj
 0001:000267b0       ?NewFrame@ImGui@@YAXXZ     00000001400277b0 f   cinder:imgui.obj
 0001:00027660       ?OpenPopup@ImGui@@YAXPEBDH@Z 0000000140028660 f   cinder:imgui.obj
 0001:000276d0       ?OpenPopupEx@ImGui@@YAXIH@Z 00000001400286d0 f   cinder:imgui.obj
 0001:000278e0       ?PopClipRect@ImGui@@YAXXZ  00000001400288e0 f   cinder:imgui.obj
 0001:00027960       ?PopFont@ImGui@@YAXXZ      0000000140028960 f   cinder:imgui.obj
 0001:000279e0       ?PopID@ImGui@@YAXXZ        00000001400289e0 f   cinder:imgui.obj
 0001:00027a00       ?PopItemWidth@ImGui@@YAXXZ 0000000140028a00 f   cinder:imgui.obj
 0001:00027a60       ?PopStyleColor@ImGui@@YAXH@Z 0000000140028a60 f   cinder:imgui.obj
 0001:00027ab0       ?PopStyleVar@ImGui@@YAXH@Z 0000000140028ab0 f   cinder:imgui.obj
 0001:00027d10       ?PushClipRect@ImGui@@YAXAEBUImVec2@@0_N@Z 0000000140028d10 f   cinder:imgui.obj
 0001:00027da0       ?PushFont@ImGui@@YAXPEAUImFont@@@Z 0000000140028da0 f   cinder:imgui.obj
 0001:00027ef0       ?PushID@ImGui@@YAXPEBD@Z   0000000140028ef0 f   cinder:imgui.obj
 0001:00027f90       ?PushID@ImGui@@YAXPEBX@Z   0000000140028f90 f   cinder:imgui.obj
 0001:000280d0       ?PushStyleColor@ImGui@@YAXHAEBUImVec4@@@Z 00000001400290d0 f   cinder:imgui.obj
 0001:00028130       ?PushStyleVar@ImGui@@YAXHAEBUImVec2@@@Z 0000000140029130 f   cinder:imgui.obj
 0001:000281c0       ?PushStyleVar@ImGui@@YAXHM@Z 00000001400291c0 f   cinder:imgui.obj
 0001:00028240       ?Render@ImGui@@YAXXZ       0000000140029240 f   cinder:imgui.obj
 0001:000286d0       ?RenderFrame@ImGui@@YAXUImVec2@@0I_NM@Z 00000001400296d0 f   cinder:imgui.obj
 0001:00028880       ?RenderNavHighlight@ImGui@@YAXAEBUImRect@@IH@Z 0000000140029880 f   cinder:imgui.obj
 0001:00028b20       ?RenderText@ImGui@@YAXUImVec2@@PEBD1_N@Z 0000000140029b20 f   cinder:imgui.obj
 0001:00028c40       ?RenderTextClipped@ImGui@@YAXAEBUImVec2@@0PEBD1PEBU2@0PEBUImRect@@@Z 0000000140029c40 f   cinder:imgui.obj
 0001:00028d10       ?RenderTextClippedEx@ImGui@@YAXPEAUImDrawList@@AEBUImVec2@@1PEBD2PEBU3@1PEBUImRect@@@Z 0000000140029d10 f   cinder:imgui.obj
 0001:00028f90       ?RenderTextWrapped@ImGui@@YAXUImVec2@@PEBD1M@Z 0000000140029f90 f   cinder:imgui.obj
 0001:0002a600       ?SameLine@ImGui@@YAXMM@Z   000000014002b600 f   cinder:imgui.obj
 0001:0002a6c0       ?SaveIniSettingsToDisk@ImGui@@YAXPEBD@Z 000000014002b6c0 f   cinder:imgui.obj
 0001:0002a810       ?ScrollToBringRectIntoView@ImGui@@YA?AUImVec2@@PEAUImGuiWindow@@AEBUImRect@@@Z 000000014002b810 f   cinder:imgui.obj
 0001:0002aa00       ?SetActiveID@ImGui@@YAXIPEAUImGuiWindow@@@Z 000000014002ba00 f   cinder:imgui.obj
 0001:0002aad0       ?SetClipboardText@ImGui@@YAXPEBD@Z 000000014002bad0 f   cinder:imgui.obj
 0001:0002abd0       ?SetCurrentFont@ImGui@@YAXPEAUImFont@@@Z 000000014002bbd0 f   cinder:imgui.obj
 0001:0002ac70       ?SetFocusID@ImGui@@YAXIPEAUImGuiWindow@@@Z 000000014002bc70 f   cinder:imgui.obj
 0001:0002ad50       ?SetHoveredID@ImGui@@YAXI@Z 000000014002bd50 f   cinder:imgui.obj
 0001:0002ad80       ?SetItemAllowOverlap@ImGui@@YAXXZ 000000014002bd80 f   cinder:imgui.obj
 0001:0002adc0       ?SetItemDefaultFocus@ImGui@@YAXXZ 000000014002bdc0 f   cinder:imgui.obj
 0001:0002af50       ?SetNavID@ImGui@@YAXIHI@Z  000000014002bf50 f   cinder:imgui.obj
 0001:0002af80       ?SetNextWindowPos@ImGui@@YAXAEBUImVec2@@H0@Z 000000014002bf80 f   cinder:imgui.obj
 0001:0002afc0       ?SetNextWindowSize@ImGui@@YAXAEBUImVec2@@H@Z 000000014002bfc0 f   cinder:imgui.obj
 0001:0002aff0       ?SetScrollFromPosY@ImGui@@YAXPEAUImGuiWindow@@MM@Z 000000014002bff0 f   cinder:imgui.obj
 0001:0002b0b0       ?SetScrollY@ImGui@@YAXPEAUImGuiWindow@@M@Z 000000014002c0b0 f   cinder:imgui.obj
 0001:0002b0c0       ?SetTooltip@ImGui@@YAXPEBDZZ 000000014002c0c0 f   cinder:imgui.obj
 0001:0002b110       ?SetWindowPos@ImGui@@YAXPEAUImGuiWindow@@AEBUImVec2@@H@Z 000000014002c110 f   cinder:imgui.obj
 0001:0002b1e0       ?SetWindowSize@ImGui@@YAXPEAUImGuiWindow@@AEBUImVec2@@H@Z 000000014002c1e0 f   cinder:imgui.obj
 0001:0002b260       ?Shutdown@ImGui@@YAXPEAUImGuiContext@@@Z 000000014002c260 f   cinder:imgui.obj
 0001:0002b910       ?StartMouseMovingWindow@ImGui@@YAXPEAUImGuiWindow@@@Z 000000014002c910 f   cinder:imgui.obj
 0001:0002b9a0       ?TitleBarRect@ImGuiWindow@@QEBA?AUImRect@@XZ 000000014002c9a0 f i cinder:imgui.obj
 0001:0002ba10       ?UpdateHoveredWindowAndCaptureFlags@ImGui@@YAXXZ 000000014002ca10 f   cinder:imgui.obj
 0001:0002c280       ?UpdateMouseMovingWindowEndFrame@ImGui@@YAXXZ 000000014002d280 f   cinder:imgui.obj
 0001:0002dae0       ?appendf@ImGuiTextBuffer@@QEAAXPEBDZZ 000000014002eae0 f   cinder:imgui.obj
 0001:0002db10       ?appendfv@ImGuiTextBuffer@@QEAAXPEBDPEAD@Z 000000014002eb10 f   cinder:imgui.obj
 0001:0002dc40       ?insert@?$ImVector@UImGuiStoragePair@ImGuiStorage@@@@QEAAPEAUImGuiStoragePair@ImGuiStorage@@PEBU23@AEBU23@@Z 000000014002ec40 f i cinder:imgui.obj
 0001:0002dd60       ?push_back@?$ImVector@H@@QEAAXAEBH@Z 000000014002ed60 f i cinder:imgui.obj
 0001:0002ddc0       ?push_back@?$ImVector@UImGuiColorMod@@@@QEAAXAEBUImGuiColorMod@@@Z 000000014002edc0 f i cinder:imgui.obj
 0001:0002dec0       ?push_back@?$ImVector@UImGuiPopupData@@@@QEAAXAEBUImGuiPopupData@@@Z 000000014002eec0 f i cinder:imgui.obj
 0001:0002df40       ?push_back@?$ImVector@UImGuiStyleMod@@@@QEAAXAEBUImGuiStyleMod@@@Z 000000014002ef40 f i cinder:imgui.obj
 0001:0002e040       ?reserve@?$ImVector@D@@QEAAXH@Z 000000014002f040 f i cinder:imgui.obj
 0001:0002e0e0       ?reserve@?$ImVector@G@@QEAAXH@Z 000000014002f0e0 f i cinder:imgui.obj
 0001:0002e180       ?reserve@?$ImVector@I@@QEAAXH@Z 000000014002f180 f i cinder:imgui.obj
 0001:0002e180       ?reserve@?$ImVector@M@@QEAAXH@Z 000000014002f180 f i cinder:imgui.obj
 0001:0002e180       ?reserve@?$ImVector@H@@QEAAXH@Z 000000014002f180 f i cinder:imgui.obj
 0001:0002e220       ?reserve@?$ImVector@PEAUImGuiWindow@@@@QEAAXH@Z 000000014002f220 f i cinder:imgui.obj
 0001:0002e220       ?reserve@?$ImVector@PEAUImDrawList@@@@QEAAXH@Z 000000014002f220 f i cinder:imgui.obj
 0001:0002e2c0       ?reserve@?$ImVector@UImGuiPopupData@@@@QEAAXH@Z 000000014002f2c0 f i cinder:imgui.obj
 0001:0002e360       ?resize@?$ImVector@D@@QEAAXH@Z 000000014002f360 f i cinder:imgui.obj
 0001:0002e3b0       ?resize@?$ImVector@UImGuiGroupData@@@@QEAAXH@Z 000000014002f3b0 f i cinder:imgui.obj
 0001:0002e4a0       __local_stdio_printf_options 000000014002f4a0 f i cinder:imgui.obj
 0001:0002e4b0       __local_stdio_scanf_options 000000014002f4b0 f i cinder:imgui.obj
 0001:0002e4c0       sscanf                     000000014002f4c0 f i cinder:imgui.obj
 0001:0002e520       ??$DragBehaviorT@HHM@ImGui@@YA_NHPEAHMHHPEBDMH@Z 000000014002f520 f i cinder:imgui_widgets.obj
 0001:0002e950       ??$DragBehaviorT@IHM@ImGui@@YA_NHPEAIMIIPEBDMH@Z 000000014002f950 f i cinder:imgui_widgets.obj
 0001:0002ed90       ??$DragBehaviorT@MMM@ImGui@@YA_NHPEAMMMMPEBDMH@Z 000000014002fd90 f i cinder:imgui_widgets.obj
 0001:0002f1f0       ??$DragBehaviorT@NNN@ImGui@@YA_NHPEANMNNPEBDMH@Z 00000001400301f0 f i cinder:imgui_widgets.obj
 0001:0002f690       ??$DragBehaviorT@_J_JN@ImGui@@YA_NHPEA_JM_J1PEBDMH@Z 0000000140030690 f i cinder:imgui_widgets.obj
 0001:0002fb30       ??$DragBehaviorT@_K_JN@ImGui@@YA_NHPEA_KM_K1PEBDMH@Z 0000000140030b30 f i cinder:imgui_widgets.obj
 0001:00030180       ??$RoundScalarWithFormatT@HH@ImGui@@YAHPEBDHH@Z 0000000140031180 f i cinder:imgui_widgets.obj
 0001:00030250       ??$RoundScalarWithFormatT@IH@ImGui@@YAIPEBDHI@Z 0000000140031250 f i cinder:imgui_widgets.obj
 0001:00030320       ??$RoundScalarWithFormatT@MM@ImGui@@YAMPEBDHM@Z 0000000140031320 f i cinder:imgui_widgets.obj
 0001:00030480       ??$RoundScalarWithFormatT@NN@ImGui@@YANPEBDHN@Z 0000000140031480 f i cinder:imgui_widgets.obj
 0001:000305d0       ??$RoundScalarWithFormatT@_J_J@ImGui@@YA_JPEBDH_J@Z 00000001400315d0 f i cinder:imgui_widgets.obj
 0001:000306a0       ??$RoundScalarWithFormatT@_K_J@ImGui@@YA_KPEBDH_K@Z 00000001400316a0 f i cinder:imgui_widgets.obj
 0001:000307a0       ??0ImGuiMenuColumns@@QEAA@XZ 00000001400317a0 f   cinder:imgui_widgets.obj
 0001:000307c0       ?BeginMenu@ImGui@@YA_NPEBD_N@Z 00000001400317c0 f   cinder:imgui_widgets.obj
 0001:00030fb0       ?ButtonBehavior@ImGui@@YA_NAEBUImRect@@IPEA_N1H@Z 0000000140031fb0 f   cinder:imgui_widgets.obj
 0001:000314f0       ?Checkbox@ImGui@@YA_NPEBDPEA_N@Z 00000001400324f0 f   cinder:imgui_widgets.obj
 0001:000318c0       ?CloseButton@ImGui@@YA_NIAEBUImVec2@@@Z 00000001400328c0 f   cinder:imgui_widgets.obj
 0001:00031b10       ?CollapseButton@ImGui@@YA_NIAEBUImVec2@@@Z 0000000140032b10 f   cinder:imgui_widgets.obj
 0001:00031d10       ?DataTypeApplyOpFromText@ImGui@@YA_NPEBD0HPEAX0@Z 0000000140032d10 f   cinder:imgui_widgets.obj
 0001:00032150       ?DataTypeClamp@ImGui@@YA_NHPEAXPEBX1@Z 0000000140033150 f   cinder:imgui_widgets.obj
 0001:000322f0       ?DataTypeFormatString@ImGui@@YAHPEADHHPEBXPEBD@Z 00000001400332f0 f   cinder:imgui_widgets.obj
 0001:000323d0       ?DeclColumns@ImGuiMenuColumns@@QEAAMMMM@Z 00000001400333d0 f   cinder:imgui_widgets.obj
 0001:00032440       ?DragBehavior@ImGui@@YA_NIHPEAXMPEBX1PEBDMH@Z 0000000140033440 f   cinder:imgui_widgets.obj
 0001:000329e0       ?DragFloat@ImGui@@YA_NPEBDPEAMMMM0M@Z 00000001400339e0 f   cinder:imgui_widgets.obj
 0001:00032a30       ?DragScalar@ImGui@@YA_NPEBDHPEAXMPEBX20M@Z 0000000140033a30 f   cinder:imgui_widgets.obj
 0001:00032e80       ?EndColumns@ImGui@@YAXXZ   0000000140033e80 f   cinder:imgui_widgets.obj
 0001:00033330       ?EndMenu@ImGui@@YAXXZ      0000000140034330 f   cinder:imgui_widgets.obj
 0001:000333a0       ?ImParseFormatFindEnd@@YAPEBDPEBD@Z 00000001400343a0 f   cinder:imgui_widgets.obj
 0001:00033400       ?ImParseFormatPrecision@@YAHPEBDH@Z 0000000140034400 f   cinder:imgui_widgets.obj
 0001:00033520       ?InputTextEx@ImGui@@YA_NPEBD0PEADHAEBUImVec2@@HP6AHPEAUImGuiInputTextCallbackData@@@ZPEAX@Z 0000000140034520 f   cinder:imgui_widgets.obj
 0001:00035ef0       ?ListBoxFooter@ImGui@@YAXXZ 0000000140036ef0 f   cinder:imgui_widgets.obj
 0001:00035f90       ?ListBoxHeader@ImGui@@YA_NPEBDHH@Z 0000000140036f90 f   cinder:imgui_widgets.obj
 0001:00036230       ?MenuBarHeight@ImGuiWindow@@QEBAMXZ 0000000140037230 f i cinder:imgui_widgets.obj
 0001:00036290       ?MenuItem@ImGui@@YA_NPEBD0PEA_N_N@Z 0000000140037290 f   cinder:imgui_widgets.obj
 0001:000362d0       ?MenuItem@ImGui@@YA_NPEBD0_N1@Z 00000001400372d0 f   cinder:imgui_widgets.obj
 0001:00036770       ?PathLineTo@ImDrawList@@QEAAXAEBUImVec2@@@Z 0000000140037770 f i cinder:imgui_widgets.obj
 0001:00036840       ?PopColumnsBackground@ImGui@@YAXXZ 0000000140037840 f   cinder:imgui_widgets.obj
 0001:00036910       ?PushColumnsBackground@ImGui@@YAXXZ 0000000140037910 f   cinder:imgui_widgets.obj
 0001:00036df0       ?Scrollbar@ImGui@@YAXW4ImGuiAxis@@@Z 0000000140037df0 f   cinder:imgui_widgets.obj
 0001:00036f80       ?ScrollbarEx@ImGui@@YA_NAEBUImRect@@IW4ImGuiAxis@@PEAMMMH@Z 0000000140037f80 f   cinder:imgui_widgets.obj
 0001:000374f0       ?Selectable@ImGui@@YA_NPEBD_NHAEBUImVec2@@@Z 00000001400384f0 f   cinder:imgui_widgets.obj
 0001:00037990       ?Separator@ImGui@@YAXXZ    0000000140038990 f   cinder:imgui_widgets.obj
 0001:000379c0       ?SeparatorEx@ImGui@@YAXH@Z 00000001400389c0 f   cinder:imgui_widgets.obj
 0001:00037c40       ?SetColumnOffset@ImGui@@YAXHM@Z 0000000140038c40 f   cinder:imgui_widgets.obj
 0001:00037d50       ?TempInputScalar@ImGui@@YA_NAEBUImRect@@IPEBDHPEAX1PEBX3@Z 0000000140038d50 f   cinder:imgui_widgets.obj
 0001:00037fa0       ?Text@ImGui@@YAXPEBDZZ     0000000140038fa0 f   cinder:imgui_widgets.obj
 0001:00037fd0       ?TextColored@ImGui@@YAXAEBUImVec4@@PEBDZZ 0000000140038fd0 f   cinder:imgui_widgets.obj
 0001:00038020       ?TextEx@ImGui@@YAXPEBD0H@Z 0000000140039020 f   cinder:imgui_widgets.obj
 0001:00038470       ?TextV@ImGui@@YAXPEBDPEAD@Z 0000000140039470 f   cinder:imgui_widgets.obj
 0001:000384f0       ?Update@ImGuiMenuColumns@@QEAAXHM_N@Z 00000001400394f0 f   cinder:imgui_widgets.obj
 0001:00038590       ?resize@?$ImVector@G@@QEAAXH@Z 0000000140039590 f i cinder:imgui_widgets.obj
 0001:00039b20       ??$_Emplace_reallocate@D@?$vector@DV?$allocator@D@std@@@std@@QEAAPEADQEAD$$QEAD@Z 000000014003ab20 f i cinder:CinderImGui.obj
 0001:00039b20       ??$_Emplace_reallocate@E@?$vector@EV?$allocator@E@std@@@std@@QEAAPEAEQEAE$$QEAE@Z 000000014003ab20 f i cinder:Context.cpp.obj
 0001:00039b20       ??$_Emplace_reallocate@AEBE@?$vector@EV?$allocator@E@std@@@std@@QEAAPEAEQEAEAEBE@Z 000000014003ab20 f i cinder:Context.cpp.obj
 0001:00039c70       ??$_Emplace_reallocate@H@?$vector@HV?$allocator@H@std@@@std@@QEAAPEAHQEAH$$QEAH@Z 000000014003ac70 f i cinder:CinderImGui.obj
 0001:00039db0       ??$_Free_non_head@V?$allocator@U?$_List_node@U?$pair@$$CBV?$shared_ptr@VWindow@app@cinder@@@std@@VConnectionList@signals@cinder@@@std@@PEAX@std@@@std@@@?$_List_node@U?$pair@$$CBV?$shared_ptr@VWindow@app@cinder@@@std@@VConnectionList@signals@cinder@@@std@@PEAX@std@@SAXAEAV?$allocator@U?$_List_node@U?$pair@$$CBV?$shared_ptr@VWindow@app@cinder@@@std@@VConnectionList@signals@cinder@@@std@@PEAX@std@@@1@PEAU01@@Z 000000014003adb0 f i cinder:CinderImGui.obj
 0001:00039e40       ??$_Freenode@V?$allocator@U?$_List_node@U?$pair@$$CBV?$shared_ptr@VWindow@app@cinder@@@std@@VConnectionList@signals@cinder@@@std@@PEAX@std@@@std@@@?$_List_node@U?$pair@$$CBV?$shared_ptr@VWindow@app@cinder@@@std@@VConnectionList@signals@cinder@@@std@@PEAX@std@@SAXAEAV?$allocator@U?$_List_node@U?$pair@$$CBV?$shared_ptr@VWindow@app@cinder@@@std@@VConnectionList@signals@cinder@@@std@@PEAX@std@@@1@PEAU01@@Z 000000014003ae40 f i cinder:CinderImGui.obj
 0001:00039eb0       ??$_Try_emplace@AEBV?$shared_ptr@VWindow@app@cinder@@@std@@$$V@?$_Hash@V?$_Umap_traits@V?$shared_ptr@VWindow@app@cinder@@@std@@VConnectionList@signals@cinder@@V?$_Uhash_compare@V?$shared_ptr@VWindow@app@cinder@@@std@@U?$hash@V?$shared_ptr@VWindow@app@cinder@@@std@@@2@U?$equal_to@V?$shared_ptr@VWindow@app@cinder@@@std@@@2@@2@V?$allocator@U?$pair@$$CBV?$shared_ptr@VWindow@app@cinder@@@std@@VConnectionList@signals@cinder@@@std@@@2@$0A@@std@@@std@@IEAA?AU?$pair@PEAU?$_List_node@U?$pair@$$CBV?$shared_ptr@VWindow@app@cinder@@@std@@VConnectionList@signals@cinder@@@std@@PEAX@std@@_N@1@AEBV?$shared_ptr@VWindow@app@cinder@@@1@@Z 000000014003aeb0 f i cinder:CinderImGui.obj
 0001:0003a1f0       ??$fill@PEAV?$_List_unchecked_iterator@V?$_List_val@U?$_List_simple_types@U?$pair@$$CBV?$shared_ptr@VWindow@app@cinder@@@std@@VConnectionList@signals@cinder@@@std@@@std@@@std@@@std@@V12@@std@@YAXQEAV?$_List_unchecked_iterator@V?$_List_val@U?$_List_simple_types@U?$pair@$$CBV?$shared_ptr@VWindow@app@cinder@@@std@@VConnectionList@signals@cinder@@@std@@@std@@@std@@@0@0AEBV10@@Z 000000014003b1f0 f i cinder:CinderImGui.obj
 0001:0003a1f0       ??$fill@PEAV?$_List_unchecked_iterator@V?$_List_val@U?$_List_simple_types@U?$pair@$$CBIV?$basic_string@DU?$char_traits@D@std@@V?$allocator@D@2@@std@@@std@@@std@@@std@@@std@@V12@@std@@YAXQEAV?$_List_unchecked_iterator@V?$_List_val@U?$_List_simple_types@U?$pair@$$CBIV?$basic_string@DU?$char_traits@D@std@@V?$allocator@D@2@@std@@@std@@@std@@@std@@@0@0AEBV10@@Z 000000014003b1f0 f i cinder:ConstantConversions.obj
 0001:0003a280       ??0Options@ImGui@@QEAA@XZ  000000014003b280 f   cinder:CinderImGui.obj
 0001:0003a620       ??0SignalLink@?$SignalProto@$$A6AXAEAVKeyEvent@app@cinder@@@ZU?$CollectorEvent@VKeyEvent@app@cinder@@@23@@detail@signals@cinder@@QEAA@AEBV?$function@$$A6AXAEAVKeyEvent@app@cinder@@@Z@std@@@Z 000000014003b620 f i cinder:CinderImGui.obj
 0001:0003a690       ??0SignalLink@?$SignalProto@$$A6AXAEAVMouseEvent@app@cinder@@@ZU?$CollectorEvent@VMouseEvent@app@cinder@@@23@@detail@signals@cinder@@QEAA@AEBV?$function@$$A6AXAEAVMouseEvent@app@cinder@@@Z@std@@@Z 000000014003b690 f i cinder:CinderImGui.obj
 0001:0003a700       ??0SignalLink@?$SignalProto@$$A6AXXZU?$CollectorDefault@X@detail@signals@cinder@@@detail@signals@cinder@@QEAA@AEBV?$function@$$A6AXXZ@std@@@Z 000000014003b700 f i cinder:CinderImGui.obj
 0001:0003a770       ??1?$_Alloc_construct_ptr@V?$allocator@U?$_Tree_node@U?$pair@$$CBEV?$map@IV?$vector@HV?$allocator@H@std@@@std@@U?$less@I@2@V?$allocator@U?$pair@$$CBIV?$vector@HV?$allocator@H@std@@@std@@@std@@@2@@std@@@std@@PEAX@std@@@std@@@std@@QEAA@XZ 000000014003b770 f i cinder:Context.cpp.obj
 0001:0003a770       ??1?$_Alloc_construct_ptr@V?$allocator@U?$_Tree_node@U?$pair@QEAXV?$shared_ptr@VTimelineItem@cinder@@@std@@@std@@PEAX@std@@@std@@@std@@QEAA@XZ 000000014003b770 f i cinder:Timeline.obj
 0001:0003a770       ??1?$_Alloc_construct_ptr@V?$allocator@U?$_List_node@U?$pair@$$CBV?$shared_ptr@VWindow@app@cinder@@@std@@VConnectionList@signals@cinder@@@std@@PEAX@std@@@std@@@std@@QEAA@XZ 000000014003b770 f i cinder:CinderImGui.obj
 0001:0003a770       ??1?$_Tree_temp_node_alloc@V?$allocator@U?$_Tree_node@U?$pair@$$CBEV?$map@IV?$vector@HV?$allocator@H@std@@@std@@U?$less@I@2@V?$allocator@U?$pair@$$CBIV?$vector@HV?$allocator@H@std@@@std@@@std@@@2@@std@@@std@@PEAX@std@@@std@@@std@@QEAA@XZ 000000014003b770 f i cinder:Context.cpp.obj
 0001:0003a770       ??1?$_Alloc_construct_ptr@V?$allocator@U?$_List_node@U?$pair@$$CBIV?$basic_string@DU?$char_traits@D@std@@V?$allocator@D@2@@std@@@std@@PEAX@std@@@std@@@std@@QEAA@XZ 000000014003b770 f i cinder:ConstantConversions.obj
 0001:0003a790       ??1?$_Hash_vec@V?$allocator@V?$_List_unchecked_iterator@V?$_List_val@U?$_List_simple_types@U?$pair@$$CBV?$shared_ptr@VWindow@app@cinder@@@std@@VConnectionList@signals@cinder@@@std@@@std@@@std@@@std@@@std@@@std@@QEAA@XZ 000000014003b790 f i cinder:CinderImGui.obj
 0001:0003a790       ??1?$_Hash_vec@V?$allocator@V?$_List_unchecked_iterator@V?$_List_val@U?$_List_simple_types@U?$pair@$$CBIV?$basic_string@DU?$char_traits@D@std@@V?$allocator@D@2@@std@@@std@@@std@@@std@@@std@@@std@@@std@@QEAA@XZ 000000014003b790 f i cinder:ConstantConversions.obj
 0001:0003a7f0       ??1?$_List_node_emplace_op2@V?$allocator@U?$_List_node@U?$pair@$$CBV?$shared_ptr@VWindow@app@cinder@@@std@@VConnectionList@signals@cinder@@@std@@PEAX@std@@@std@@@std@@QEAA@XZ 000000014003b7f0 f i cinder:CinderImGui.obj
 0001:0003a880       ??1?$list@U?$pair@$$CBV?$shared_ptr@VWindow@app@cinder@@@std@@VConnectionList@signals@cinder@@@std@@V?$allocator@U?$pair@$$CBV?$shared_ptr@VWindow@app@cinder@@@std@@VConnectionList@signals@cinder@@@std@@@2@@std@@QEAA@XZ 000000014003b880 f i cinder:CinderImGui.obj
 0001:0003a8b0       ??1?$enable_shared_from_this@VWindow@app@cinder@@@std@@IEAA@XZ 000000014003b8b0 f i cinder:AppImplMsw.obj
 0001:0003a8b0       ??1?$enable_shared_from_this@VVao@gl@cinder@@@std@@IEAA@XZ 000000014003b8b0 f i cinder:Vao.obj
 0001:0003a8b0       ??1Connection@signals@cinder@@QEAA@XZ 000000014003b8b0 f i cinder:CinderImGui.obj
 0001:0003a8d0       ??1SignalLinkBase@detail@signals@cinder@@UEAA@XZ 000000014003b8d0 f i cinder:CinderImGui.obj
 0001:0003abc0       ??_0path@filesystem@std@@QEAAAEAV012@AEBV012@@Z 000000014003bbc0 f i cinder:CinderImGui.obj
 0001:0003ad50       ??_ESignalLink@?$SignalProto@$$A6AXAEAVMouseEvent@app@cinder@@@ZU?$CollectorEvent@VMouseEvent@app@cinder@@@23@@detail@signals@cinder@@UEAAPEAXI@Z 000000014003bd50 f i cinder:CinderImGui.obj
 0001:0003ad50       ??_GSignalLink@?$SignalProto@$$A6AXXZU?$CollectorDefault@X@detail@signals@cinder@@@detail@signals@cinder@@UEAAPEAXI@Z 000000014003bd50 f i cinder:CinderImGui.obj
 0001:0003ad50       ??_ESignalLink@?$SignalProto@$$A6AXXZU?$CollectorDefault@X@detail@signals@cinder@@@detail@signals@cinder@@UEAAPEAXI@Z 000000014003bd50 f i cinder:CinderImGui.obj
 0001:0003ad50       ??_GSignalLink@?$SignalProto@$$A6AXAEAVKeyEvent@app@cinder@@@ZU?$CollectorEvent@VKeyEvent@app@cinder@@@23@@detail@signals@cinder@@UEAAPEAXI@Z 000000014003bd50 f i cinder:CinderImGui.obj
 0001:0003ad50       ??_GSignalLink@?$SignalProto@$$A6AXAEAVMouseEvent@app@cinder@@@ZU?$CollectorEvent@VMouseEvent@app@cinder@@@23@@detail@signals@cinder@@UEAAPEAXI@Z 000000014003bd50 f i cinder:CinderImGui.obj
 0001:0003ad50       ??_ESignalLink@?$SignalProto@$$A6AXAEAVKeyEvent@app@cinder@@@ZU?$CollectorEvent@VKeyEvent@app@cinder@@@23@@detail@signals@cinder@@UEAAPEAXI@Z 000000014003bd50 f i cinder:CinderImGui.obj
 0001:0003adc0       ??_ESignalLinkBase@detail@signals@cinder@@UEAAPEAXI@Z 000000014003bdc0 f i cinder:CinderImGui.obj
 0001:0003adc0       ??_GSignalLinkBase@detail@signals@cinder@@UEAAPEAXI@Z 000000014003bdc0 f i cinder:CinderImGui.obj
 0001:0003c380       ?Initialize@ImGui@@YA_NAEBUOptions@1@@Z 000000014003d380 f   cinder:CinderImGui.obj
 0001:0003c980       ?ListBox@ImGui@@YA_NPEBDPEAHAEBV?$vector@V?$basic_string@DU?$char_traits@D@std@@V?$allocator@D@2@@std@@V?$allocator@V?$basic_string@DU?$char_traits@D@std@@V?$allocator@D@2@@std@@@2@@std@@H@Z 000000014003d980 f   cinder:CinderImGui.obj
 0001:0003caa0       ?_Assign_grow@?$_Hash_vec@V?$allocator@V?$_List_unchecked_iterator@V?$_List_val@U?$_List_simple_types@U?$pair@$$CBV?$shared_ptr@VWindow@app@cinder@@@std@@VConnectionList@signals@cinder@@@std@@@std@@@std@@@std@@@std@@@std@@QEAAX_KV?$_List_unchecked_iterator@V?$_List_val@U?$_List_simple_types@U?$pair@$$CBV?$shared_ptr@VWindow@app@cinder@@@std@@VConnectionList@signals@cinder@@@std@@@std@@@std@@@2@@Z 000000014003daa0 f i cinder:CinderImGui.obj
 0001:0003caa0       ?_Assign_grow@?$_Hash_vec@V?$allocator@V?$_List_unchecked_iterator@V?$_List_val@U?$_List_simple_types@U?$pair@$$CBIV?$basic_string@DU?$char_traits@D@std@@V?$allocator@D@2@@std@@@std@@@std@@@std@@@std@@@std@@@std@@QEAAX_KV?$_List_unchecked_iterator@V?$_List_val@U?$_List_simple_types@U?$pair@$$CBIV?$basic_string@DU?$char_traits@D@std@@V?$allocator@D@2@@std@@@std@@@std@@@std@@@2@@Z 000000014003daa0 f i cinder:ConstantConversions.obj
 0001:0003cbd0       ?_Change_array@?$vector@DV?$allocator@D@std@@@std@@AEAAXQEAD_K1@Z 000000014003dbd0 f i cinder:CinderImGui.obj
 0001:0003cbd0       ?_Change_array@?$vector@EV?$allocator@E@std@@@std@@AEAAXQEAE_K1@Z 000000014003dbd0 f i cinder:Context.cpp.obj
 0001:0003cc60       ?_Copy@?$_Func_impl_no_alloc@P6AXAEAVKeyEvent@app@cinder@@@ZXAEAV123@@std@@EEBAPEAV?$_Func_base@XAEAVKeyEvent@app@cinder@@@2@PEAX@Z 000000014003dc60 f i cinder:CinderImGui.obj
 0001:0003cc60       ?_Move@?$_Func_impl_no_alloc@P6AXAEAVKeyEvent@app@cinder@@@ZXAEAV123@@std@@EEAAPEAV?$_Func_base@XAEAVKeyEvent@app@cinder@@@2@PEAX@Z 000000014003dc60 f i cinder:CinderImGui.obj
 0001:0003cc80       ?_Copy@?$_Func_impl_no_alloc@P6AXAEAVMouseEvent@app@cinder@@@ZXAEAV123@@std@@EEBAPEAV?$_Func_base@XAEAVMouseEvent@app@cinder@@@2@PEAX@Z 000000014003dc80 f i cinder:CinderImGui.obj
 0001:0003cc80       ?_Move@?$_Func_impl_no_alloc@P6AXAEAVMouseEvent@app@cinder@@@ZXAEAV123@@std@@EEAAPEAV?$_Func_base@XAEAVMouseEvent@app@cinder@@@2@PEAX@Z 000000014003dc80 f i cinder:CinderImGui.obj
 0001:0003cca0       ?_Move@?$_Func_impl_no_alloc@P6AXXZX$$V@std@@EEAAPEAV?$_Func_base@X$$V@2@PEAX@Z 000000014003dca0 f i cinder:CinderImGui.obj
 0001:0003cca0       ?_Copy@?$_Func_impl_no_alloc@P6AXXZX$$V@std@@EEBAPEAV?$_Func_base@X$$V@2@PEAX@Z 000000014003dca0 f i cinder:CinderImGui.obj
 0001:0003cd20       ?_Copy@?$_Func_impl_no_alloc@V?$_Binder@U_Unforced@std@@A6AXAEBV?$shared_ptr@VWindow@app@cinder@@@2@@ZAEBV32@@std@@X$$V@std@@EEBAPEAV?$_Func_base@X$$V@2@PEAX@Z 000000014003dd20 f i cinder:CinderImGui.obj
 0001:0003cde0       ?_Delete_this@?$_Func_impl_no_alloc@V?$_Binder@U_Unforced@std@@A6AXAEBV?$shared_ptr@VWindow@app@cinder@@@2@@ZAEBV32@@std@@X$$V@std@@EEAAX_N@Z 000000014003dde0 f i cinder:CinderImGui.obj
 0001:0003ce60       ?_Do_call@?$_Func_impl_no_alloc@P6AXAEAVMouseEvent@app@cinder@@@ZXAEAV123@@std@@EEAAXAEAVMouseEvent@app@cinder@@@Z 000000014003de60 f i cinder:CinderImGui.obj
 0001:0003ce60       ?_Do_call@?$_Func_impl_no_alloc@P6AXAEAVKeyEvent@app@cinder@@@ZXAEAV123@@std@@EEAAXAEAVKeyEvent@app@cinder@@@Z 000000014003de60 f i cinder:CinderImGui.obj
 0001:0003ce70       ?_Do_call@?$_Func_impl_no_alloc@P6AXXZX$$V@std@@EEAAXXZ 000000014003de70 f i cinder:CinderImGui.obj
 0001:0003d090       ?_Do_call@?$_Func_impl_no_alloc@V?$_Binder@U_Unforced@std@@A6AXAEBV?$shared_ptr@VWindow@app@cinder@@@2@@ZAEBV32@@std@@X$$V@std@@EEAAXXZ 000000014003e090 f i cinder:CinderImGui.obj
 0001:0003d0a0       ?_Forced_rehash@?$_Hash@V?$_Umap_traits@V?$shared_ptr@VWindow@app@cinder@@@std@@VConnectionList@signals@cinder@@V?$_Uhash_compare@V?$shared_ptr@VWindow@app@cinder@@@std@@U?$hash@V?$shared_ptr@VWindow@app@cinder@@@std@@@2@U?$equal_to@V?$shared_ptr@VWindow@app@cinder@@@std@@@2@@2@V?$allocator@U?$pair@$$CBV?$shared_ptr@VWindow@app@cinder@@@std@@VConnectionList@signals@cinder@@@std@@@2@$0A@@std@@@std@@IEAAX_K@Z 000000014003e0a0 f i cinder:CinderImGui.obj
 0001:0003d2c0       ?_Move@?$_Func_impl_no_alloc@V?$_Binder@U_Unforced@std@@A6AXAEBV?$shared_ptr@VWindow@app@cinder@@@2@@ZAEBV32@@std@@X$$V@std@@EEAAPEAV?$_Func_base@X$$V@2@PEAX@Z 000000014003e2c0 f i cinder:CinderImGui.obj
 0001:0003d300       ?_Target_type@?$_Func_impl_no_alloc@P6AXAEAVKeyEvent@app@cinder@@@ZXAEAV123@@std@@EEBAAEBVtype_info@@XZ 000000014003e300 f i cinder:CinderImGui.obj
 0001:0003d310       ?_Target_type@?$_Func_impl_no_alloc@P6AXAEAVMouseEvent@app@cinder@@@ZXAEAV123@@std@@EEBAAEBVtype_info@@XZ 000000014003e310 f i cinder:CinderImGui.obj
 0001:0003d320       ?_Target_type@?$_Func_impl_no_alloc@P6AXXZX$$V@std@@EEBAAEBVtype_info@@XZ 000000014003e320 f i cinder:CinderImGui.obj
 0001:0003d350       ?_Target_type@?$_Func_impl_no_alloc@V?$_Binder@U_Unforced@std@@A6AXAEBV?$shared_ptr@VWindow@app@cinder@@@2@@ZAEBV32@@std@@X$$V@std@@EEBAAEBVtype_info@@XZ 000000014003e350 f i cinder:CinderImGui.obj
 0001:0003d360       ?_Unchecked_erase@?$_Hash@V?$_Umap_traits@V?$shared_ptr@VWindow@app@cinder@@@std@@VConnectionList@signals@cinder@@V?$_Uhash_compare@V?$shared_ptr@VWindow@app@cinder@@@std@@U?$hash@V?$shared_ptr@VWindow@app@cinder@@@std@@@2@U?$equal_to@V?$shared_ptr@VWindow@app@cinder@@@std@@@2@@2@V?$allocator@U?$pair@$$CBV?$shared_ptr@VWindow@app@cinder@@@std@@VConnectionList@signals@cinder@@@std@@@2@$0A@@std@@@std@@AEAAPEAU?$_List_node@U?$pair@$$CBV?$shared_ptr@VWindow@app@cinder@@@std@@VConnectionList@signals@cinder@@@std@@PEAX@2@PEAU32@QEAU32@@Z 000000014003e360 f i cinder:CinderImGui.obj
 0001:0003d610       ?_Xrange@?$vector@MV?$allocator@M@std@@@std@@CAXXZ 000000014003e610 f i cinder:ImageFileTinyExr.obj
 0001:0003d610       ?_Xrange@?$vector@EV?$allocator@E@std@@@std@@CAXXZ 000000014003e610 f i cinder:tinyexr.obj
 0001:0003d610       ?_Xrange@?$vector@GV?$allocator@G@std@@@std@@CAXXZ 000000014003e610 f i cinder:ImageFileTinyExr.obj
 0001:0003d610       ?_Xrange@?$vector@V?$basic_string@DU?$char_traits@D@std@@V?$allocator@D@2@@std@@V?$allocator@V?$basic_string@DU?$char_traits@D@std@@V?$allocator@D@2@@std@@@2@@std@@CAXXZ 000000014003e610 f i cinder:CinderImGui.obj
 0001:0003d610       ?_Xrange@?$vector@_JV?$allocator@_J@std@@@std@@CAXXZ 000000014003e610 f i cinder:tinyexr.obj
 0001:0003d610       ?_Xrange@?$vector@_KV?$allocator@_K@std@@@std@@CAXXZ 000000014003e610 f i cinder:tinyexr.obj
 0001:0003d630       ?allocate@?$allocator@H@std@@QEAAPEAH_K@Z 000000014003e630 f i cinder:CinderImGui.obj
 0001:0003d630       ?allocate@?$allocator@I@std@@QEAAPEAI_K@Z 000000014003e630 f i cinder:Context.cpp.obj
 0001:0003d630       ?allocate@?$allocator@M@std@@QEAAPEAM_K@Z 000000014003e630 f i cinder:Context.cpp.obj
 0001:0003d6a0       ?append@?$basic_string@_WU?$char_traits@_W@std@@V?$allocator@_W@2@@std@@QEAAAEAV12@QEB_W_K@Z 000000014003e6a0 f i cinder:CinderImGui.obj
 0001:0003d820       ?deallocate@?$allocator@M@std@@QEAAXQEAM_K@Z 000000014003e820 f i cinder:Context.cpp.obj
 0001:0003d820       ?deallocate@?$allocator@H@std@@QEAAXQEAH_K@Z 000000014003e820 f i cinder:CinderImGui.obj
 0001:0003d820       ?deallocate@?$allocator@I@std@@QEAAXQEAI_K@Z 000000014003e820 f i cinder:Context.cpp.obj
 0001:0003d870       ?ensureLinkGroup@?$SignalProto@$$A6AXAEAVKeyEvent@app@cinder@@@ZU?$CollectorEvent@VKeyEvent@app@cinder@@@23@@detail@signals@cinder@@AEAAPEAUSignalLink@1234@H@Z 000000014003e870 f i cinder:CinderImGui.obj
 0001:0003da50       ?ensureLinkGroup@?$SignalProto@$$A6AXAEAVMouseEvent@app@cinder@@@ZU?$CollectorEvent@VMouseEvent@app@cinder@@@23@@detail@signals@cinder@@AEAAPEAUSignalLink@1234@H@Z 000000014003ea50 f i cinder:CinderImGui.obj
 0001:0003dc30       ?ensureLinkGroup@?$SignalProto@$$A6AXXZU?$CollectorDefault@X@detail@signals@cinder@@@detail@signals@cinder@@AEAAPEAUSignalLink@1234@H@Z 000000014003ec30 f i cinder:CinderImGui.obj
 0001:0003de10       ?is_absolute@path@filesystem@std@@QEBA_NXZ 000000014003ee10 f i cinder:CinderImGui.obj
 0001:0003de90       ?push_back@?$basic_string@_SU?$char_traits@_S@std@@V?$allocator@_S@2@@std@@QEAAX_S@Z 000000014003ee90 f i cinder:Unicode.obj
 0001:0003de90       ?push_back@?$basic_string@_WU?$char_traits@_W@std@@V?$allocator@_W@2@@std@@QEAAX_W@Z 000000014003ee90 f i cinder:CinderImGui.obj
 0001:0003dff0       ?removeSibling@SignalLink@?$SignalProto@$$A6AXAEAVMouseEvent@app@cinder@@@ZU?$CollectorEvent@VMouseEvent@app@cinder@@@23@@detail@signals@cinder@@UEAA_NPEAUSignalLinkBase@345@@Z 000000014003eff0 f i cinder:CinderImGui.obj
 0001:0003dff0       ?removeSibling@SignalLink@?$SignalProto@$$A6AXAEAVKeyEvent@app@cinder@@@ZU?$CollectorEvent@VKeyEvent@app@cinder@@@23@@detail@signals@cinder@@UEAA_NPEAUSignalLinkBase@345@@Z 000000014003eff0 f i cinder:CinderImGui.obj
 0001:0003dff0       ?removeSibling@SignalLink@?$SignalProto@$$A6AXXZU?$CollectorDefault@X@detail@signals@cinder@@@detail@signals@cinder@@UEAA_NPEAUSignalLinkBase@345@@Z 000000014003eff0 f i cinder:CinderImGui.obj
 0001:0003e090       ?toPixels@app@cinder@@YA?AU?$vec@$01H$0A@@glm@@U34@@Z 000000014003f090 f i cinder:CinderImGui.obj
 0001:0003e160       ??$_Destroy_range@V?$allocator@UAttribute@GlslProg@gl@cinder@@@std@@@std@@YAXPEAUAttribute@GlslProg@gl@cinder@@QEAU1234@AEAV?$allocator@UAttribute@GlslProg@gl@cinder@@@0@@Z 000000014003f160 f i cinder:draw.obj
 0001:0003e160       ??$_Destroy_range@V?$allocator@UChannelInfo@tinyexr@@@std@@@std@@YAXPEAUChannelInfo@tinyexr@@QEAU12@AEAV?$allocator@UChannelInfo@tinyexr@@@0@@Z 000000014003f160 f i cinder:tinyexr.obj
 0001:0003e1f0       ??$_Destroy_range@V?$allocator@UUniform@GlslProg@gl@cinder@@@std@@@std@@YAXPEAUUniform@GlslProg@gl@cinder@@QEAU1234@AEAV?$allocator@UUniform@GlslProg@gl@cinder@@@0@@Z 000000014003f1f0 f i cinder:draw.obj
 0001:0003e280       ??$_Erase_head@V?$allocator@U?$_Tree_node@W4Attrib@geom@cinder@@PEAX@std@@@std@@@?$_Tree_val@U?$_Tree_simple_types@W4Attrib@geom@cinder@@@std@@@std@@QEAAXAEAV?$allocator@U?$_Tree_node@W4Attrib@geom@cinder@@PEAX@std@@@1@@Z 000000014003f280 f i cinder:draw.obj
 0001:0003e300       ??$_Erase_tree@V?$allocator@U?$_Tree_node@U?$pair@$$CBV?$basic_string@DU?$char_traits@D@std@@V?$allocator@D@2@@std@@PEBU_GUID@@@std@@PEAX@std@@@std@@@?$_Tree_val@U?$_Tree_simple_types@U?$pair@$$CBV?$basic_string@DU?$char_traits@D@std@@V?$allocator@D@2@@std@@PEBU_GUID@@@std@@@std@@@std@@QEAAXAEAV?$allocator@U?$_Tree_node@U?$pair@$$CBV?$basic_string@DU?$char_traits@D@std@@V?$allocator@D@2@@std@@PEBU_GUID@@@std@@PEAX@std@@@1@PEAU?$_Tree_node@U?$pair@$$CBV?$basic_string@DU?$char_traits@D@std@@V?$allocator@D@2@@std@@PEBU_GUID@@@std@@PEAX@1@@Z 000000014003f300 f i cinder:ImageTargetFileWic.obj
 0001:0003e300       ??$_Erase_tree@V?$allocator@U?$_Tree_node@U?$pair@$$CBV?$basic_string@DU?$char_traits@D@std@@V?$allocator@D@2@@std@@I@std@@PEAX@std@@@std@@@?$_Tree_val@U?$_Tree_simple_types@U?$pair@$$CBV?$basic_string@DU?$char_traits@D@std@@V?$allocator@D@2@@std@@I@std@@@std@@@std@@QEAAXAEAV?$allocator@U?$_Tree_node@U?$pair@$$CBV?$basic_string@DU?$char_traits@D@std@@V?$allocator@D@2@@std@@I@std@@PEAX@std@@@1@PEAU?$_Tree_node@U?$pair@$$CBV?$basic_string@DU?$char_traits@D@std@@V?$allocator@D@2@@std@@I@std@@PEAX@1@@Z 000000014003f300 f i cinder:draw.obj
 0001:0003e300       ??$_Erase_tree@V?$allocator@U?$_Tree_node@U?$pair@$$CBV?$basic_string@DU?$char_traits@D@std@@V?$allocator@D@2@@std@@W4Attrib@geom@cinder@@@std@@PEAX@std@@@std@@@?$_Tree_val@U?$_Tree_simple_types@U?$pair@$$CBV?$basic_string@DU?$char_traits@D@std@@V?$allocator@D@2@@std@@W4Attrib@geom@cinder@@@std@@@std@@@std@@QEAAXAEAV?$allocator@U?$_Tree_node@U?$pair@$$CBV?$basic_string@DU?$char_traits@D@std@@V?$allocator@D@2@@std@@W4Attrib@geom@cinder@@@std@@PEAX@std@@@1@PEAU?$_Tree_node@U?$pair@$$CBV?$basic_string@DU?$char_traits@D@std@@V?$allocator@D@2@@std@@W4Attrib@geom@cinder@@@std@@PEAX@1@@Z 000000014003f300 f i cinder:GlslProg.obj
 0001:0003e300       ??$_Erase_tree@V?$allocator@U?$_Tree_node@U?$pair@$$CBV?$basic_string@DU?$char_traits@D@std@@V?$allocator@D@2@@std@@W4UniformSemantic@gl@cinder@@@std@@PEAX@std@@@std@@@?$_Tree_val@U?$_Tree_simple_types@U?$pair@$$CBV?$basic_string@DU?$char_traits@D@std@@V?$allocator@D@2@@std@@W4UniformSemantic@gl@cinder@@@std@@@std@@@std@@QEAAXAEAV?$allocator@U?$_Tree_node@U?$pair@$$CBV?$basic_string@DU?$char_traits@D@std@@V?$allocator@D@2@@std@@W4UniformSemantic@gl@cinder@@@std@@PEAX@std@@@1@PEAU?$_Tree_node@U?$pair@$$CBV?$basic_string@DU?$char_traits@D@std@@V?$allocator@D@2@@std@@W4UniformSemantic@gl@cinder@@@std@@PEAX@1@@Z 000000014003f300 f i cinder:GlslProg.obj
 0001:0003e300       ??$_Erase_tree_and_orphan@V?$allocator@U?$_Tree_node@U?$pair@$$CBV?$basic_string@DU?$char_traits@D@std@@V?$allocator@D@2@@std@@I@std@@PEAX@std@@@std@@@?$_Tree_val@U?$_Tree_simple_types@U?$pair@$$CBV?$basic_string@DU?$char_traits@D@std@@V?$allocator@D@2@@std@@I@std@@@std@@@std@@QEAAXAEAV?$allocator@U?$_Tree_node@U?$pair@$$CBV?$basic_string@DU?$char_traits@D@std@@V?$allocator@D@2@@std@@I@std@@PEAX@std@@@1@PEAU?$_Tree_node@U?$pair@$$CBV?$basic_string@DU?$char_traits@D@std@@V?$allocator@D@2@@std@@I@std@@PEAX@1@@Z 000000014003f300 f i cinder:EnvironmentCore.obj
 0001:0003e3c0       ??$_Erase_tree@V?$allocator@U?$_Tree_node@W4Attrib@geom@cinder@@PEAX@std@@@std@@@?$_Tree_val@U?$_Tree_simple_types@W4Attrib@geom@cinder@@@std@@@std@@QEAAXAEAV?$allocator@U?$_Tree_node@W4Attrib@geom@cinder@@PEAX@std@@@1@PEAU?$_Tree_node@W4Attrib@geom@cinder@@PEAX@1@@Z 000000014003f3c0 f i cinder:draw.obj
 0001:0003e3c0       ??$_Erase_tree@V?$allocator@U?$_Tree_node@HPEAX@std@@@std@@@?$_Tree_val@U?$_Tree_simple_types@H@std@@@std@@QEAAXAEAV?$allocator@U?$_Tree_node@HPEAX@std@@@1@PEAU?$_Tree_node@HPEAX@1@@Z 000000014003f3c0 f i cinder:GlslProg.obj
 0001:0003e420       ??1?$_Alloc_construct_ptr@V?$allocator@U?$_Tree_node@W4Attrib@geom@cinder@@PEAX@std@@@std@@@std@@QEAA@XZ 000000014003f420 f i cinder:draw.obj
 0001:0003e420       ??1?$_Alloc_construct_ptr@V?$allocator@U?$_Tree_node@HPEAX@std@@@std@@@std@@QEAA@XZ 000000014003f420 f i cinder:GlslProg.obj
 0001:0003e420       ??1?$_Alloc_construct_ptr@V?$allocator@U?$_List_node@V?$shared_ptr@VBlankingWindow@app@cinder@@@std@@PEAX@std@@@std@@@std@@QEAA@XZ 000000014003f420 f i cinder:AppImplMswBasic.obj
 0001:0003e440       ??1?$_Tidy_guard@V?$vector@UAttribute@GlslProg@gl@cinder@@V?$allocator@UAttribute@GlslProg@gl@cinder@@@std@@@std@@@std@@QEAA@XZ 000000014003f440 f i cinder:draw.obj
 0001:0003e450       ??1?$_Uninitialized_backout_al@V?$allocator@UAttribute@GlslProg@gl@cinder@@@std@@@std@@QEAA@XZ 000000014003f450 f i cinder:draw.obj
 0001:0003e460       ??1?$set@W4Attrib@geom@cinder@@U?$less@W4Attrib@geom@cinder@@@std@@V?$allocator@W4Attrib@geom@cinder@@@5@@std@@QEAA@XZ 000000014003f460 f i cinder:draw.obj
 0001:0003e470       ??1?$unique_ptr@$$BY0A@MU?$default_delete@$$BY0A@M@std@@@std@@QEAA@XZ 000000014003f470 f i cinder:Texture.obj
 0001:0003e470       ??1?$unique_ptr@$$BY1A@3EU?$default_delete@$$BY1A@3E@std@@@std@@QEAA@XZ 000000014003f470 f i cinder:ImageSourceFileRadiance.obj
 0001:0003e470       ??1?$unique_ptr@$$BY0A@Thalf_float@cinder@@U?$default_delete@$$BY0A@Thalf_float@cinder@@@std@@@std@@QEAA@XZ 000000014003f470 f i cinder:Texture.obj
 0001:0003e470       ??1?$unique_ptr@$$BY0A@DU?$default_delete@$$BY0A@D@std@@@std@@QEAA@XZ 000000014003f470 f i cinder:GlslProg.obj
 0001:0003e470       ??1?$unique_ptr@$$BY0A@EU?$default_delete@$$BY0A@E@std@@@std@@QEAA@XZ 000000014003f470 f i cinder:draw.obj
 0001:0003e470       ??1?$unique_ptr@$$BY0A@GU?$default_delete@$$BY0A@G@std@@@std@@QEAA@XZ 000000014003f470 f i cinder:Texture.obj
 0001:0003e470       ??1?$unique_ptr@$$BY0A@UtagTOUCHINPUT@@U?$default_delete@$$BY0A@UtagTOUCHINPUT@@@std@@@std@@QEAA@XZ 000000014003f470 f i cinder:AppImplMsw.obj
 0001:0003e480       ??1?$vector@U?$vec@$02M$0A@@glm@@V?$allocator@U?$vec@$02M$0A@@glm@@@std@@@std@@QEAA@XZ 000000014003f480 f i cinder:draw.obj
 0001:0003e490       ??1?$vector@UAttribute@GlslProg@gl@cinder@@V?$allocator@UAttribute@GlslProg@gl@cinder@@@std@@@std@@QEAA@XZ 000000014003f490 f i cinder:draw.obj
 0001:0003e4a0       ??1Format@GlslProg@gl@cinder@@QEAA@XZ 000000014003f4a0 f i cinder:draw.obj
 0001:0003e910       ??1Source@geom@cinder@@UEAA@XZ 000000014003f910 f i cinder:draw.obj
 0001:0003e920       ??_GSource@geom@cinder@@UEAAPEAXI@Z 000000014003f920 f i cinder:draw.obj
 0001:0003e920       ??_ESource@geom@cinder@@UEAAPEAXI@Z 000000014003f920 f i cinder:draw.obj
 0001:0003e950       ?_Tidy@?$vector@U?$vec@$02M$0A@@glm@@V?$allocator@U?$vec@$02M$0A@@glm@@@std@@@std@@AEAAXXZ 000000014003f950 f i cinder:draw.obj
 0001:0003e9d0       ?_Tidy@?$vector@UChannelInfo@tinyexr@@V?$allocator@UChannelInfo@tinyexr@@@std@@@std@@AEAAXXZ 000000014003f9d0 f i cinder:tinyexr.obj
 0001:0003e9d0       ?_Tidy@?$vector@UAttribute@GlslProg@gl@cinder@@V?$allocator@UAttribute@GlslProg@gl@cinder@@@std@@@std@@AEAAXXZ 000000014003f9d0 f i cinder:draw.obj
 0001:0003ea60       ?allocate@?$allocator@U?$vec@$02M$0A@@glm@@@std@@QEAAPEAU?$vec@$02M$0A@@glm@@_K@Z 000000014003fa60 f i cinder:draw.obj
 0001:0003eae0       ?draw@gl@cinder@@YAXAEBV?$shared_ptr@VTexture2d@gl@cinder@@@std@@AEBV?$RectT@M@2@@Z 000000014003fae0 f   cinder:draw.obj
 0001:0003eb60       ?draw@gl@cinder@@YAXAEBV?$shared_ptr@VTexture2d@gl@cinder@@@std@@AEBVArea@2@AEBV?$RectT@M@2@@Z 000000014003fb60 f   cinder:draw.obj
 0001:0003f110       ?drawSolidCircle@gl@cinder@@YAXAEBU?$vec@$01M$0A@@glm@@MH@Z 0000000140040110 f   cinder:draw.obj
 0001:0003f770       ??1?$_Temporary_owner@VDataSourcePath@cinder@@@std@@QEAA@XZ 0000000140040770 f i cinder:DataSource.obj
 0001:0003f770       ??1?$_Temporary_owner@VDataTargetPath@cinder@@@std@@QEAA@XZ 0000000140040770 f i cinder:DataTarget.obj
 0001:0003f770       ??1?$_Temporary_owner@VDataSourceBuffer@cinder@@@std@@QEAA@XZ 0000000140040770 f i cinder:DataSource.obj
 0001:0003f790       ??1DataTarget@cinder@@MEAA@XZ 0000000140040790 f i cinder:DataTarget.obj
 0001:0003f810       ??_GDataTarget@cinder@@MEAAPEAXI@Z 0000000140040810 f i cinder:DataTarget.obj
 0001:0003f810       ??_EDataTarget@cinder@@MEAAPEAXI@Z 0000000140040810 f i cinder:DataTarget.obj
 0001:0003f850       ??_EDataTargetPath@cinder@@UEAAPEAXI@Z 0000000140040850 f i cinder:DataTarget.obj
 0001:0003f850       ??_GDataTargetPath@cinder@@UEAAPEAXI@Z 0000000140040850 f i cinder:DataTarget.obj
 0001:0003f8e0       ?_Destroy@?$_Ref_count@VDataSourceBuffer@cinder@@@std@@EEAAXXZ 00000001400408e0 f i cinder:DataSource.obj
 0001:0003f8e0       ?_Destroy@?$_Ref_count@VDataSourcePath@cinder@@@std@@EEAAXXZ 00000001400408e0 f i cinder:DataSource.obj
 0001:0003f8e0       ?_Destroy@?$_Ref_count@VDataTargetPath@cinder@@@std@@EEAAXXZ 00000001400408e0 f i cinder:DataTarget.obj
 0001:0003f900       ?createRef@DataTargetPath@cinder@@SA?AV?$shared_ptr@VDataTargetPath@cinder@@@std@@AEBVpath@filesystem@4@@Z 0000000140040900 f   cinder:DataTarget.obj
 0001:0003fa90       ?create_directories@filesystem@std@@YA_NAEBVpath@12@AEAVerror_code@2@@Z 0000000140040a90 f i cinder:DataTarget.obj
 0001:0003fcc0       ?getFilePathHint@DataTarget@cinder@@QEBAAEBVpath@filesystem@std@@XZ 0000000140040cc0 f   cinder:DataTarget.obj
 0001:0003fcd0       ?getStream@DataTargetPath@cinder@@UEAA?AV?$shared_ptr@VOStream@cinder@@@std@@XZ 0000000140040cd0 f   cinder:DataTarget.obj
 0001:0003fdd0       ?parent_path@path@filesystem@std@@QEBA?AV123@XZ 0000000140040dd0 f i cinder:DataTarget.obj
 0001:0003feb0       ?isUrl@DataSourceBuffer@cinder@@UEAA_NXZ 0000000140040eb0 f i cinder:DataSource.obj
 0001:0003feb0       ?updateAtLoopStart@TimelineItem@cinder@@UEAA_NXZ 0000000140040eb0 f i cinder:Timeline.obj
 0001:0003feb0       ?isUrl@DataSourcePath@cinder@@UEAA_NXZ 0000000140040eb0 f i cinder:DataSource.obj
 0001:0003feb0       ?isFilePath@DataSourceBuffer@cinder@@UEAA_NXZ 0000000140040eb0 f i cinder:DataSource.obj
 0001:0003feb0       ?providesUrl@DataTargetPath@cinder@@UEAA_NXZ 0000000140040eb0 f i cinder:DataTarget.obj
 0001:0003fec0       ?reserve@?$basic_string@_WU?$char_traits@_W@std@@V?$allocator@_W@2@@std@@QEAAX_K@Z 0000000140040ec0 f i cinder:DataTarget.obj
 0001:00040050       ?writeFile@cinder@@YA?AV?$shared_ptr@VDataTargetPath@cinder@@@std@@AEBVpath@filesystem@3@_N@Z 0000000140041050 f   cinder:DataTarget.obj
 0001:00040130       ??0?$RectT@M@cinder@@QEAA@AEBVArea@1@@Z 0000000140041130 f i cinder:Rect.obj
 0001:00040170       ?getCenteredFill@?$RectT@M@cinder@@QEBA?AV12@AEBV12@_N@Z 0000000140041170 f i cinder:Rect.obj
 0001:00040320       ?getOffset@?$RectT@M@cinder@@QEBA?AV12@AEBU?$vec@$01M$0A@@glm@@@Z 0000000140041320 f i cinder:Rect.obj
 0001:00040370       ??$?0VImageSourceSurface@cinder@@$0A@@?$shared_ptr@VImageSource@cinder@@@std@@QEAA@PEAVImageSourceSurface@cinder@@@Z 0000000140041370 f i cinder:Surface.obj
 0001:000403e0       ??0?$SurfaceT@E@cinder@@QEAA@HH_NVSurfaceChannelOrder@1@@Z 00000001400413e0 f i cinder:Surface.obj
 0001:00040580       ??0?$SurfaceT@E@cinder@@QEAA@V?$shared_ptr@VImageSource@cinder@@@std@@AEBVSurfaceConstraints@1@@Z 0000000140041580 f i cinder:Surface.obj
 0001:00040660       ??0SurfaceChannelOrder@cinder@@QEAA@H@Z 0000000140041660 f   cinder:Surface.obj
 0001:00040760       ??1?$_Temporary_owner@V?$ImageTargetGlTexture@Thalf_float@cinder@@@gl@cinder@@@std@@QEAA@XZ 0000000140041760 f i cinder:Texture.obj
 0001:00040760       ??1?$_Temporary_owner@V?$ImageTargetGlTexture@E@gl@cinder@@@std@@QEAA@XZ 0000000140041760 f i cinder:Texture.obj
 0001:00040760       ??1?$_Temporary_owner@V?$ImageTargetSurface@E@cinder@@@std@@QEAA@XZ 0000000140041760 f i cinder:Surface.obj
 0001:00040760       ??1?$_Temporary_owner@VImageSourceFileTinyExr@cinder@@@std@@QEAA@XZ 0000000140041760 f i cinder:ImageFileTinyExr.obj
 0001:00040760       ??1?$_Temporary_owner@V?$ImageTargetGlTexture@M@gl@cinder@@@std@@QEAA@XZ 0000000140041760 f i cinder:Texture.obj
 0001:00040760       ??1?$_Temporary_owner@V?$ImageTargetGlTexture@G@gl@cinder@@@std@@QEAA@XZ 0000000140041760 f i cinder:Texture.obj
 0001:00040760       ??1?$_Temporary_owner@VImageTargetFileStbImage@cinder@@@std@@QEAA@XZ 0000000140041760 f i cinder:ImageTargetFileStbImage.obj
 0001:00040760       ??1?$_Temporary_owner@VImageSourceFileWic@cinder@@@std@@QEAA@XZ 0000000140041760 f i cinder:ImageSourceFileWic.obj
 0001:00040760       ??1?$_Temporary_owner@VImageSourceFileStbImage@cinder@@@std@@QEAA@XZ 0000000140041760 f i cinder:ImageSourceFileStbImage.obj
 0001:00040760       ??1?$_Temporary_owner@VImageTargetFileWic@cinder@@@std@@QEAA@XZ 0000000140041760 f i cinder:ImageTargetFileWic.obj
 0001:00040760       ??1?$_Temporary_owner@VImageTargetFileTinyExr@cinder@@@std@@QEAA@XZ 0000000140041760 f i cinder:ImageFileTinyExr.obj
 0001:00040760       ??1?$_Temporary_owner@VImageSourceFileRadiance@cinder@@@std@@QEAA@XZ 0000000140041760 f i cinder:ImageSourceFileRadiance.obj
 0001:00040760       ??1?$_Temporary_owner@VImageSourceTexture@gl@cinder@@@std@@QEAA@XZ 0000000140041760 f i cinder:Texture.obj
 0001:00040760       ??1?$_Temporary_owner@VImageSourceSurface@cinder@@@std@@QEAA@XZ 0000000140041760 f i cinder:Surface.obj
 0001:00040780       ??1?$_Temporary_owner_del@PEAMU?$default_delete@$$BY0A@M@std@@@std@@QEAA@XZ 0000000140041780 f i cinder:Surface.obj
 0001:00040780       ??1?$_Temporary_owner_del@PEAEU?$default_delete@$$BY0A@E@std@@@std@@QEAA@XZ 0000000140041780 f i cinder:Surface.obj
 0001:00040790       ??1ImageSource@cinder@@UEAA@XZ 0000000140041790 f i cinder:Surface.obj
 0001:000407a0       ??1ImageTarget@cinder@@UEAA@XZ 00000001400417a0 f i cinder:Surface.obj
 0001:000407b0       ??4?$shared_ptr@VVao@gl@cinder@@@std@@QEAAAEAV01@$$QEAV01@@Z 00000001400417b0 f i cinder:Context.cpp.obj
 0001:000407b0       ??4?$shared_ptr@VShaderPreprocessor@gl@cinder@@@std@@QEAAAEAV01@$$QEAV01@@Z 00000001400417b0 f i cinder:GlslProg.obj
 0001:000407b0       ??4?$shared_ptr@VVbo@gl@cinder@@@std@@QEAAAEAV01@$$QEAV01@@Z 00000001400417b0 f i cinder:Context.cpp.obj
 0001:000407b0       ??4?$shared_ptr@VBuffer@cinder@@@std@@QEAAAEAV01@$$QEAV01@@Z 00000001400417b0 f i cinder:DataSource.obj
 0001:000407b0       ??4?$shared_ptr@E@std@@QEAAAEAV01@$$QEAV01@@Z 00000001400417b0 f i cinder:Surface.obj
 0001:000407b0       ??4?$shared_ptr@VDisplay@cinder@@@std@@QEAAAEAV01@$$QEAV01@@Z 00000001400417b0 f i cinder:AppImplMsw.obj
 0001:00040830       ??B?$SurfaceT@E@cinder@@QEBA?AV?$shared_ptr@VImageSource@cinder@@@std@@XZ 0000000140041830 f i cinder:Surface.obj
 0001:00040950       ??_G?$ImageTargetSurface@E@cinder@@UEAAPEAXI@Z 0000000140041950 f i cinder:Surface.obj
 0001:00040950       ??_E?$ImageTargetSurface@E@cinder@@UEAAPEAXI@Z 0000000140041950 f i cinder:Surface.obj
 0001:00040980       ??_GImageSource@cinder@@UEAAPEAXI@Z 0000000140041980 f i cinder:Surface.obj
 0001:00040980       ??_EImageSource@cinder@@UEAAPEAXI@Z 0000000140041980 f i cinder:Surface.obj
 0001:000409b0       ??_EImageSourceSurface@cinder@@UEAAPEAXI@Z 00000001400419b0 f i cinder:Surface.obj
 0001:000409b0       ??_GImageSourceSurface@cinder@@UEAAPEAXI@Z 00000001400419b0 f i cinder:Surface.obj
 0001:00040a40       ??_EImageTarget@cinder@@UEAAPEAXI@Z 0000000140041a40 f i cinder:Surface.obj
 0001:00040a40       ??_GImageTarget@cinder@@UEAAPEAXI@Z 0000000140041a40 f i cinder:Surface.obj
 0001:00040a70       ?_Destroy@?$_Ref_count@V?$ImageTargetGlTexture@G@gl@cinder@@@std@@EEAAXXZ 0000000140041a70 f i cinder:Texture.obj
 0001:00040a70       ?_Destroy@?$_Ref_count@VImageSourceFileWic@cinder@@@std@@EEAAXXZ 0000000140041a70 f i cinder:ImageSourceFileWic.obj
 0001:00040a70       ?_Destroy@?$_Ref_count@V?$ImageTargetGlTexture@E@gl@cinder@@@std@@EEAAXXZ 0000000140041a70 f i cinder:Texture.obj
 0001:00040a70       ?_Destroy@?$_Ref_count@V?$ImageTargetGlTexture@Thalf_float@cinder@@@gl@cinder@@@std@@EEAAXXZ 0000000140041a70 f i cinder:Texture.obj
 0001:00040a70       ?_Destroy@?$_Ref_count@V?$ImageTargetGlTexture@M@gl@cinder@@@std@@EEAAXXZ 0000000140041a70 f i cinder:Texture.obj
 0001:00040a70       ?_Destroy@?$_Ref_count@VImageSourceTexture@gl@cinder@@@std@@EEAAXXZ 0000000140041a70 f i cinder:Texture.obj
 0001:00040a70       ?_Destroy@?$_Ref_count@VImageTargetFileStbImage@cinder@@@std@@EEAAXXZ 0000000140041a70 f i cinder:ImageTargetFileStbImage.obj
 0001:00040a70       ?_Destroy@?$_Ref_count@VImageSourceFileRadiance@cinder@@@std@@EEAAXXZ 0000000140041a70 f i cinder:ImageSourceFileRadiance.obj
 0001:00040a70       ?_Destroy@?$_Ref_count@V?$ImageTargetSurface@E@cinder@@@std@@EEAAXXZ 0000000140041a70 f i cinder:Surface.obj
 0001:00040a70       ?_Destroy@?$_Ref_count@VImageSourceFileTinyExr@cinder@@@std@@EEAAXXZ 0000000140041a70 f i cinder:ImageFileTinyExr.obj
 0001:00040a70       ?_Destroy@?$_Ref_count@VImageTargetFileWic@cinder@@@std@@EEAAXXZ 0000000140041a70 f i cinder:ImageTargetFileWic.obj
 0001:00040a70       ?_Destroy@?$_Ref_count@VImageSourceFileStbImage@cinder@@@std@@EEAAXXZ 0000000140041a70 f i cinder:ImageSourceFileStbImage.obj
 0001:00040a70       ?_Destroy@?$_Ref_count@VImageTargetFileTinyExr@cinder@@@std@@EEAAXXZ 0000000140041a70 f i cinder:ImageFileTinyExr.obj
 0001:00040a70       ?_Destroy@?$_Ref_count@VImageSourceSurface@cinder@@@std@@EEAAXXZ 0000000140041a70 f i cinder:Surface.obj
 0001:00040a90       ?_Destroy@?$_Ref_count_resource@PEAMU?$default_delete@$$BY0A@M@std@@@std@@EEAAXXZ 0000000140041a90 f i cinder:Surface.obj
 0001:00040a90       ?_Destroy@?$_Ref_count_resource@PEAEU?$default_delete@$$BY0A@E@std@@@std@@EEAAXXZ 0000000140041a90 f i cinder:Surface.obj
 0001:00040aa0       ?_Get_deleter@?$_Ref_count_resource@PEAEU?$default_delete@$$BY0A@E@std@@@std@@UEBAPEAXAEBVtype_info@@@Z 0000000140041aa0 f i cinder:Surface.obj
 0001:00040ad0       ?_Get_deleter@?$_Ref_count_resource@PEAMU?$default_delete@$$BY0A@M@std@@@std@@UEBAPEAXAEBVtype_info@@@Z 0000000140041ad0 f i cinder:Surface.obj
 0001:00040b00       ?createRef@?$ImageTargetSurface@E@cinder@@SA?AV?$shared_ptr@V?$ImageTargetSurface@E@cinder@@@std@@PEAV?$SurfaceT@E@2@@Z 0000000140041b00 f i cinder:Surface.obj
 0001:00040c70       ?getImageIoChannelOrder@SurfaceChannelOrder@cinder@@QEBAHXZ 0000000140041c70 f   cinder:Surface.obj
 0001:00040d00       ?getRowPointer@?$ImageTargetSurface@E@cinder@@UEAAPEAXH@Z 0000000140041d00 f i cinder:Surface.obj
 0001:00040d20       ?hasAlpha@?$ImageTargetSurface@E@cinder@@UEBA_NXZ 0000000140041d20 f i cinder:Surface.obj
 0001:00040d30       ?hasAlpha@ImageIo@cinder@@UEBA_NXZ 0000000140041d30 f i cinder:Surface.obj
 0001:00040d40       ?init@?$SurfaceT@E@cinder@@AEAAXV?$shared_ptr@VImageSource@cinder@@@std@@AEBVSurfaceConstraints@2@_N@Z 0000000140041d40 f i cinder:Surface.obj
 0001:00040f80       ?initChannels@?$SurfaceT@E@cinder@@AEAAXXZ 0000000140041f80 f i cinder:Surface.obj
 0001:000411a0       ?load@ImageSourceSurface@cinder@@UEAAXV?$shared_ptr@VImageTarget@cinder@@@std@@@Z 00000001400421a0 f i cinder:Surface.obj
 0001:00041290       ?setRow@ImageTarget@cinder@@UEAAXHPEBX@Z 0000000140042290 f i cinder:Surface.obj
 0001:000412a0       ??$?0VTexture2d@gl@cinder@@$0A@@?$shared_ptr@VTexture2d@gl@cinder@@@std@@QEAA@PEAVTexture2d@gl@cinder@@@Z 00000001400422a0 f i cinder:Texture.obj
 0001:00041310       ??$?0VTexture2d@gl@cinder@@V?$function@$$A6AXPEAVTexture2d@gl@cinder@@@Z@std@@$0A@@?$shared_ptr@VTexture2d@gl@cinder@@@std@@QEAA@PEAVTexture2d@gl@cinder@@V?$function@$$A6AXPEAVTexture2d@gl@cinder@@@Z@1@@Z 0000000140042310 f i cinder:Texture.obj
 0001:00041450       ??$_Maklocstr@D@std@@YAPEADPEBDPEADAEBU_Cvtvec@@@Z 0000000140042450 f i cinder:Texture.obj
 0001:000414c0       ??$_Reallocate_grow_by@V<lambda_b986da8d428e4af07c64af60eec09b61>@@_K_KD@?$basic_string@DU?$char_traits@D@std@@V?$allocator@D@2@@std@@AEAAAEAV01@_KV<lambda_b986da8d428e4af07c64af60eec09b61>@@_K2D@Z 00000001400424c0 f i cinder:Texture.obj
 0001:00041670       ??$use_facet@V?$num_put@DV?$ostreambuf_iterator@DU?$char_traits@D@std@@@std@@@std@@@std@@YAAEBV?$num_put@DV?$ostreambuf_iterator@DU?$char_traits@D@std@@@std@@@0@AEBVlocale@0@@Z 0000000140042670 f i cinder:Texture.obj
 0001:00041780       ??$use_facet@V?$numpunct@D@std@@@std@@YAAEBV?$numpunct@D@0@AEBVlocale@0@@Z 0000000140042780 f i cinder:Texture.obj
 0001:00041890       ??0?$ImageTargetGlTexture@E@gl@cinder@@AEAA@PEBVTexture2d@12@AEAW4ChannelOrder@ImageIo@2@_N2PEAX@Z 0000000140042890 f i cinder:Texture.obj
 0001:00041980       ??0?$ImageTargetGlTexture@G@gl@cinder@@AEAA@PEBVTexture2d@12@AEAW4ChannelOrder@ImageIo@2@_N2PEAX@Z 0000000140042980 f i cinder:Texture.obj
 0001:00041a80       ??0?$ImageTargetGlTexture@M@gl@cinder@@AEAA@PEBVTexture2d@12@AEAW4ChannelOrder@ImageIo@2@_N2PEAX@Z 0000000140042a80 f i cinder:Texture.obj
 0001:00041b80       ??0?$ImageTargetGlTexture@Thalf_float@cinder@@@gl@cinder@@AEAA@PEBVTexture2d@12@AEAW4ChannelOrder@ImageIo@2@_N2PEAX@Z 0000000140042b80 f i cinder:Texture.obj
 0001:00041c80       ??0Format@Texture2d@gl@cinder@@QEAA@AEBU0123@@Z 0000000140042c80 f i cinder:Texture.obj
 0001:00041cf0       ??0Format@TextureBase@gl@cinder@@IEAA@XZ 0000000140042cf0 f   cinder:Texture.obj
 0001:00041da0       ??0Format@TextureBase@gl@cinder@@QEAA@AEBU0123@@Z 0000000140042da0 f i cinder:Texture.obj
 0001:00041eb0       ??0ImageIoException@cinder@@QEAA@AEBV01@@Z 0000000140042eb0 f i cinder:Texture.obj
 0001:00041f20       ??0ImageIoExceptionIllegalColorModel@cinder@@QEAA@AEBV01@@Z 0000000140042f20 f i cinder:Texture.obj
 0001:00041f90       ??0ImageIoExceptionIllegalColorModel@cinder@@QEAA@AEBV?$basic_string@DU?$char_traits@D@std@@V?$allocator@D@2@@std@@@Z 0000000140042f90 f i cinder:Texture.obj
 0001:00041fc0       ??0ImageSourceTexture@gl@cinder@@QEAA@AEAVTexture2d@12@@Z 0000000140042fc0 f i cinder:Texture.obj
 0001:000422f0       ??0Texture2d@gl@cinder@@IEAA@AEBV?$shared_ptr@VImageSource@cinder@@@std@@UFormat@012@@Z 00000001400432f0 f   cinder:Texture.obj
 0001:00042590       ??1?$_Temporary_owner_del@PEAVTexture2d@gl@cinder@@V?$function@$$A6AXPEAVTexture2d@gl@cinder@@@Z@std@@@std@@QEAA@XZ 0000000140043590 f i cinder:Texture.obj
 0001:000425d0       ??1?$_Tidy_guard@V?$numpunct@D@std@@@std@@QEAA@XZ 00000001400435d0 f i cinder:Texture.obj
 0001:00042610       ??1TextureBase@gl@cinder@@UEAA@XZ 0000000140043610 f   cinder:Texture.obj
 0001:000426c0       ??6?$basic_ostream@DU?$char_traits@D@std@@@std@@QEAAAEAV01@H@Z 00000001400436c0 f i cinder:Texture.obj
 0001:000428d0       ??6?$basic_ostream@DU?$char_traits@D@std@@@std@@QEAAAEAV01@I@Z 00000001400438d0 f i cinder:Texture.obj
 0001:00042ae0       ??6?$basic_ostream@DU?$char_traits@D@std@@@std@@QEAAAEAV01@_K@Z 0000000140043ae0 f i cinder:Texture.obj
 0001:00042cf0       ??_G?$ImageTargetGlTexture@E@gl@cinder@@UEAAPEAXI@Z 0000000140043cf0 f i cinder:Texture.obj
 0001:00042cf0       ??_E?$ImageTargetGlTexture@Thalf_float@cinder@@@gl@cinder@@UEAAPEAXI@Z 0000000140043cf0 f i cinder:Texture.obj
 0001:00042cf0       ??_G?$ImageTargetGlTexture@G@gl@cinder@@UEAAPEAXI@Z 0000000140043cf0 f i cinder:Texture.obj
 0001:00042cf0       ??_E?$ImageTargetGlTexture@M@gl@cinder@@UEAAPEAXI@Z 0000000140043cf0 f i cinder:Texture.obj
 0001:00042cf0       ??_E?$ImageTargetGlTexture@E@gl@cinder@@UEAAPEAXI@Z 0000000140043cf0 f i cinder:Texture.obj
 0001:00042cf0       ??_G?$ImageTargetGlTexture@Thalf_float@cinder@@@gl@cinder@@UEAAPEAXI@Z 0000000140043cf0 f i cinder:Texture.obj
 0001:00042cf0       ??_G?$ImageTargetGlTexture@M@gl@cinder@@UEAAPEAXI@Z 0000000140043cf0 f i cinder:Texture.obj
 0001:00042cf0       ??_E?$ImageTargetGlTexture@G@gl@cinder@@UEAAPEAXI@Z 0000000140043cf0 f i cinder:Texture.obj
 0001:00042d40       ??_E?$_Ref_count_resource@PEAVTexture2d@gl@cinder@@V?$function@$$A6AXPEAVTexture2d@gl@cinder@@@Z@std@@@std@@UEAAPEAXI@Z 0000000140043d40 f i cinder:Texture.obj
 0001:00042d40       ??_G?$_Ref_count_resource@PEAVTexture2d@gl@cinder@@V?$function@$$A6AXPEAVTexture2d@gl@cinder@@@Z@std@@@std@@UEAAPEAXI@Z 0000000140043d40 f i cinder:Texture.obj
 0001:00042da0       ??_G?$numpunct@D@std@@MEAAPEAXI@Z 0000000140043da0 f i cinder:Texture.obj
 0001:00042da0       ??_E?$numpunct@D@std@@MEAAPEAXI@Z 0000000140043da0 f i cinder:Texture.obj
 0001:00042e00       ??_EImageSourceTexture@gl@cinder@@UEAAPEAXI@Z 0000000140043e00 f i cinder:Texture.obj
 0001:00042e00       ??_GImageSourceTexture@gl@cinder@@UEAAPEAXI@Z 0000000140043e00 f i cinder:Texture.obj
 0001:00042e50       ??_ETexture2d@gl@cinder@@UEAAPEAXI@Z 0000000140043e50 f i cinder:Texture.obj
 0001:00042e50       ??_GTexture2d@gl@cinder@@UEAAPEAXI@Z 0000000140043e50 f i cinder:Texture.obj
 0001:00042e90       ??_GTextureBase@gl@cinder@@UEAAPEAXI@Z 0000000140043e90 f i cinder:Texture.obj
 0001:00042e90       ??_ETextureBase@gl@cinder@@UEAAPEAXI@Z 0000000140043e90 f i cinder:Texture.obj
 0001:00042ed0       ?_Destroy@?$_Ref_count_resource@PEAVTexture2d@gl@cinder@@V?$function@$$A6AXPEAVTexture2d@gl@cinder@@@Z@std@@@std@@EEAAXXZ 0000000140043ed0 f i cinder:Texture.obj
 0001:00042f00       ?_Fput@?$num_put@DV?$ostreambuf_iterator@DU?$char_traits@D@std@@@std@@@std@@AEBA?AV?$ostreambuf_iterator@DU?$char_traits@D@std@@@2@V32@AEAVios_base@2@DPEBD_K@Z 0000000140043f00 f i cinder:Texture.obj
 0001:00043600       ?_Get_deleter@?$_Ref_count_resource@PEAVTexture2d@gl@cinder@@V?$function@$$A6AXPEAVTexture2d@gl@cinder@@@Z@std@@@std@@UEBAPEAXAEBVtype_info@@@Z 0000000140044600 f i cinder:Texture.obj
 0001:00043630       ?_Getcat@?$num_put@DV?$ostreambuf_iterator@DU?$char_traits@D@std@@@std@@@std@@SA_KPEAPEBVfacet@locale@2@PEBV42@@Z 0000000140044630 f i cinder:Texture.obj
 0001:000437d0       ?_Getcat@?$numpunct@D@std@@SA_KPEAPEBVfacet@locale@2@PEBV42@@Z 00000001400447d0 f i cinder:Texture.obj
 0001:00043a50       ?_Iput@?$num_put@DV?$ostreambuf_iterator@DU?$char_traits@D@std@@@std@@@std@@AEBA?AV?$ostreambuf_iterator@DU?$char_traits@D@std@@@2@V32@AEAVios_base@2@DPEAD_K@Z 0000000140044a50 f i cinder:Texture.obj
 0001:000440d0       ?_Rep@?$num_put@DV?$ostreambuf_iterator@DU?$char_traits@D@std@@@std@@@std@@AEBA?AV?$ostreambuf_iterator@DU?$char_traits@D@std@@@2@V32@D_K@Z 00000001400450d0 f i cinder:Texture.obj
 0001:00044180       ?_Reset_move@?$_Func_class@XPEAVTexture2d@gl@cinder@@@std@@IEAAX$$QEAV12@@Z 0000000140045180 f i cinder:Texture.obj
 0001:000441f0       ?assign@?$basic_string@DU?$char_traits@D@std@@V?$allocator@D@2@@std@@QEAAAEAV12@_KD@Z 00000001400451f0 f i cinder:Texture.obj
 0001:00044360       ?create@Texture2d@gl@cinder@@SA?AV?$shared_ptr@VTexture2d@gl@cinder@@@std@@V?$shared_ptr@VImageSource@cinder@@@5@AEBUFormat@123@@Z 0000000140045360 f   cinder:Texture.obj
 0001:00044490       ?createSource@Texture2d@gl@cinder@@QEAA?AV?$shared_ptr@VImageSource@cinder@@@std@@XZ 0000000140045490 f   cinder:Texture.obj
 0001:00044530       ?do_decimal_point@?$numpunct@D@std@@MEBADXZ 0000000140045530 f i cinder:Texture.obj
 0001:00044540       ?do_falsename@?$numpunct@D@std@@MEBA?AV?$basic_string@DU?$char_traits@D@std@@V?$allocator@D@2@@2@XZ 0000000140045540 f i cinder:Texture.obj
 0001:00044590       ?do_grouping@?$numpunct@D@std@@MEBA?AV?$basic_string@DU?$char_traits@D@std@@V?$allocator@D@2@@2@XZ 0000000140045590 f i cinder:Texture.obj
 0001:000445e0       ?do_put@?$num_put@DV?$ostreambuf_iterator@DU?$char_traits@D@std@@@std@@@std@@MEBA?AV?$ostreambuf_iterator@DU?$char_traits@D@std@@@2@V32@AEAVios_base@2@DJ@Z 00000001400455e0 f i cinder:Texture.obj
 0001:00044710       ?do_put@?$num_put@DV?$ostreambuf_iterator@DU?$char_traits@D@std@@@std@@@std@@MEBA?AV?$ostreambuf_iterator@DU?$char_traits@D@std@@@2@V32@AEAVios_base@2@DK@Z 0000000140045710 f i cinder:Texture.obj
 0001:00044840       ?do_put@?$num_put@DV?$ostreambuf_iterator@DU?$char_traits@D@std@@@std@@@std@@MEBA?AV?$ostreambuf_iterator@DU?$char_traits@D@std@@@2@V32@AEAVios_base@2@DN@Z 0000000140045840 f i cinder:Texture.obj
 0001:00044b10       ?do_put@?$num_put@DV?$ostreambuf_iterator@DU?$char_traits@D@std@@@std@@@std@@MEBA?AV?$ostreambuf_iterator@DU?$char_traits@D@std@@@2@V32@AEAVios_base@2@DO@Z 0000000140045b10 f i cinder:Texture.obj
 0001:00044de0       ?do_put@?$num_put@DV?$ostreambuf_iterator@DU?$char_traits@D@std@@@std@@@std@@MEBA?AV?$ostreambuf_iterator@DU?$char_traits@D@std@@@2@V32@AEAVios_base@2@DPEBX@Z 0000000140045de0 f i cinder:Texture.obj
 0001:00044e90       ?do_put@?$num_put@DV?$ostreambuf_iterator@DU?$char_traits@D@std@@@std@@@std@@MEBA?AV?$ostreambuf_iterator@DU?$char_traits@D@std@@@2@V32@AEAVios_base@2@D_J@Z 0000000140045e90 f i cinder:Texture.obj
 0001:00044fc0       ?do_put@?$num_put@DV?$ostreambuf_iterator@DU?$char_traits@D@std@@@std@@@std@@MEBA?AV?$ostreambuf_iterator@DU?$char_traits@D@std@@@2@V32@AEAVios_base@2@D_K@Z 0000000140045fc0 f i cinder:Texture.obj
 0001:000450f0       ?do_put@?$num_put@DV?$ostreambuf_iterator@DU?$char_traits@D@std@@@std@@@std@@MEBA?AV?$ostreambuf_iterator@DU?$char_traits@D@std@@@2@V32@AEAVios_base@2@D_N@Z 00000001400460f0 f i cinder:Texture.obj
 0001:00045390       ?do_thousands_sep@?$numpunct@D@std@@MEBADXZ 0000000140046390 f i cinder:Texture.obj
 0001:000453a0       ?do_truename@?$numpunct@D@std@@MEBA?AV?$basic_string@DU?$char_traits@D@std@@V?$allocator@D@2@@2@XZ 00000001400463a0 f i cinder:Texture.obj
 0001:000453f0       ?getAreaTexCoords@Texture2d@gl@cinder@@QEBA?AV?$RectT@M@3@AEBVArea@3@@Z 00000001400463f0 f   cinder:Texture.obj
 0001:00045530       ?getBindingConstantForTarget@TextureBase@gl@cinder@@SAII@Z 0000000140046530 f   cinder:Texture.obj
 0001:000455d0       ?getHeight@Texture2d@gl@cinder@@UEBAHXZ 00000001400465d0 f i cinder:Texture.obj
 0001:000455e0       ?getInternalFormatInfo@TextureBase@gl@cinder@@SAXHPEAI0PEA_N11@Z 00000001400465e0 f   cinder:Texture.obj
 0001:00046250       ?getRowPointer@?$ImageTargetGlTexture@E@gl@cinder@@UEAAPEAXH@Z 0000000140047250 f i cinder:Texture.obj
 0001:000462a0       ?getRowPointer@?$ImageTargetGlTexture@Thalf_float@cinder@@@gl@cinder@@UEAAPEAXH@Z 00000001400472a0 f i cinder:Texture.obj
 0001:000462a0       ?getRowPointer@?$ImageTargetGlTexture@G@gl@cinder@@UEAAPEAXH@Z 00000001400472a0 f i cinder:Texture.obj
 0001:00046300       ?getRowPointer@?$ImageTargetGlTexture@M@gl@cinder@@UEAAPEAXH@Z 0000000140047300 f i cinder:Texture.obj
 0001:00046360       ?getWidth@Texture2d@gl@cinder@@UEBAHXZ 0000000140047360 f i cinder:Texture.obj
 0001:00046370       ?hasAlpha@?$ImageTargetGlTexture@Thalf_float@cinder@@@gl@cinder@@UEBA_NXZ 0000000140047370 f i cinder:Texture.obj
 0001:00046370       ?hasAlpha@?$ImageTargetGlTexture@E@gl@cinder@@UEBA_NXZ 0000000140047370 f i cinder:Texture.obj
 0001:00046370       ?hasAlpha@?$ImageTargetGlTexture@G@gl@cinder@@UEBA_NXZ 0000000140047370 f i cinder:Texture.obj
 0001:00046370       ?hasAlpha@?$ImageTargetGlTexture@M@gl@cinder@@UEBA_NXZ 0000000140047370 f i cinder:Texture.obj
 0001:00046380       ?initData@Texture2d@gl@cinder@@IEAAXAEBV?$shared_ptr@VImageSource@cinder@@@std@@AEBUFormat@123@@Z 0000000140047380 f   cinder:Texture.obj
 0001:000465b0       ?initDataImageSourceImpl@Texture2d@gl@cinder@@IEAAXAEBV?$shared_ptr@VImageSource@cinder@@@std@@AEBUFormat@123@HHW4ChannelOrder@ImageIo@3@_N@Z 00000001400475b0 f   cinder:Texture.obj
 0001:00046a00       ?initDataImageSourceWithPboImpl@Texture2d@gl@cinder@@IEAAXAEBV?$shared_ptr@VImageSource@cinder@@@std@@AEBUFormat@123@HHW4ChannelOrder@ImageIo@3@_NAEBV?$shared_ptr@VPbo@gl@cinder@@@5@@Z 0000000140047a00 f   cinder:Texture.obj
 0001:000471c0       ?initParams@TextureBase@gl@cinder@@IEAAXAEAUFormat@123@HH@Z 00000001400481c0 f   cinder:Texture.obj
 0001:000475b0       ?load@ImageSourceTexture@gl@cinder@@UEAAXV?$shared_ptr@VImageTarget@cinder@@@std@@@Z 00000001400485b0 f i cinder:Texture.obj
 0001:000476c0       ?printDims@Texture2d@gl@cinder@@MEBAXAEAV?$basic_ostream@DU?$char_traits@D@std@@@std@@@Z 00000001400486c0 f   cinder:Texture.obj
 0001:00047710       ?supportsHardwareSwizzle@TextureBase@gl@cinder@@SA_NXZ 0000000140048710 f   cinder:Texture.obj
 0001:00047870       sprintf_s                  0000000140048870 f i cinder:Texture.obj
 0001:000478d0       ??$?HDU?$char_traits@D@std@@V?$allocator@D@1@@std@@YA?AV?$basic_string@DU?$char_traits@D@std@@V?$allocator@D@2@@0@QEBDAEBV10@@Z 00000001400488d0 f i cinder:ImageIo.obj
 0001:00047a20       ??$_Copy_nodes@U_Copy_tag@?$_Tree@V?$_Tmap_traits@HP6A?AV?$shared_ptr@VImageSource@cinder@@@std@@V?$shared_ptr@VDataSource@cinder@@@2@VOptions@ImageSource@cinder@@@ZU?$less@H@2@V?$allocator@U?$pair@$$CBHP6A?AV?$shared_ptr@VImageSource@cinder@@@std@@V?$shared_ptr@VDataSource@cinder@@@2@VOptions@ImageSource@cinder@@@Z@std@@@2@$00@std@@@std@@@?$_Tree@V?$_Tmap_traits@HP6A?AV?$shared_ptr@VImageSource@cinder@@@std@@V?$shared_ptr@VDataSource@cinder@@@2@VOptions@ImageSource@cinder@@@ZU?$less@H@2@V?$allocator@U?$pair@$$CBHP6A?AV?$shared_ptr@VImageSource@cinder@@@std@@V?$shared_ptr@VDataSource@cinder@@@2@VOptions@ImageSource@cinder@@@Z@std@@@2@$00@std@@@std@@IEAAPEAU?$_Tree_node@U?$pair@$$CBHP6A?AV?$shared_ptr@VImageSource@cinder@@@std@@V?$shared_ptr@VDataSource@cinder@@@2@VOptions@ImageSource@cinder@@@Z@std@@PEAX@1@PEAU21@0U_Copy_tag@01@@Z 0000000140048a20 f i cinder:ImageIo.obj
 0001:00047ae0       ??$_Copy_nodes@U_Copy_tag@?$_Tree@V?$_Tmap_traits@HU?$pair@P6A?AV?$shared_ptr@VImageTarget@cinder@@@std@@V?$shared_ptr@VDataTarget@cinder@@@2@V?$shared_ptr@VImageSource@cinder@@@2@VOptions@ImageTarget@cinder@@AEBV?$basic_string@DU?$char_traits@D@std@@V?$allocator@D@2@@2@@ZV82@@std@@U?$less@H@2@V?$allocator@U?$pair@$$CBHU?$pair@P6A?AV?$shared_ptr@VImageTarget@cinder@@@std@@V?$shared_ptr@VDataTarget@cinder@@@2@V?$shared_ptr@VImageSource@cinder@@@2@VOptions@ImageTarget@cinder@@AEBV?$basic_string@DU?$char_traits@D@std@@V?$allocator@D@2@@2@@ZV82@@std@@@std@@@2@$00@std@@@std@@@?$_Tree@V?$_Tmap_traits@HU?$pair@P6A?AV?$shared_ptr@VImageTarget@cinder@@@std@@V?$shared_ptr@VDataTarget@cinder@@@2@V?$shared_ptr@VImageSource@cinder@@@2@VOptions@ImageTarget@cinder@@AEBV?$basic_string@DU?$char_traits@D@std@@V?$allocator@D@2@@2@@ZV82@@std@@U?$less@H@2@V?$allocator@U?$pair@$$CBHU?$pair@P6A?AV?$shared_ptr@VImageTarget@cinder@@@std@@V?$shared_ptr@VDataTarget@cinder@@@2@V?$shared_ptr@VImageSource@cinder@@@2@VOptions@ImageTarget@cinder@@AEBV?$basic_string@DU?$char_traits@D@std@@V?$allocator@D@2@@2@@ZV82@@std@@@std@@@2@$00@std@@@std@@IEAAPEAU?$_Tree_node@U?$pair@$$CBHU?$pair@P6A?AV?$shared_ptr@VImageTarget@cinder@@@std@@V?$shared_ptr@VDataTarget@cinder@@@2@V?$shared_ptr@VImageSource@cinder@@@2@VOptions@ImageTarget@cinder@@AEBV?$basic_string@DU?$char_traits@D@std@@V?$allocator@D@2@@2@@ZV82@@std@@@std@@PEAX@1@PEAU21@0U_Copy_tag@01@@Z 0000000140048ae0 f i cinder:ImageIo.obj
 0001:00047bc0       ??$_Erase_head@V?$allocator@U?$_Tree_node@U?$pair@$$CBHP6A?AV?$shared_ptr@VImageSource@cinder@@@std@@V?$shared_ptr@VDataSource@cinder@@@2@VOptions@ImageSource@cinder@@@Z@std@@PEAX@std@@@std@@@?$_Tree_val@U?$_Tree_simple_types@U?$pair@$$CBHP6A?AV?$shared_ptr@VImageSource@cinder@@@std@@V?$shared_ptr@VDataSource@cinder@@@2@VOptions@ImageSource@cinder@@@Z@std@@@std@@@std@@QEAAXAEAV?$allocator@U?$_Tree_node@U?$pair@$$CBHP6A?AV?$shared_ptr@VImageSource@cinder@@@std@@V?$shared_ptr@VDataSource@cinder@@@2@VOptions@ImageSource@cinder@@@Z@std@@PEAX@std@@@1@@Z 0000000140048bc0 f i cinder:ImageIo.obj
 0001:00047c40       ??$_Erase_tree_and_orphan@V?$allocator@U?$_Tree_node@U?$pair@$$CBHU?$pair@P6A?AV?$shared_ptr@VImageTarget@cinder@@@std@@V?$shared_ptr@VDataTarget@cinder@@@2@V?$shared_ptr@VImageSource@cinder@@@2@VOptions@ImageTarget@cinder@@AEBV?$basic_string@DU?$char_traits@D@std@@V?$allocator@D@2@@2@@ZV82@@std@@@std@@PEAX@std@@@std@@@?$_Tree_val@U?$_Tree_simple_types@U?$pair@$$CBHU?$pair@P6A?AV?$shared_ptr@VImageTarget@cinder@@@std@@V?$shared_ptr@VDataTarget@cinder@@@2@V?$shared_ptr@VImageSource@cinder@@@2@VOptions@ImageTarget@cinder@@AEBV?$basic_string@DU?$char_traits@D@std@@V?$allocator@D@2@@2@@ZV82@@std@@@std@@@std@@@std@@QEAAXAEAV?$allocator@U?$_Tree_node@U?$pair@$$CBHU?$pair@P6A?AV?$shared_ptr@VImageTarget@cinder@@@std@@V?$shared_ptr@VDataTarget@cinder@@@2@V?$shared_ptr@VImageSource@cinder@@@2@VOptions@ImageTarget@cinder@@AEBV?$basic_string@DU?$char_traits@D@std@@V?$allocator@D@2@@2@@ZV82@@std@@@std@@PEAX@std@@@1@PEAU?$_Tree_node@U?$pair@$$CBHU?$pair@P6A?AV?$shared_ptr@VImageTarget@cinder@@@std@@V?$shared_ptr@VDataTarget@cinder@@@2@V?$shared_ptr@VImageSource@cinder@@@2@VOptions@ImageTarget@cinder@@AEBV?$basic_string@DU?$char_traits@D@std@@V?$allocator@D@2@@2@@ZV82@@std@@@std@@PEAX@1@@Z 0000000140048c40 f i cinder:ImageIo.obj
 0001:00047c40       ??$_Erase_tree@V?$allocator@U?$_Tree_node@U?$pair@$$CBHU?$pair@P6A?AV?$shared_ptr@VImageTarget@cinder@@@std@@V?$shared_ptr@VDataTarget@cinder@@@2@V?$shared_ptr@VImageSource@cinder@@@2@VOptions@ImageTarget@cinder@@AEBV?$basic_string@DU?$char_traits@D@std@@V?$allocator@D@2@@2@@ZV82@@std@@@std@@PEAX@std@@@std@@@?$_Tree_val@U?$_Tree_simple_types@U?$pair@$$CBHU?$pair@P6A?AV?$shared_ptr@VImageTarget@cinder@@@std@@V?$shared_ptr@VDataTarget@cinder@@@2@V?$shared_ptr@VImageSource@cinder@@@2@VOptions@ImageTarget@cinder@@AEBV?$basic_string@DU?$char_traits@D@std@@V?$allocator@D@2@@2@@ZV82@@std@@@std@@@std@@@std@@QEAAXAEAV?$allocator@U?$_Tree_node@U?$pair@$$CBHU?$pair@P6A?AV?$shared_ptr@VImageTarget@cinder@@@std@@V?$shared_ptr@VDataTarget@cinder@@@2@V?$shared_ptr@VImageSource@cinder@@@2@VOptions@ImageTarget@cinder@@AEBV?$basic_string@DU?$char_traits@D@std@@V?$allocator@D@2@@2@@ZV82@@std@@@std@@PEAX@std@@@1@PEAU?$_Tree_node@U?$pair@$$CBHU?$pair@P6A?AV?$shared_ptr@VImageTarget@cinder@@@std@@V?$shared_ptr@VDataTarget@cinder@@@2@V?$shared_ptr@VImageSource@cinder@@@2@VOptions@ImageTarget@cinder@@AEBV?$basic_string@DU?$char_traits@D@std@@V?$allocator@D@2@@2@@ZV82@@std@@@std@@PEAX@1@@Z 0000000140048c40 f i cinder:ImageIo.obj
 0001:00047cc0       ??$_Erase_tree@V?$allocator@U?$_Tree_node@U?$pair@$$CBV?$basic_string@DU?$char_traits@D@std@@V?$allocator@D@2@@std@@V?$multimap@HP6A?AV?$shared_ptr@VImageSource@cinder@@@std@@V?$shared_ptr@VDataSource@cinder@@@2@VOptions@ImageSource@cinder@@@ZU?$less@H@2@V?$allocator@U?$pair@$$CBHP6A?AV?$shared_ptr@VImageSource@cinder@@@std@@V?$shared_ptr@VDataSource@cinder@@@2@VOptions@ImageSource@cinder@@@Z@std@@@2@@2@@std@@PEAX@std@@@std@@@?$_Tree_val@U?$_Tree_simple_types@U?$pair@$$CBV?$basic_string@DU?$char_traits@D@std@@V?$allocator@D@2@@std@@V?$multimap@HP6A?AV?$shared_ptr@VImageSource@cinder@@@std@@V?$shared_ptr@VDataSource@cinder@@@2@VOptions@ImageSource@cinder@@@ZU?$less@H@2@V?$allocator@U?$pair@$$CBHP6A?AV?$shared_ptr@VImageSource@cinder@@@std@@V?$shared_ptr@VDataSource@cinder@@@2@VOptions@ImageSource@cinder@@@Z@std@@@2@@2@@std@@@std@@@std@@QEAAXAEAV?$allocator@U?$_Tree_node@U?$pair@$$CBV?$basic_string@DU?$char_traits@D@std@@V?$allocator@D@2@@std@@V?$multimap@HP6A?AV?$shared_ptr@VImageSource@cinder@@@std@@V?$shared_ptr@VDataSource@cinder@@@2@VOptions@ImageSource@cinder@@@ZU?$less@H@2@V?$allocator@U?$pair@$$CBHP6A?AV?$shared_ptr@VImageSource@cinder@@@std@@V?$shared_ptr@VDataSource@cinder@@@2@VOptions@ImageSource@cinder@@@Z@std@@@2@@2@@std@@PEAX@std@@@1@PEAU?$_Tree_node@U?$pair@$$CBV?$basic_string@DU?$char_traits@D@std@@V?$allocator@D@2@@std@@V?$multimap@HP6A?AV?$shared_ptr@VImageSource@cinder@@@std@@V?$shared_ptr@VDataSource@cinder@@@2@VOptions@ImageSource@cinder@@@ZU?$less@H@2@V?$allocator@U?$pair@$$CBHP6A?AV?$shared_ptr@VImageSource@cinder@@@std@@V?$shared_ptr@VDataSource@cinder@@@2@VOptions@ImageSource@cinder@@@Z@std@@@2@@2@@std@@PEAX@1@@Z 0000000140048cc0 f i cinder:ImageIo.obj
 0001:00047d40       ??$_Erase_tree@V?$allocator@U?$_Tree_node@U?$pair@$$CBV?$basic_string@DU?$char_traits@D@std@@V?$allocator@D@2@@std@@V?$multimap@HU?$pair@P6A?AV?$shared_ptr@VImageTarget@cinder@@@std@@V?$shared_ptr@VDataTarget@cinder@@@2@V?$shared_ptr@VImageSource@cinder@@@2@VOptions@ImageTarget@cinder@@AEBV?$basic_string@DU?$char_traits@D@std@@V?$allocator@D@2@@2@@ZV82@@std@@U?$less@H@2@V?$allocator@U?$pair@$$CBHU?$pair@P6A?AV?$shared_ptr@VImageTarget@cinder@@@std@@V?$shared_ptr@VDataTarget@cinder@@@2@V?$shared_ptr@VImageSource@cinder@@@2@VOptions@ImageTarget@cinder@@AEBV?$basic_string@DU?$char_traits@D@std@@V?$allocator@D@2@@2@@ZV82@@std@@@std@@@2@@2@@std@@PEAX@std@@@std@@@?$_Tree_val@U?$_Tree_simple_types@U?$pair@$$CBV?$basic_string@DU?$char_traits@D@std@@V?$allocator@D@2@@std@@V?$multimap@HU?$pair@P6A?AV?$shared_ptr@VImageTarget@cinder@@@std@@V?$shared_ptr@VDataTarget@cinder@@@2@V?$shared_ptr@VImageSource@cinder@@@2@VOptions@ImageTarget@cinder@@AEBV?$basic_string@DU?$char_traits@D@std@@V?$allocator@D@2@@2@@ZV82@@std@@U?$less@H@2@V?$allocator@U?$pair@$$CBHU?$pair@P6A?AV?$shared_ptr@VImageTarget@cinder@@@std@@V?$shared_ptr@VDataTarget@cinder@@@2@V?$shared_ptr@VImageSource@cinder@@@2@VOptions@ImageTarget@cinder@@AEBV?$basic_string@DU?$char_traits@D@std@@V?$allocator@D@2@@2@@ZV82@@std@@@std@@@2@@2@@std@@@std@@@std@@QEAAXAEAV?$allocator@U?$_Tree_node@U?$pair@$$CBV?$basic_string@DU?$char_traits@D@std@@V?$allocator@D@2@@std@@V?$multimap@HU?$pair@P6A?AV?$shared_ptr@VImageTarget@cinder@@@std@@V?$shared_ptr@VDataTarget@cinder@@@2@V?$shared_ptr@VImageSource@cinder@@@2@VOptions@ImageTarget@cinder@@AEBV?$basic_string@DU?$char_traits@D@std@@V?$allocator@D@2@@2@@ZV82@@std@@U?$less@H@2@V?$allocator@U?$pair@$$CBHU?$pair@P6A?AV?$shared_ptr@VImageTarget@cinder@@@std@@V?$shared_ptr@VDataTarget@cinder@@@2@V?$shared_ptr@VImageSource@cinder@@@2@VOptions@ImageTarget@cinder@@AEBV?$basic_string@DU?$char_traits@D@std@@V?$allocator@D@2@@2@@ZV82@@std@@@std@@@2@@2@@std@@PEAX@std@@@1@PEAU?$_Tree_node@U?$pair@$$CBV?$basic_string@DU?$char_traits@D@std@@V?$allocator@D@2@@std@@V?$multimap@HU?$pair@P6A?AV?$shared_ptr@VImageTarget@cinder@@@std@@V?$shared_ptr@VDataTarget@cinder@@@2@V?$shared_ptr@VImageSource@cinder@@@2@VOptions@ImageTarget@cinder@@AEBV?$basic_string@DU?$char_traits@D@std@@V?$allocator@D@2@@2@@ZV82@@std@@U?$less@H@2@V?$allocator@U?$pair@$$CBHU?$pair@P6A?AV?$shared_ptr@VImageTarget@cinder@@@std@@V?$shared_ptr@VDataTarget@cinder@@@2@V?$shared_ptr@VImageSource@cinder@@@2@VOptions@ImageTarget@cinder@@AEBV?$basic_string@DU?$char_traits@D@std@@V?$allocator@D@2@@2@@ZV82@@std@@@std@@@2@@2@@std@@PEAX@1@@Z 0000000140048d40 f i cinder:ImageIo.obj
 0001:00047dc0       ??$_Find_lower_bound@V?$basic_string@DU?$char_traits@D@std@@V?$allocator@D@2@@std@@@?$_Tree@V?$_Tmap_traits@V?$basic_string@DU?$char_traits@D@std@@V?$allocator@D@2@@std@@W4UniformSemantic@gl@cinder@@U?$less@V?$basic_string@DU?$char_traits@D@std@@V?$allocator@D@2@@std@@@2@V?$allocator@U?$pair@$$CBV?$basic_string@DU?$char_traits@D@std@@V?$allocator@D@2@@std@@W4UniformSemantic@gl@cinder@@@std@@@2@$0A@@std@@@std@@IEBA?AU?$_Tree_find_result@PEAU?$_Tree_node@U?$pair@$$CBV?$basic_string@DU?$char_traits@D@std@@V?$allocator@D@2@@std@@W4UniformSemantic@gl@cinder@@@std@@PEAX@std@@@1@AEBV?$basic_string@DU?$char_traits@D@std@@V?$allocator@D@2@@1@@Z 0000000140048dc0 f i cinder:GlslProg.obj
 0001:00047dc0       ??$_Find_lower_bound@V?$basic_string@DU?$char_traits@D@std@@V?$allocator@D@2@@std@@@?$_Tree@V?$_Tmap_traits@V?$basic_string@DU?$char_traits@D@std@@V?$allocator@D@2@@std@@PEBU_GUID@@U?$less@V?$basic_string@DU?$char_traits@D@std@@V?$allocator@D@2@@std@@@2@V?$allocator@U?$pair@$$CBV?$basic_string@DU?$char_traits@D@std@@V?$allocator@D@2@@std@@PEBU_GUID@@@std@@@2@$0A@@std@@@std@@IEBA?AU?$_Tree_find_result@PEAU?$_Tree_node@U?$pair@$$CBV?$basic_string@DU?$char_traits@D@std@@V?$allocator@D@2@@std@@PEBU_GUID@@@std@@PEAX@std@@@1@AEBV?$basic_string@DU?$char_traits@D@std@@V?$allocator@D@2@@1@@Z 0000000140048dc0 f i cinder:ImageTargetFileWic.obj
 0001:00047dc0       ??$_Find_lower_bound@V?$basic_string@DU?$char_traits@D@std@@V?$allocator@D@2@@std@@@?$_Tree@V?$_Tmap_traits@V?$basic_string@DU?$char_traits@D@std@@V?$allocator@D@2@@std@@W4Attrib@geom@cinder@@U?$less@V?$basic_string@DU?$char_traits@D@std@@V?$allocator@D@2@@std@@@2@V?$allocator@U?$pair@$$CBV?$basic_string@DU?$char_traits@D@std@@V?$allocator@D@2@@std@@W4Attrib@geom@cinder@@@std@@@2@$0A@@std@@@std@@IEBA?AU?$_Tree_find_result@PEAU?$_Tree_node@U?$pair@$$CBV?$basic_string@DU?$char_traits@D@std@@V?$allocator@D@2@@std@@W4Attrib@geom@cinder@@@std@@PEAX@std@@@1@AEBV?$basic_string@DU?$char_traits@D@std@@V?$allocator@D@2@@1@@Z 0000000140048dc0 f i cinder:GlslProg.obj
 0001:00047dc0       ??$_Find_lower_bound@V?$basic_string@DU?$char_traits@D@std@@V?$allocator@D@2@@std@@@?$_Tree@V?$_Tmap_traits@V?$basic_string@DU?$char_traits@D@std@@V?$allocator@D@2@@std@@V?$multimap@HU?$pair@P6A?AV?$shared_ptr@VImageTarget@cinder@@@std@@V?$shared_ptr@VDataTarget@cinder@@@2@V?$shared_ptr@VImageSource@cinder@@@2@VOptions@ImageTarget@cinder@@AEBV?$basic_string@DU?$char_traits@D@std@@V?$allocator@D@2@@2@@ZV82@@std@@U?$less@H@2@V?$allocator@U?$pair@$$CBHU?$pair@P6A?AV?$shared_ptr@VImageTarget@cinder@@@std@@V?$shared_ptr@VDataTarget@cinder@@@2@V?$shared_ptr@VImageSource@cinder@@@2@VOptions@ImageTarget@cinder@@AEBV?$basic_string@DU?$char_traits@D@std@@V?$allocator@D@2@@2@@ZV82@@std@@@std@@@2@@2@U?$less@V?$basic_string@DU?$char_traits@D@std@@V?$allocator@D@2@@std@@@2@V?$allocator@U?$pair@$$CBV?$basic_string@DU?$char_traits@D@std@@V?$allocator@D@2@@std@@V?$multimap@HU?$pair@P6A?AV?$shared_ptr@VImageTarget@cinder@@@std@@V?$shared_ptr@VDataTarget@cinder@@@2@V?$shared_ptr@VImageSource@cinder@@@2@VOptions@ImageTarget@cinder@@AEBV?$basic_string@DU?$char_traits@D@std@@V?$allocator@D@2@@2@@ZV82@@std@@U?$less@H@2@V?$allocator@U?$pair@$$CBHU?$pair@P6A?AV?$shared_ptr@VImageTarget@cinder@@@std@@V?$shared_ptr@VDataTarget@cinder@@@2@V?$shared_ptr@VImageSource@cinder@@@2@VOptions@ImageTarget@cinder@@AEBV?$basic_string@DU?$char_traits@D@std@@V?$allocator@D@2@@2@@ZV82@@std@@@std@@@2@@2@@std@@@2@$0A@@std@@@std@@IEBA?AU?$_Tree_find_result@PEAU?$_Tree_node@U?$pair@$$CBV?$basic_string@DU?$char_traits@D@std@@V?$allocator@D@2@@std@@V?$multimap@HU?$pair@P6A?AV?$shared_ptr@VImageTarget@cinder@@@std@@V?$shared_ptr@VDataTarget@cinder@@@2@V?$shared_ptr@VImageSource@cinder@@@2@VOptions@ImageTarget@cinder@@AEBV?$basic_string@DU?$char_traits@D@std@@V?$allocator@D@2@@2@@ZV82@@std@@U?$less@H@2@V?$allocator@U?$pair@$$CBHU?$pair@P6A?AV?$shared_ptr@VImageTarget@cinder@@@std@@V?$shared_ptr@VDataTarget@cinder@@@2@V?$shared_ptr@VImageSource@cinder@@@2@VOptions@ImageTarget@cinder@@AEBV?$basic_string@DU?$char_traits@D@std@@V?$allocator@D@2@@2@@ZV82@@std@@@std@@@2@@2@@std@@PEAX@std@@@1@AEBV?$basic_string@DU?$char_traits@D@std@@V?$allocator@D@2@@1@@Z 0000000140048dc0 f i cinder:ImageIo.obj
 0001:00047dc0       ??$_Find_lower_bound@V?$basic_string@DU?$char_traits@D@std@@V?$allocator@D@2@@std@@@?$_Tree@V?$_Tmap_traits@V?$basic_string@DU?$char_traits@D@std@@V?$allocator@D@2@@std@@V?$multimap@HP6A?AV?$shared_ptr@VImageSource@cinder@@@std@@V?$shared_ptr@VDataSource@cinder@@@2@VOptions@ImageSource@cinder@@@ZU?$less@H@2@V?$allocator@U?$pair@$$CBHP6A?AV?$shared_ptr@VImageSource@cinder@@@std@@V?$shared_ptr@VDataSource@cinder@@@2@VOptions@ImageSource@cinder@@@Z@std@@@2@@2@U?$less@V?$basic_string@DU?$char_traits@D@std@@V?$allocator@D@2@@std@@@2@V?$allocator@U?$pair@$$CBV?$basic_string@DU?$char_traits@D@std@@V?$allocator@D@2@@std@@V?$multimap@HP6A?AV?$shared_ptr@VImageSource@cinder@@@std@@V?$shared_ptr@VDataSource@cinder@@@2@VOptions@ImageSource@cinder@@@ZU?$less@H@2@V?$allocator@U?$pair@$$CBHP6A?AV?$shared_ptr@VImageSource@cinder@@@std@@V?$shared_ptr@VDataSource@cinder@@@2@VOptions@ImageSource@cinder@@@Z@std@@@2@@2@@std@@@2@$0A@@std@@@std@@IEBA?AU?$_Tree_find_result@PEAU?$_Tree_node@U?$pair@$$CBV?$basic_string@DU?$char_traits@D@std@@V?$allocator@D@2@@std@@V?$multimap@HP6A?AV?$shared_ptr@VImageSource@cinder@@@std@@V?$shared_ptr@VDataSource@cinder@@@2@VOptions@ImageSource@cinder@@@ZU?$less@H@2@V?$allocator@U?$pair@$$CBHP6A?AV?$shared_ptr@VImageSource@cinder@@@std@@V?$shared_ptr@VDataSource@cinder@@@2@VOptions@ImageSource@cinder@@@Z@std@@@2@@2@@std@@PEAX@std@@@1@AEBV?$basic_string@DU?$char_traits@D@std@@V?$allocator@D@2@@1@@Z 0000000140048dc0 f i cinder:ImageIo.obj
 0001:00047dc0       ??$_Find_lower_bound@V?$basic_string@DU?$char_traits@D@std@@V?$allocator@D@2@@std@@@?$_Tree@V?$_Tset_traits@V?$basic_string@DU?$char_traits@D@std@@V?$allocator@D@2@@std@@U?$less@V?$basic_string@DU?$char_traits@D@std@@V?$allocator@D@2@@std@@@2@V?$allocator@V?$basic_string@DU?$char_traits@D@std@@V?$allocator@D@2@@std@@@2@$0A@@std@@@std@@IEBA?AU?$_Tree_find_result@PEAU?$_Tree_node@V?$basic_string@DU?$char_traits@D@std@@V?$allocator@D@2@@std@@PEAX@std@@@1@AEBV?$basic_string@DU?$char_traits@D@std@@V?$allocator@D@2@@1@@Z 0000000140048dc0 f i cinder:GlslProg.obj
 0001:00047e90       ??$destroy@U?$pair@$$CBV?$basic_string@DU?$char_traits@D@std@@V?$allocator@D@2@@std@@V?$multimap@HP6A?AV?$shared_ptr@VImageSource@cinder@@@std@@V?$shared_ptr@VDataSource@cinder@@@2@VOptions@ImageSource@cinder@@@ZU?$less@H@2@V?$allocator@U?$pair@$$CBHP6A?AV?$shared_ptr@VImageSource@cinder@@@std@@V?$shared_ptr@VDataSource@cinder@@@2@VOptions@ImageSource@cinder@@@Z@std@@@2@@2@@std@@@?$_Default_allocator_traits@V?$allocator@U?$_Tree_node@U?$pair@$$CBV?$basic_string@DU?$char_traits@D@std@@V?$allocator@D@2@@std@@V?$multimap@HP6A?AV?$shared_ptr@VImageSource@cinder@@@std@@V?$shared_ptr@VDataSource@cinder@@@2@VOptions@ImageSource@cinder@@@ZU?$less@H@2@V?$allocator@U?$pair@$$CBHP6A?AV?$shared_ptr@VImageSource@cinder@@@std@@V?$shared_ptr@VDataSource@cinder@@@2@VOptions@ImageSource@cinder@@@Z@std@@@2@@2@@std@@PEAX@std@@@std@@@std@@SAXAEAV?$allocator@U?$_Tree_node@U?$pair@$$CBV?$basic_string@DU?$char_traits@D@std@@V?$allocator@D@2@@std@@V?$multimap@HP6A?AV?$shared_ptr@VImageSource@cinder@@@std@@V?$shared_ptr@VDataSource@cinder@@@2@VOptions@ImageSource@cinder@@@ZU?$less@H@2@V?$allocator@U?$pair@$$CBHP6A?AV?$shared_ptr@VImageSource@cinder@@@std@@V?$shared_ptr@VDataSource@cinder@@@2@VOptions@ImageSource@cinder@@@Z@std@@@2@@2@@std@@PEAX@std@@@1@QEAU?$pair@$$CBV?$basic_string@DU?$char_traits@D@std@@V?$allocator@D@2@@std@@V?$multimap@HP6A?AV?$shared_ptr@VImageSource@cinder@@@std@@V?$shared_ptr@VDataSource@cinder@@@2@VOptions@ImageSource@cinder@@@ZU?$less@H@2@V?$allocator@U?$pair@$$CBHP6A?AV?$shared_ptr@VImageSource@cinder@@@std@@V?$shared_ptr@VDataSource@cinder@@@2@VOptions@ImageSource@cinder@@@Z@std@@@2@@2@@1@@Z 0000000140048e90 f i cinder:ImageIo.obj
 0001:00047f00       ??$destroy@U?$pair@$$CBV?$basic_string@DU?$char_traits@D@std@@V?$allocator@D@2@@std@@V?$multimap@HU?$pair@P6A?AV?$shared_ptr@VImageTarget@cinder@@@std@@V?$shared_ptr@VDataTarget@cinder@@@2@V?$shared_ptr@VImageSource@cinder@@@2@VOptions@ImageTarget@cinder@@AEBV?$basic_string@DU?$char_traits@D@std@@V?$allocator@D@2@@2@@ZV82@@std@@U?$less@H@2@V?$allocator@U?$pair@$$CBHU?$pair@P6A?AV?$shared_ptr@VImageTarget@cinder@@@std@@V?$shared_ptr@VDataTarget@cinder@@@2@V?$shared_ptr@VImageSource@cinder@@@2@VOptions@ImageTarget@cinder@@AEBV?$basic_string@DU?$char_traits@D@std@@V?$allocator@D@2@@2@@ZV82@@std@@@std@@@2@@2@@std@@@?$_Default_allocator_traits@V?$allocator@U?$_Tree_node@U?$pair@$$CBV?$basic_string@DU?$char_traits@D@std@@V?$allocator@D@2@@std@@V?$multimap@HU?$pair@P6A?AV?$shared_ptr@VImageTarget@cinder@@@std@@V?$shared_ptr@VDataTarget@cinder@@@2@V?$shared_ptr@VImageSource@cinder@@@2@VOptions@ImageTarget@cinder@@AEBV?$basic_string@DU?$char_traits@D@std@@V?$allocator@D@2@@2@@ZV82@@std@@U?$less@H@2@V?$allocator@U?$pair@$$CBHU?$pair@P6A?AV?$shared_ptr@VImageTarget@cinder@@@std@@V?$shared_ptr@VDataTarget@cinder@@@2@V?$shared_ptr@VImageSource@cinder@@@2@VOptions@ImageTarget@cinder@@AEBV?$basic_string@DU?$char_traits@D@std@@V?$allocator@D@2@@2@@ZV82@@std@@@std@@@2@@2@@std@@PEAX@std@@@std@@@std@@SAXAEAV?$allocator@U?$_Tree_node@U?$pair@$$CBV?$basic_string@DU?$char_traits@D@std@@V?$allocator@D@2@@std@@V?$multimap@HU?$pair@P6A?AV?$shared_ptr@VImageTarget@cinder@@@std@@V?$shared_ptr@VDataTarget@cinder@@@2@V?$shared_ptr@VImageSource@cinder@@@2@VOptions@ImageTarget@cinder@@AEBV?$basic_string@DU?$char_traits@D@std@@V?$allocator@D@2@@2@@ZV82@@std@@U?$less@H@2@V?$allocator@U?$pair@$$CBHU?$pair@P6A?AV?$shared_ptr@VImageTarget@cinder@@@std@@V?$shared_ptr@VDataTarget@cinder@@@2@V?$shared_ptr@VImageSource@cinder@@@2@VOptions@ImageTarget@cinder@@AEBV?$basic_string@DU?$char_traits@D@std@@V?$allocator@D@2@@2@@ZV82@@std@@@std@@@2@@2@@std@@PEAX@std@@@1@QEAU?$pair@$$CBV?$basic_string@DU?$char_traits@D@std@@V?$allocator@D@2@@std@@V?$multimap@HU?$pair@P6A?AV?$shared_ptr@VImageTarget@cinder@@@std@@V?$shared_ptr@VDataTarget@cinder@@@2@V?$shared_ptr@VImageSource@cinder@@@2@VOptions@ImageTarget@cinder@@AEBV?$basic_string@DU?$char_traits@D@std@@V?$allocator@D@2@@2@@ZV82@@std@@U?$less@H@2@V?$allocator@U?$pair@$$CBHU?$pair@P6A?AV?$shared_ptr@VImageTarget@cinder@@@std@@V?$shared_ptr@VDataTarget@cinder@@@2@V?$shared_ptr@VImageSource@cinder@@@2@VOptions@ImageTarget@cinder@@AEBV?$basic_string@DU?$char_traits@D@std@@V?$allocator@D@2@@2@@ZV82@@std@@@std@@@2@@2@@1@@Z 0000000140048f00 f i cinder:ImageIo.obj
 0001:00047f90       ??$insert@U?$pair@HP6A?AV?$shared_ptr@VImageSource@cinder@@@std@@V?$shared_ptr@VDataSource@cinder@@@2@VOptions@ImageSource@cinder@@@Z@std@@$0A@@?$multimap@HP6A?AV?$shared_ptr@VImageSource@cinder@@@std@@V?$shared_ptr@VDataSource@cinder@@@2@VOptions@ImageSource@cinder@@@ZU?$less@H@2@V?$allocator@U?$pair@$$CBHP6A?AV?$shared_ptr@VImageSource@cinder@@@std@@V?$shared_ptr@VDataSource@cinder@@@2@VOptions@ImageSource@cinder@@@Z@std@@@2@@std@@QEAA?AV?$_Tree_iterator@V?$_Tree_val@U?$_Tree_simple_types@U?$pair@$$CBHP6A?AV?$shared_ptr@VImageSource@cinder@@@std@@V?$shared_ptr@VDataSource@cinder@@@2@VOptions@ImageSource@cinder@@@Z@std@@@std@@@std@@@1@$$QEAU?$pair@HP6A?AV?$shared_ptr@VImageSource@cinder@@@std@@V?$shared_ptr@VDataSource@cinder@@@2@VOptions@ImageSource@cinder@@@Z@1@@Z 0000000140048f90 f i cinder:ImageIo.obj
 0001:00048080       ??$insert@U?$pair@HU?$pair@P6A?AV?$shared_ptr@VImageTarget@cinder@@@std@@V?$shared_ptr@VDataTarget@cinder@@@2@V?$shared_ptr@VImageSource@cinder@@@2@VOptions@ImageTarget@cinder@@AEBV?$basic_string@DU?$char_traits@D@std@@V?$allocator@D@2@@2@@ZV82@@std@@@std@@$0A@@?$multimap@HU?$pair@P6A?AV?$shared_ptr@VImageTarget@cinder@@@std@@V?$shared_ptr@VDataTarget@cinder@@@2@V?$shared_ptr@VImageSource@cinder@@@2@VOptions@ImageTarget@cinder@@AEBV?$basic_string@DU?$char_traits@D@std@@V?$allocator@D@2@@2@@ZV82@@std@@U?$less@H@2@V?$allocator@U?$pair@$$CBHU?$pair@P6A?AV?$shared_ptr@VImageTarget@cinder@@@std@@V?$shared_ptr@VDataTarget@cinder@@@2@V?$shared_ptr@VImageSource@cinder@@@2@VOptions@ImageTarget@cinder@@AEBV?$basic_string@DU?$char_traits@D@std@@V?$allocator@D@2@@2@@ZV82@@std@@@std@@@2@@std@@QEAA?AV?$_Tree_iterator@V?$_Tree_val@U?$_Tree_simple_types@U?$pair@$$CBHU?$pair@P6A?AV?$shared_ptr@VImageTarget@cinder@@@std@@V?$shared_ptr@VDataTarget@cinder@@@2@V?$shared_ptr@VImageSource@cinder@@@2@VOptions@ImageTarget@cinder@@AEBV?$basic_string@DU?$char_traits@D@std@@V?$allocator@D@2@@2@@ZV82@@std@@@std@@@std@@@std@@@1@$$QEAU?$pair@HU?$pair@P6A?AV?$shared_ptr@VImageTarget@cinder@@@std@@V?$shared_ptr@VDataTarget@cinder@@@2@V?$shared_ptr@VImageSource@cinder@@@2@VOptions@ImageTarget@cinder@@AEBV?$basic_string@DU?$char_traits@D@std@@V?$allocator@D@2@@2@@ZV82@@std@@@1@@Z 0000000140049080 f i cinder:ImageIo.obj
 0001:000481a0       ??$rowFuncSourceGray@EE$00$00@ImageSource@cinder@@IEAAXV?$shared_ptr@VImageTarget@cinder@@@std@@HPEBX@Z 00000001400491a0 f i cinder:ImageIo.obj
 0001:00048260       ??$rowFuncSourceGray@EE$00$0A@@ImageSource@cinder@@IEAAXV?$shared_ptr@VImageTarget@cinder@@@std@@HPEBX@Z 0000000140049260 f i cinder:ImageIo.obj
 0001:00048310       ??$rowFuncSourceGray@EE$0A@$00@ImageSource@cinder@@IEAAXV?$shared_ptr@VImageTarget@cinder@@@std@@HPEBX@Z 0000000140049310 f i cinder:ImageIo.obj
 0001:000483f0       ??$rowFuncSourceGray@EE$0A@$0A@@ImageSource@cinder@@IEAAXV?$shared_ptr@VImageTarget@cinder@@@std@@HPEBX@Z 00000001400493f0 f i cinder:ImageIo.obj
 0001:000484b0       ??$rowFuncSourceGray@EG$00$00@ImageSource@cinder@@IEAAXV?$shared_ptr@VImageTarget@cinder@@@std@@HPEBX@Z 00000001400494b0 f i cinder:ImageIo.obj
 0001:00048590       ??$rowFuncSourceGray@EG$00$0A@@ImageSource@cinder@@IEAAXV?$shared_ptr@VImageTarget@cinder@@@std@@HPEBX@Z 0000000140049590 f i cinder:ImageIo.obj
 0001:00048650       ??$rowFuncSourceGray@EG$0A@$00@ImageSource@cinder@@IEAAXV?$shared_ptr@VImageTarget@cinder@@@std@@HPEBX@Z 0000000140049650 f i cinder:ImageIo.obj
 0001:00048740       ??$rowFuncSourceGray@EG$0A@$0A@@ImageSource@cinder@@IEAAXV?$shared_ptr@VImageTarget@cinder@@@std@@HPEBX@Z 0000000140049740 f i cinder:ImageIo.obj
 0001:00048810       ??$rowFuncSourceGray@EM$00$00@ImageSource@cinder@@IEAAXV?$shared_ptr@VImageTarget@cinder@@@std@@HPEBX@Z 0000000140049810 f i cinder:ImageIo.obj
 0001:00048a60       ??$rowFuncSourceGray@EM$00$0A@@ImageSource@cinder@@IEAAXV?$shared_ptr@VImageTarget@cinder@@@std@@HPEBX@Z 0000000140049a60 f i cinder:ImageIo.obj
 0001:00048c10       ??$rowFuncSourceGray@EM$0A@$00@ImageSource@cinder@@IEAAXV?$shared_ptr@VImageTarget@cinder@@@std@@HPEBX@Z 0000000140049c10 f i cinder:ImageIo.obj
 0001:00048f00       ??$rowFuncSourceGray@EM$0A@$0A@@ImageSource@cinder@@IEAAXV?$shared_ptr@VImageTarget@cinder@@@std@@HPEBX@Z 0000000140049f00 f i cinder:ImageIo.obj
 0001:00049150       ??$rowFuncSourceGray@EThalf_float@cinder@@$00$00@ImageSource@cinder@@IEAAXV?$shared_ptr@VImageTarget@cinder@@@std@@HPEBX@Z 000000014004a150 f i cinder:ImageIo.obj
 0001:00049250       ??$rowFuncSourceGray@EThalf_float@cinder@@$00$0A@@ImageSource@cinder@@IEAAXV?$shared_ptr@VImageTarget@cinder@@@std@@HPEBX@Z 000000014004a250 f i cinder:ImageIo.obj
 0001:00049330       ??$rowFuncSourceGray@EThalf_float@cinder@@$0A@$00@ImageSource@cinder@@IEAAXV?$shared_ptr@VImageTarget@cinder@@@std@@HPEBX@Z 000000014004a330 f i cinder:ImageIo.obj
 0001:00049440       ??$rowFuncSourceGray@EThalf_float@cinder@@$0A@$0A@@ImageSource@cinder@@IEAAXV?$shared_ptr@VImageTarget@cinder@@@std@@HPEBX@Z 000000014004a440 f i cinder:ImageIo.obj
 0001:00049530       ??$rowFuncSourceGray@GE$00$00@ImageSource@cinder@@IEAAXV?$shared_ptr@VImageTarget@cinder@@@std@@HPEBX@Z 000000014004a530 f i cinder:ImageIo.obj
 0001:00049600       ??$rowFuncSourceGray@GE$00$0A@@ImageSource@cinder@@IEAAXV?$shared_ptr@VImageTarget@cinder@@@std@@HPEBX@Z 000000014004a600 f i cinder:ImageIo.obj
 0001:000496c0       ??$rowFuncSourceGray@GE$0A@$00@ImageSource@cinder@@IEAAXV?$shared_ptr@VImageTarget@cinder@@@std@@HPEBX@Z 000000014004a6c0 f i cinder:ImageIo.obj
 0001:000497b0       ??$rowFuncSourceGray@GE$0A@$0A@@ImageSource@cinder@@IEAAXV?$shared_ptr@VImageTarget@cinder@@@std@@HPEBX@Z 000000014004a7b0 f i cinder:ImageIo.obj
 0001:00049880       ??$rowFuncSourceGray@GG$00$00@ImageSource@cinder@@IEAAXV?$shared_ptr@VImageTarget@cinder@@@std@@HPEBX@Z 000000014004a880 f i cinder:ImageIo.obj
 0001:00049940       ??$rowFuncSourceGray@Thalf_float@cinder@@T12@$00$0A@@ImageSource@cinder@@IEAAXV?$shared_ptr@VImageTarget@cinder@@@std@@HPEBX@Z 000000014004a940 f i cinder:ImageIo.obj
 0001:00049940       ??$rowFuncSourceGray@GG$00$0A@@ImageSource@cinder@@IEAAXV?$shared_ptr@VImageTarget@cinder@@@std@@HPEBX@Z 000000014004a940 f i cinder:ImageIo.obj
 0001:000499f0       ??$rowFuncSourceGray@GG$0A@$00@ImageSource@cinder@@IEAAXV?$shared_ptr@VImageTarget@cinder@@@std@@HPEBX@Z 000000014004a9f0 f i cinder:ImageIo.obj
 0001:00049ad0       ??$rowFuncSourceGray@GG$0A@$0A@@ImageSource@cinder@@IEAAXV?$shared_ptr@VImageTarget@cinder@@@std@@HPEBX@Z 000000014004aad0 f i cinder:ImageIo.obj
 0001:00049ba0       ??$rowFuncSourceGray@GM$00$00@ImageSource@cinder@@IEAAXV?$shared_ptr@VImageTarget@cinder@@@std@@HPEBX@Z 000000014004aba0 f i cinder:ImageIo.obj
 0001:00049e10       ??$rowFuncSourceGray@GM$00$0A@@ImageSource@cinder@@IEAAXV?$shared_ptr@VImageTarget@cinder@@@std@@HPEBX@Z 000000014004ae10 f i cinder:ImageIo.obj
 0001:00049fd0       ??$rowFuncSourceGray@GM$0A@$00@ImageSource@cinder@@IEAAXV?$shared_ptr@VImageTarget@cinder@@@std@@HPEBX@Z 000000014004afd0 f i cinder:ImageIo.obj
 0001:0004a2e0       ??$rowFuncSourceGray@GM$0A@$0A@@ImageSource@cinder@@IEAAXV?$shared_ptr@VImageTarget@cinder@@@std@@HPEBX@Z 000000014004b2e0 f i cinder:ImageIo.obj
 0001:0004a530       ??$rowFuncSourceGray@GThalf_float@cinder@@$00$00@ImageSource@cinder@@IEAAXV?$shared_ptr@VImageTarget@cinder@@@std@@HPEBX@Z 000000014004b530 f i cinder:ImageIo.obj
 0001:0004a630       ??$rowFuncSourceGray@GThalf_float@cinder@@$00$0A@@ImageSource@cinder@@IEAAXV?$shared_ptr@VImageTarget@cinder@@@std@@HPEBX@Z 000000014004b630 f i cinder:ImageIo.obj
 0001:0004a710       ??$rowFuncSourceGray@GThalf_float@cinder@@$0A@$00@ImageSource@cinder@@IEAAXV?$shared_ptr@VImageTarget@cinder@@@std@@HPEBX@Z 000000014004b710 f i cinder:ImageIo.obj
 0001:0004a820       ??$rowFuncSourceGray@GThalf_float@cinder@@$0A@$0A@@ImageSource@cinder@@IEAAXV?$shared_ptr@VImageTarget@cinder@@@std@@HPEBX@Z 000000014004b820 f i cinder:ImageIo.obj
 0001:0004a910       ??$rowFuncSourceGray@ME$00$00@ImageSource@cinder@@IEAAXV?$shared_ptr@VImageTarget@cinder@@@std@@HPEBX@Z 000000014004b910 f i cinder:ImageIo.obj
 0001:0004abb0       ??$rowFuncSourceGray@ME$00$0A@@ImageSource@cinder@@IEAAXV?$shared_ptr@VImageTarget@cinder@@@std@@HPEBX@Z 000000014004bbb0 f i cinder:ImageIo.obj
 0001:0004ad90       ??$rowFuncSourceGray@ME$0A@$00@ImageSource@cinder@@IEAAXV?$shared_ptr@VImageTarget@cinder@@@std@@HPEBX@Z 000000014004bd90 f i cinder:ImageIo.obj
 0001:0004b0a0       ??$rowFuncSourceGray@ME$0A@$0A@@ImageSource@cinder@@IEAAXV?$shared_ptr@VImageTarget@cinder@@@std@@HPEBX@Z 000000014004c0a0 f i cinder:ImageIo.obj
 0001:0004b2f0       ??$rowFuncSourceGray@MG$00$00@ImageSource@cinder@@IEAAXV?$shared_ptr@VImageTarget@cinder@@@std@@HPEBX@Z 000000014004c2f0 f i cinder:ImageIo.obj
 0001:0004b5b0       ??$rowFuncSourceGray@MG$00$0A@@ImageSource@cinder@@IEAAXV?$shared_ptr@VImageTarget@cinder@@@std@@HPEBX@Z 000000014004c5b0 f i cinder:ImageIo.obj
 0001:0004b7a0       ??$rowFuncSourceGray@MG$0A@$00@ImageSource@cinder@@IEAAXV?$shared_ptr@VImageTarget@cinder@@@std@@HPEBX@Z 000000014004c7a0 f i cinder:ImageIo.obj
 0001:0004bb00       ??$rowFuncSourceGray@MG$0A@$0A@@ImageSource@cinder@@IEAAXV?$shared_ptr@VImageTarget@cinder@@@std@@HPEBX@Z 000000014004cb00 f i cinder:ImageIo.obj
 0001:0004bd80       ??$rowFuncSourceGray@MM$00$00@ImageSource@cinder@@IEAAXV?$shared_ptr@VImageTarget@cinder@@@std@@HPEBX@Z 000000014004cd80 f i cinder:ImageIo.obj
 0001:0004bf70       ??$rowFuncSourceGray@MM$00$0A@@ImageSource@cinder@@IEAAXV?$shared_ptr@VImageTarget@cinder@@@std@@HPEBX@Z 000000014004cf70 f i cinder:ImageIo.obj
 0001:0004c0f0       ??$rowFuncSourceGray@MM$0A@$00@ImageSource@cinder@@IEAAXV?$shared_ptr@VImageTarget@cinder@@@std@@HPEBX@Z 000000014004d0f0 f i cinder:ImageIo.obj
 0001:0004c390       ??$rowFuncSourceGray@MM$0A@$0A@@ImageSource@cinder@@IEAAXV?$shared_ptr@VImageTarget@cinder@@@std@@HPEBX@Z 000000014004d390 f i cinder:ImageIo.obj
 0001:0004c5a0       ??$rowFuncSourceGray@MThalf_float@cinder@@$00$00@ImageSource@cinder@@IEAAXV?$shared_ptr@VImageTarget@cinder@@@std@@HPEBX@Z 000000014004d5a0 f i cinder:ImageIo.obj
 0001:0004c670       ??$rowFuncSourceGray@MThalf_float@cinder@@$00$0A@@ImageSource@cinder@@IEAAXV?$shared_ptr@VImageTarget@cinder@@@std@@HPEBX@Z 000000014004d670 f i cinder:ImageIo.obj
 0001:0004c730       ??$rowFuncSourceGray@MThalf_float@cinder@@$0A@$00@ImageSource@cinder@@IEAAXV?$shared_ptr@VImageTarget@cinder@@@std@@HPEBX@Z 000000014004d730 f i cinder:ImageIo.obj
 0001:0004c820       ??$rowFuncSourceGray@MThalf_float@cinder@@$0A@$0A@@ImageSource@cinder@@IEAAXV?$shared_ptr@VImageTarget@cinder@@@std@@HPEBX@Z 000000014004d820 f i cinder:ImageIo.obj
 0001:0004c8f0       ??$rowFuncSourceGray@Thalf_float@cinder@@E$00$00@ImageSource@cinder@@IEAAXV?$shared_ptr@VImageTarget@cinder@@@std@@HPEBX@Z 000000014004d8f0 f i cinder:ImageIo.obj
 0001:0004ca20       ??$rowFuncSourceGray@Thalf_float@cinder@@E$00$0A@@ImageSource@cinder@@IEAAXV?$shared_ptr@VImageTarget@cinder@@@std@@HPEBX@Z 000000014004da20 f i cinder:ImageIo.obj
 0001:0004cb10       ??$rowFuncSourceGray@Thalf_float@cinder@@E$0A@$00@ImageSource@cinder@@IEAAXV?$shared_ptr@VImageTarget@cinder@@@std@@HPEBX@Z 000000014004db10 f i cinder:ImageIo.obj
 0001:0004cc50       ??$rowFuncSourceGray@Thalf_float@cinder@@E$0A@$0A@@ImageSource@cinder@@IEAAXV?$shared_ptr@VImageTarget@cinder@@@std@@HPEBX@Z 000000014004dc50 f i cinder:ImageIo.obj
 0001:0004cd60       ??$rowFuncSourceGray@Thalf_float@cinder@@G$00$00@ImageSource@cinder@@IEAAXV?$shared_ptr@VImageTarget@cinder@@@std@@HPEBX@Z 000000014004dd60 f i cinder:ImageIo.obj
 0001:0004ce90       ??$rowFuncSourceGray@Thalf_float@cinder@@G$00$0A@@ImageSource@cinder@@IEAAXV?$shared_ptr@VImageTarget@cinder@@@std@@HPEBX@Z 000000014004de90 f i cinder:ImageIo.obj
 0001:0004cf80       ??$rowFuncSourceGray@Thalf_float@cinder@@G$0A@$00@ImageSource@cinder@@IEAAXV?$shared_ptr@VImageTarget@cinder@@@std@@HPEBX@Z 000000014004df80 f i cinder:ImageIo.obj
 0001:0004d0c0       ??$rowFuncSourceGray@Thalf_float@cinder@@G$0A@$0A@@ImageSource@cinder@@IEAAXV?$shared_ptr@VImageTarget@cinder@@@std@@HPEBX@Z 000000014004e0c0 f i cinder:ImageIo.obj
 0001:0004d1d0       ??$rowFuncSourceGray@Thalf_float@cinder@@M$00$00@ImageSource@cinder@@IEAAXV?$shared_ptr@VImageTarget@cinder@@@std@@HPEBX@Z 000000014004e1d0 f i cinder:ImageIo.obj
 0001:0004d2a0       ??$rowFuncSourceGray@Thalf_float@cinder@@M$00$0A@@ImageSource@cinder@@IEAAXV?$shared_ptr@VImageTarget@cinder@@@std@@HPEBX@Z 000000014004e2a0 f i cinder:ImageIo.obj
 0001:0004d360       ??$rowFuncSourceGray@Thalf_float@cinder@@M$0A@$00@ImageSource@cinder@@IEAAXV?$shared_ptr@VImageTarget@cinder@@@std@@HPEBX@Z 000000014004e360 f i cinder:ImageIo.obj
 0001:0004d450       ??$rowFuncSourceGray@Thalf_float@cinder@@M$0A@$0A@@ImageSource@cinder@@IEAAXV?$shared_ptr@VImageTarget@cinder@@@std@@HPEBX@Z 000000014004e450 f i cinder:ImageIo.obj
 0001:0004d520       ??$rowFuncSourceGray@Thalf_float@cinder@@T12@$00$00@ImageSource@cinder@@IEAAXV?$shared_ptr@VImageTarget@cinder@@@std@@HPEBX@Z 000000014004e520 f i cinder:ImageIo.obj
 0001:0004d5e0       ??$rowFuncSourceGray@Thalf_float@cinder@@T12@$0A@$00@ImageSource@cinder@@IEAAXV?$shared_ptr@VImageTarget@cinder@@@std@@HPEBX@Z 000000014004e5e0 f i cinder:ImageIo.obj
 0001:0004d6c0       ??$rowFuncSourceGray@Thalf_float@cinder@@T12@$0A@$0A@@ImageSource@cinder@@IEAAXV?$shared_ptr@VImageTarget@cinder@@@std@@HPEBX@Z 000000014004e6c0 f i cinder:ImageIo.obj
 0001:0004d790       ??$rowFuncSourceRgb@EE$00$00@ImageSource@cinder@@IEAAXV?$shared_ptr@VImageTarget@cinder@@@std@@HPEBX@Z 000000014004e790 f i cinder:ImageIo.obj
 0001:0004d880       ??$rowFuncSourceRgb@EE$00$0A@@ImageSource@cinder@@IEAAXV?$shared_ptr@VImageTarget@cinder@@@std@@HPEBX@Z 000000014004e880 f i cinder:ImageIo.obj
 0001:0004d960       ??$rowFuncSourceRgb@EE$0A@$00@ImageSource@cinder@@IEAAXV?$shared_ptr@VImageTarget@cinder@@@std@@HPEBX@Z 000000014004e960 f i cinder:ImageIo.obj
 0001:0004da50       ??$rowFuncSourceRgb@EE$0A@$0A@@ImageSource@cinder@@IEAAXV?$shared_ptr@VImageTarget@cinder@@@std@@HPEBX@Z 000000014004ea50 f i cinder:ImageIo.obj
 0001:0004db30       ??$rowFuncSourceRgb@EG$00$00@ImageSource@cinder@@IEAAXV?$shared_ptr@VImageTarget@cinder@@@std@@HPEBX@Z 000000014004eb30 f i cinder:ImageIo.obj
 0001:0004dc30       ??$rowFuncSourceRgb@EG$00$0A@@ImageSource@cinder@@IEAAXV?$shared_ptr@VImageTarget@cinder@@@std@@HPEBX@Z 000000014004ec30 f i cinder:ImageIo.obj
 0001:0004dd20       ??$rowFuncSourceRgb@EG$0A@$00@ImageSource@cinder@@IEAAXV?$shared_ptr@VImageTarget@cinder@@@std@@HPEBX@Z 000000014004ed20 f i cinder:ImageIo.obj
 0001:0004de40       ??$rowFuncSourceRgb@EG$0A@$0A@@ImageSource@cinder@@IEAAXV?$shared_ptr@VImageTarget@cinder@@@std@@HPEBX@Z 000000014004ee40 f i cinder:ImageIo.obj
 0001:0004df40       ??$rowFuncSourceRgb@EM$00$00@ImageSource@cinder@@IEAAXV?$shared_ptr@VImageTarget@cinder@@@std@@HPEBX@Z 000000014004ef40 f i cinder:ImageIo.obj
 0001:0004e270       ??$rowFuncSourceRgb@EM$00$0A@@ImageSource@cinder@@IEAAXV?$shared_ptr@VImageTarget@cinder@@@std@@HPEBX@Z 000000014004f270 f i cinder:ImageIo.obj
 0001:0004e500       ??$rowFuncSourceRgb@EM$0A@$00@ImageSource@cinder@@IEAAXV?$shared_ptr@VImageTarget@cinder@@@std@@HPEBX@Z 000000014004f500 f i cinder:ImageIo.obj
 0001:0004e8c0       ??$rowFuncSourceRgb@EM$0A@$0A@@ImageSource@cinder@@IEAAXV?$shared_ptr@VImageTarget@cinder@@@std@@HPEBX@Z 000000014004f8c0 f i cinder:ImageIo.obj
 0001:0004ebd0       ??$rowFuncSourceRgb@EThalf_float@cinder@@$00$00@ImageSource@cinder@@IEAAXV?$shared_ptr@VImageTarget@cinder@@@std@@HPEBX@Z 000000014004fbd0 f i cinder:ImageIo.obj
 0001:0004ed00       ??$rowFuncSourceRgb@EThalf_float@cinder@@$00$0A@@ImageSource@cinder@@IEAAXV?$shared_ptr@VImageTarget@cinder@@@std@@HPEBX@Z 000000014004fd00 f i cinder:ImageIo.obj
 0001:0004ee00       ??$rowFuncSourceRgb@EThalf_float@cinder@@$0A@$00@ImageSource@cinder@@IEAAXV?$shared_ptr@VImageTarget@cinder@@@std@@HPEBX@Z 000000014004fe00 f i cinder:ImageIo.obj
 0001:0004ef50       ??$rowFuncSourceRgb@EThalf_float@cinder@@$0A@$0A@@ImageSource@cinder@@IEAAXV?$shared_ptr@VImageTarget@cinder@@@std@@HPEBX@Z 000000014004ff50 f i cinder:ImageIo.obj
 0001:0004f070       ??$rowFuncSourceRgb@GE$00$00@ImageSource@cinder@@IEAAXV?$shared_ptr@VImageTarget@cinder@@@std@@HPEBX@Z 0000000140050070 f i cinder:ImageIo.obj
 0001:0004f180       ??$rowFuncSourceRgb@GE$00$0A@@ImageSource@cinder@@IEAAXV?$shared_ptr@VImageTarget@cinder@@@std@@HPEBX@Z 0000000140050180 f i cinder:ImageIo.obj
 0001:0004f270       ??$rowFuncSourceRgb@GE$0A@$00@ImageSource@cinder@@IEAAXV?$shared_ptr@VImageTarget@cinder@@@std@@HPEBX@Z 0000000140050270 f i cinder:ImageIo.obj
 0001:0004f380       ??$rowFuncSourceRgb@GE$0A@$0A@@ImageSource@cinder@@IEAAXV?$shared_ptr@VImageTarget@cinder@@@std@@HPEBX@Z 0000000140050380 f i cinder:ImageIo.obj
 0001:0004f470       ??$rowFuncSourceRgb@GG$00$00@ImageSource@cinder@@IEAAXV?$shared_ptr@VImageTarget@cinder@@@std@@HPEBX@Z 0000000140050470 f i cinder:ImageIo.obj
 0001:0004f560       ??$rowFuncSourceRgb@GG$00$0A@@ImageSource@cinder@@IEAAXV?$shared_ptr@VImageTarget@cinder@@@std@@HPEBX@Z 0000000140050560 f i cinder:ImageIo.obj
 0001:0004f640       ??$rowFuncSourceRgb@GG$0A@$00@ImageSource@cinder@@IEAAXV?$shared_ptr@VImageTarget@cinder@@@std@@HPEBX@Z 0000000140050640 f i cinder:ImageIo.obj
 0001:0004f730       ??$rowFuncSourceRgb@GG$0A@$0A@@ImageSource@cinder@@IEAAXV?$shared_ptr@VImageTarget@cinder@@@std@@HPEBX@Z 0000000140050730 f i cinder:ImageIo.obj
 0001:0004f810       ??$rowFuncSourceRgb@GM$00$00@ImageSource@cinder@@IEAAXV?$shared_ptr@VImageTarget@cinder@@@std@@HPEBX@Z 0000000140050810 f i cinder:ImageIo.obj
 0001:0004fb90       ??$rowFuncSourceRgb@GM$00$0A@@ImageSource@cinder@@IEAAXV?$shared_ptr@VImageTarget@cinder@@@std@@HPEBX@Z 0000000140050b90 f i cinder:ImageIo.obj
 0001:0004fe60       ??$rowFuncSourceRgb@GM$0A@$00@ImageSource@cinder@@IEAAXV?$shared_ptr@VImageTarget@cinder@@@std@@HPEBX@Z 0000000140050e60 f i cinder:ImageIo.obj
 0001:00050250       ??$rowFuncSourceRgb@GM$0A@$0A@@ImageSource@cinder@@IEAAXV?$shared_ptr@VImageTarget@cinder@@@std@@HPEBX@Z 0000000140051250 f i cinder:ImageIo.obj
 0001:00050580       ??$rowFuncSourceRgb@GThalf_float@cinder@@$00$00@ImageSource@cinder@@IEAAXV?$shared_ptr@VImageTarget@cinder@@@std@@HPEBX@Z 0000000140051580 f i cinder:ImageIo.obj
 0001:000506b0       ??$rowFuncSourceRgb@GThalf_float@cinder@@$00$0A@@ImageSource@cinder@@IEAAXV?$shared_ptr@VImageTarget@cinder@@@std@@HPEBX@Z 00000001400516b0 f i cinder:ImageIo.obj
 0001:000507c0       ??$rowFuncSourceRgb@GThalf_float@cinder@@$0A@$00@ImageSource@cinder@@IEAAXV?$shared_ptr@VImageTarget@cinder@@@std@@HPEBX@Z 00000001400517c0 f i cinder:ImageIo.obj
 0001:00050910       ??$rowFuncSourceRgb@GThalf_float@cinder@@$0A@$0A@@ImageSource@cinder@@IEAAXV?$shared_ptr@VImageTarget@cinder@@@std@@HPEBX@Z 0000000140051910 f i cinder:ImageIo.obj
 0001:00050a30       ??$rowFuncSourceRgb@ME$00$00@ImageSource@cinder@@IEAAXV?$shared_ptr@VImageTarget@cinder@@@std@@HPEBX@Z 0000000140051a30 f i cinder:ImageIo.obj
 0001:00050e10       ??$rowFuncSourceRgb@ME$00$0A@@ImageSource@cinder@@IEAAXV?$shared_ptr@VImageTarget@cinder@@@std@@HPEBX@Z 0000000140051e10 f i cinder:ImageIo.obj
 0001:00051120       ??$rowFuncSourceRgb@ME$0A@$00@ImageSource@cinder@@IEAAXV?$shared_ptr@VImageTarget@cinder@@@std@@HPEBX@Z 0000000140052120 f i cinder:ImageIo.obj
 0001:00051570       ??$rowFuncSourceRgb@ME$0A@$0A@@ImageSource@cinder@@IEAAXV?$shared_ptr@VImageTarget@cinder@@@std@@HPEBX@Z 0000000140052570 f i cinder:ImageIo.obj
 0001:000518f0       ??$rowFuncSourceRgb@MG$00$00@ImageSource@cinder@@IEAAXV?$shared_ptr@VImageTarget@cinder@@@std@@HPEBX@Z 00000001400528f0 f i cinder:ImageIo.obj
 0001:00051cf0       ??$rowFuncSourceRgb@MG$00$0A@@ImageSource@cinder@@IEAAXV?$shared_ptr@VImageTarget@cinder@@@std@@HPEBX@Z 0000000140052cf0 f i cinder:ImageIo.obj
 0001:00052010       ??$rowFuncSourceRgb@MG$0A@$00@ImageSource@cinder@@IEAAXV?$shared_ptr@VImageTarget@cinder@@@std@@HPEBX@Z 0000000140053010 f i cinder:ImageIo.obj
 0001:000524a0       ??$rowFuncSourceRgb@MG$0A@$0A@@ImageSource@cinder@@IEAAXV?$shared_ptr@VImageTarget@cinder@@@std@@HPEBX@Z 00000001400534a0 f i cinder:ImageIo.obj
 0001:00052860       ??$rowFuncSourceRgb@MM$00$00@ImageSource@cinder@@IEAAXV?$shared_ptr@VImageTarget@cinder@@@std@@HPEBX@Z 0000000140053860 f i cinder:ImageIo.obj
 0001:00052b60       ??$rowFuncSourceRgb@MM$00$0A@@ImageSource@cinder@@IEAAXV?$shared_ptr@VImageTarget@cinder@@@std@@HPEBX@Z 0000000140053b60 f i cinder:ImageIo.obj
 0001:00052df0       ??$rowFuncSourceRgb@MM$0A@$00@ImageSource@cinder@@IEAAXV?$shared_ptr@VImageTarget@cinder@@@std@@HPEBX@Z 0000000140053df0 f i cinder:ImageIo.obj
 0001:000530e0       ??$rowFuncSourceRgb@MM$0A@$0A@@ImageSource@cinder@@IEAAXV?$shared_ptr@VImageTarget@cinder@@@std@@HPEBX@Z 00000001400540e0 f i cinder:ImageIo.obj
 0001:00053360       ??$rowFuncSourceRgb@MThalf_float@cinder@@$00$00@ImageSource@cinder@@IEAAXV?$shared_ptr@VImageTarget@cinder@@@std@@HPEBX@Z 0000000140054360 f i cinder:ImageIo.obj
 0001:000534a0       ??$rowFuncSourceRgb@MThalf_float@cinder@@$00$0A@@ImageSource@cinder@@IEAAXV?$shared_ptr@VImageTarget@cinder@@@std@@HPEBX@Z 00000001400544a0 f i cinder:ImageIo.obj
 0001:000535c0       ??$rowFuncSourceRgb@MThalf_float@cinder@@$0A@$00@ImageSource@cinder@@IEAAXV?$shared_ptr@VImageTarget@cinder@@@std@@HPEBX@Z 00000001400545c0 f i cinder:ImageIo.obj
 0001:000536c0       ??$rowFuncSourceRgb@MThalf_float@cinder@@$0A@$0A@@ImageSource@cinder@@IEAAXV?$shared_ptr@VImageTarget@cinder@@@std@@HPEBX@Z 00000001400546c0 f i cinder:ImageIo.obj
 0001:000537b0       ??$rowFuncSourceRgb@Thalf_float@cinder@@E$00$00@ImageSource@cinder@@IEAAXV?$shared_ptr@VImageTarget@cinder@@@std@@HPEBX@Z 00000001400547b0 f i cinder:ImageIo.obj
 0001:000538f0       ??$rowFuncSourceRgb@Thalf_float@cinder@@E$00$0A@@ImageSource@cinder@@IEAAXV?$shared_ptr@VImageTarget@cinder@@@std@@HPEBX@Z 00000001400548f0 f i cinder:ImageIo.obj
 0001:00053a00       ??$rowFuncSourceRgb@Thalf_float@cinder@@E$0A@$00@ImageSource@cinder@@IEAAXV?$shared_ptr@VImageTarget@cinder@@@std@@HPEBX@Z 0000000140054a00 f i cinder:ImageIo.obj
 0001:00053b80       ??$rowFuncSourceRgb@Thalf_float@cinder@@E$0A@$0A@@ImageSource@cinder@@IEAAXV?$shared_ptr@VImageTarget@cinder@@@std@@HPEBX@Z 0000000140054b80 f i cinder:ImageIo.obj
 0001:00053ce0       ??$rowFuncSourceRgb@Thalf_float@cinder@@G$00$00@ImageSource@cinder@@IEAAXV?$shared_ptr@VImageTarget@cinder@@@std@@HPEBX@Z 0000000140054ce0 f i cinder:ImageIo.obj
 0001:00053e30       ??$rowFuncSourceRgb@Thalf_float@cinder@@G$00$0A@@ImageSource@cinder@@IEAAXV?$shared_ptr@VImageTarget@cinder@@@std@@HPEBX@Z 0000000140054e30 f i cinder:ImageIo.obj
 0001:00053f50       ??$rowFuncSourceRgb@Thalf_float@cinder@@G$0A@$00@ImageSource@cinder@@IEAAXV?$shared_ptr@VImageTarget@cinder@@@std@@HPEBX@Z 0000000140054f50 f i cinder:ImageIo.obj
 0001:000540e0       ??$rowFuncSourceRgb@Thalf_float@cinder@@G$0A@$0A@@ImageSource@cinder@@IEAAXV?$shared_ptr@VImageTarget@cinder@@@std@@HPEBX@Z 00000001400550e0 f i cinder:ImageIo.obj
 0001:00054240       ??$rowFuncSourceRgb@Thalf_float@cinder@@M$00$00@ImageSource@cinder@@IEAAXV?$shared_ptr@VImageTarget@cinder@@@std@@HPEBX@Z 0000000140055240 f i cinder:ImageIo.obj
 0001:00054330       ??$rowFuncSourceRgb@Thalf_float@cinder@@M$00$0A@@ImageSource@cinder@@IEAAXV?$shared_ptr@VImageTarget@cinder@@@std@@HPEBX@Z 0000000140055330 f i cinder:ImageIo.obj
 0001:00054410       ??$rowFuncSourceRgb@Thalf_float@cinder@@M$0A@$00@ImageSource@cinder@@IEAAXV?$shared_ptr@VImageTarget@cinder@@@std@@HPEBX@Z 0000000140055410 f i cinder:ImageIo.obj
 0001:00054510       ??$rowFuncSourceRgb@Thalf_float@cinder@@M$0A@$0A@@ImageSource@cinder@@IEAAXV?$shared_ptr@VImageTarget@cinder@@@std@@HPEBX@Z 0000000140055510 f i cinder:ImageIo.obj
 0001:00054600       ??$rowFuncSourceRgb@Thalf_float@cinder@@T12@$00$00@ImageSource@cinder@@IEAAXV?$shared_ptr@VImageTarget@cinder@@@std@@HPEBX@Z 0000000140055600 f i cinder:ImageIo.obj
 0001:000546e0       ??$rowFuncSourceRgb@Thalf_float@cinder@@T12@$00$0A@@ImageSource@cinder@@IEAAXV?$shared_ptr@VImageTarget@cinder@@@std@@HPEBX@Z 00000001400556e0 f i cinder:ImageIo.obj
 0001:000547b0       ??$rowFuncSourceRgb@Thalf_float@cinder@@T12@$0A@$00@ImageSource@cinder@@IEAAXV?$shared_ptr@VImageTarget@cinder@@@std@@HPEBX@Z 00000001400557b0 f i cinder:ImageIo.obj
 0001:000548a0       ??$rowFuncSourceRgb@Thalf_float@cinder@@T12@$0A@$0A@@ImageSource@cinder@@IEAAXV?$shared_ptr@VImageTarget@cinder@@@std@@HPEBX@Z 00000001400558a0 f i cinder:ImageIo.obj
 0001:00054980       ??$setupRowFuncForSourceType@E@ImageSource@cinder@@IEAAP801@EAAXV?$shared_ptr@VImageTarget@cinder@@@std@@HPEBX@Z0@Z 0000000140055980 f i cinder:ImageIo.obj
 0001:00054b00       ??$setupRowFuncForSourceType@G@ImageSource@cinder@@IEAAP801@EAAXV?$shared_ptr@VImageTarget@cinder@@@std@@HPEBX@Z0@Z 0000000140055b00 f i cinder:ImageIo.obj
 0001:00054c80       ??$setupRowFuncForSourceType@M@ImageSource@cinder@@IEAAP801@EAAXV?$shared_ptr@VImageTarget@cinder@@@std@@HPEBX@Z0@Z 0000000140055c80 f i cinder:ImageIo.obj
 0001:00054e00       ??$setupRowFuncForSourceType@Thalf_float@cinder@@@ImageSource@cinder@@IEAAP801@EAAXV?$shared_ptr@VImageTarget@cinder@@@std@@HPEBX@Z0@Z 0000000140055e00 f i cinder:ImageIo.obj
 0001:00054f80       ??$setupRowFuncForTypes@EE@ImageSource@cinder@@IEAAP801@EAAXV?$shared_ptr@VImageTarget@cinder@@@std@@HPEBX@Z0@Z 0000000140055f80 f i cinder:ImageIo.obj
 0001:000552e0       ??$setupRowFuncForTypes@EG@ImageSource@cinder@@IEAAP801@EAAXV?$shared_ptr@VImageTarget@cinder@@@std@@HPEBX@Z0@Z 00000001400562e0 f i cinder:ImageIo.obj
 0001:00055640       ??$setupRowFuncForTypes@EM@ImageSource@cinder@@IEAAP801@EAAXV?$shared_ptr@VImageTarget@cinder@@@std@@HPEBX@Z0@Z 0000000140056640 f i cinder:ImageIo.obj
 0001:000559a0       ??$setupRowFuncForTypes@EThalf_float@cinder@@@ImageSource@cinder@@IEAAP801@EAAXV?$shared_ptr@VImageTarget@cinder@@@std@@HPEBX@Z0@Z 00000001400569a0 f i cinder:ImageIo.obj
 0001:00055d00       ??$setupRowFuncForTypes@GE@ImageSource@cinder@@IEAAP801@EAAXV?$shared_ptr@VImageTarget@cinder@@@std@@HPEBX@Z0@Z 0000000140056d00 f i cinder:ImageIo.obj
 0001:00056060       ??$setupRowFuncForTypes@GG@ImageSource@cinder@@IEAAP801@EAAXV?$shared_ptr@VImageTarget@cinder@@@std@@HPEBX@Z0@Z 0000000140057060 f i cinder:ImageIo.obj
 0001:000563c0       ??$setupRowFuncForTypes@GM@ImageSource@cinder@@IEAAP801@EAAXV?$shared_ptr@VImageTarget@cinder@@@std@@HPEBX@Z0@Z 00000001400573c0 f i cinder:ImageIo.obj
 0001:00056720       ??$setupRowFuncForTypes@GThalf_float@cinder@@@ImageSource@cinder@@IEAAP801@EAAXV?$shared_ptr@VImageTarget@cinder@@@std@@HPEBX@Z0@Z 0000000140057720 f i cinder:ImageIo.obj
 0001:00056a80       ??$setupRowFuncForTypes@ME@ImageSource@cinder@@IEAAP801@EAAXV?$shared_ptr@VImageTarget@cinder@@@std@@HPEBX@Z0@Z 0000000140057a80 f i cinder:ImageIo.obj
 0001:00056de0       ??$setupRowFuncForTypes@MG@ImageSource@cinder@@IEAAP801@EAAXV?$shared_ptr@VImageTarget@cinder@@@std@@HPEBX@Z0@Z 0000000140057de0 f i cinder:ImageIo.obj
 0001:00057140       ??$setupRowFuncForTypes@MM@ImageSource@cinder@@IEAAP801@EAAXV?$shared_ptr@VImageTarget@cinder@@@std@@HPEBX@Z0@Z 0000000140058140 f i cinder:ImageIo.obj
 0001:000574a0       ??$setupRowFuncForTypes@MThalf_float@cinder@@@ImageSource@cinder@@IEAAP801@EAAXV?$shared_ptr@VImageTarget@cinder@@@std@@HPEBX@Z0@Z 00000001400584a0 f i cinder:ImageIo.obj
 0001:00057800       ??$setupRowFuncForTypes@Thalf_float@cinder@@E@ImageSource@cinder@@IEAAP801@EAAXV?$shared_ptr@VImageTarget@cinder@@@std@@HPEBX@Z0@Z 0000000140058800 f i cinder:ImageIo.obj
 0001:00057b60       ??$setupRowFuncForTypes@Thalf_float@cinder@@G@ImageSource@cinder@@IEAAP801@EAAXV?$shared_ptr@VImageTarget@cinder@@@std@@HPEBX@Z0@Z 0000000140058b60 f i cinder:ImageIo.obj
 0001:00057ec0       ??$setupRowFuncForTypes@Thalf_float@cinder@@M@ImageSource@cinder@@IEAAP801@EAAXV?$shared_ptr@VImageTarget@cinder@@@std@@HPEBX@Z0@Z 0000000140058ec0 f i cinder:ImageIo.obj
 0001:00058220       ??$setupRowFuncForTypes@Thalf_float@cinder@@T12@@ImageSource@cinder@@IEAAP801@EAAXV?$shared_ptr@VImageTarget@cinder@@@std@@HPEBX@Z0@Z 0000000140059220 f i cinder:ImageIo.obj
 0001:00058580       ??0ImageIo@cinder@@IEAA@XZ 0000000140059580 f   cinder:ImageIo.obj
 0001:000585b0       ??0ImageIoExceptionIllegalChannelOrder@cinder@@QEAA@AEBV01@@Z 00000001400595b0 f i cinder:ImageIo.obj
 0001:00058620       ??0ImageIoExceptionIllegalChannelOrder@cinder@@QEAA@AEBV?$basic_string@DU?$char_traits@D@std@@V?$allocator@D@2@@std@@@Z 0000000140059620 f i cinder:ImageIo.obj
 0001:00058650       ??0ImageIoExceptionIllegalDataType@cinder@@QEAA@AEBV01@@Z 0000000140059650 f i cinder:ImageIo.obj
 0001:000586c0       ??0ImageIoExceptionIllegalDataType@cinder@@QEAA@AEBV?$basic_string@DU?$char_traits@D@std@@V?$allocator@D@2@@std@@@Z 00000001400596c0 f i cinder:ImageIo.obj
 0001:000586f0       ??0ImageIoExceptionUnknownExtension@cinder@@QEAA@AEBV01@@Z 00000001400596f0 f i cinder:ImageIo.obj
 0001:00058760       ??0ImageIoExceptionUnknownExtension@cinder@@QEAA@AEBV?$basic_string@DU?$char_traits@D@std@@V?$allocator@D@2@@std@@@Z 0000000140059760 f i cinder:ImageIo.obj
 0001:00058790       ??1?$_Tree_temp_node_alloc@V?$allocator@U?$_Tree_node@U?$pair@$$CBV?$basic_string@DU?$char_traits@D@std@@V?$allocator@D@2@@std@@V?$multimap@HU?$pair@P6A?AV?$shared_ptr@VImageTarget@cinder@@@std@@V?$shared_ptr@VDataTarget@cinder@@@2@V?$shared_ptr@VImageSource@cinder@@@2@VOptions@ImageTarget@cinder@@AEBV?$basic_string@DU?$char_traits@D@std@@V?$allocator@D@2@@2@@ZV82@@std@@U?$less@H@2@V?$allocator@U?$pair@$$CBHU?$pair@P6A?AV?$shared_ptr@VImageTarget@cinder@@@std@@V?$shared_ptr@VDataTarget@cinder@@@2@V?$shared_ptr@VImageSource@cinder@@@2@VOptions@ImageTarget@cinder@@AEBV?$basic_string@DU?$char_traits@D@std@@V?$allocator@D@2@@2@@ZV82@@std@@@std@@@2@@2@@std@@PEAX@std@@@std@@@std@@QEAA@XZ 0000000140059790 f i cinder:ImageIo.obj
 0001:00058790       ??1?$_Alloc_construct_ptr@V?$allocator@U?$_Tree_node@U?$pair@$$CBV?$basic_string@DU?$char_traits@D@std@@V?$allocator@D@2@@std@@V?$multimap@HU?$pair@P6A?AV?$shared_ptr@VImageTarget@cinder@@@std@@V?$shared_ptr@VDataTarget@cinder@@@2@V?$shared_ptr@VImageSource@cinder@@@2@VOptions@ImageTarget@cinder@@AEBV?$basic_string@DU?$char_traits@D@std@@V?$allocator@D@2@@2@@ZV82@@std@@U?$less@H@2@V?$allocator@U?$pair@$$CBHU?$pair@P6A?AV?$shared_ptr@VImageTarget@cinder@@@std@@V?$shared_ptr@VDataTarget@cinder@@@2@V?$shared_ptr@VImageSource@cinder@@@2@VOptions@ImageTarget@cinder@@AEBV?$basic_string@DU?$char_traits@D@std@@V?$allocator@D@2@@2@@ZV82@@std@@@std@@@2@@2@@std@@PEAX@std@@@std@@@std@@QEAA@XZ 0000000140059790 f i cinder:ImageIo.obj
 0001:00058790       ??1?$_Alloc_construct_ptr@V?$allocator@U?$_Tree_node@U?$pair@$$CBHU?$pair@P6A?AV?$shared_ptr@VImageTarget@cinder@@@std@@V?$shared_ptr@VDataTarget@cinder@@@2@V?$shared_ptr@VImageSource@cinder@@@2@VOptions@ImageTarget@cinder@@AEBV?$basic_string@DU?$char_traits@D@std@@V?$allocator@D@2@@2@@ZV82@@std@@@std@@PEAX@std@@@std@@@std@@QEAA@XZ 0000000140059790 f i cinder:ImageIo.obj
 0001:00058790       ??1?$_Tree_temp_node_alloc@V?$allocator@U?$_Tree_node@U?$pair@$$CBV?$basic_string@DU?$char_traits@D@std@@V?$allocator@D@2@@std@@V?$multimap@HP6A?AV?$shared_ptr@VImageSource@cinder@@@std@@V?$shared_ptr@VDataSource@cinder@@@2@VOptions@ImageSource@cinder@@@ZU?$less@H@2@V?$allocator@U?$pair@$$CBHP6A?AV?$shared_ptr@VImageSource@cinder@@@std@@V?$shared_ptr@VDataSource@cinder@@@2@VOptions@ImageSource@cinder@@@Z@std@@@2@@2@@std@@PEAX@std@@@std@@@std@@QEAA@XZ 0000000140059790 f i cinder:ImageIo.obj
 0001:00058790       ??1?$_Alloc_construct_ptr@V?$allocator@U?$_Tree_node@U?$pair@$$CBV?$basic_string@DU?$char_traits@D@std@@V?$allocator@D@2@@std@@V?$multimap@HP6A?AV?$shared_ptr@VImageSource@cinder@@@std@@V?$shared_ptr@VDataSource@cinder@@@2@VOptions@ImageSource@cinder@@@ZU?$less@H@2@V?$allocator@U?$pair@$$CBHP6A?AV?$shared_ptr@VImageSource@cinder@@@std@@V?$shared_ptr@VDataSource@cinder@@@2@VOptions@ImageSource@cinder@@@Z@std@@@2@@2@@std@@PEAX@std@@@std@@@std@@QEAA@XZ 0000000140059790 f i cinder:ImageIo.obj
 0001:000587b0       ??1?$_Temporary_owner@UInst@ImageIoRegistrar@cinder@@@std@@QEAA@XZ 00000001400597b0 f i cinder:ImageIo.obj
 0001:00058830       ??1?$_Tree_head_scoped_ptr@V?$allocator@U?$_Tree_node@U?$pair@$$CBHP6A?AV?$shared_ptr@VImageSource@cinder@@@std@@V?$shared_ptr@VDataSource@cinder@@@2@VOptions@ImageSource@cinder@@@Z@std@@PEAX@std@@@std@@V?$_Tree_val@U?$_Tree_simple_types@U?$pair@$$CBHP6A?AV?$shared_ptr@VImageSource@cinder@@@std@@V?$shared_ptr@VDataSource@cinder@@@2@VOptions@ImageSource@cinder@@@Z@std@@@std@@@2@@std@@QEAA@XZ 0000000140059830 f i cinder:ImageIo.obj
 0001:00058850       ??1?$_Tree_head_scoped_ptr@V?$allocator@U?$_Tree_node@U?$pair@$$CBHU?$pair@P6A?AV?$shared_ptr@VImageTarget@cinder@@@std@@V?$shared_ptr@VDataTarget@cinder@@@2@V?$shared_ptr@VImageSource@cinder@@@2@VOptions@ImageTarget@cinder@@AEBV?$basic_string@DU?$char_traits@D@std@@V?$allocator@D@2@@2@@ZV82@@std@@@std@@PEAX@std@@@std@@V?$_Tree_val@U?$_Tree_simple_types@U?$pair@$$CBHU?$pair@P6A?AV?$shared_ptr@VImageTarget@cinder@@@std@@V?$shared_ptr@VDataTarget@cinder@@@2@V?$shared_ptr@VImageSource@cinder@@@2@VOptions@ImageTarget@cinder@@AEBV?$basic_string@DU?$char_traits@D@std@@V?$allocator@D@2@@2@@ZV82@@std@@@std@@@std@@@2@@std@@QEAA@XZ 0000000140059850 f i cinder:ImageIo.obj
 0001:00058890       ??1?$_Tree_temp_node@V?$allocator@U?$_Tree_node@U?$pair@$$CBHU?$pair@P6A?AV?$shared_ptr@VImageTarget@cinder@@@std@@V?$shared_ptr@VDataTarget@cinder@@@2@V?$shared_ptr@VImageSource@cinder@@@2@VOptions@ImageTarget@cinder@@AEBV?$basic_string@DU?$char_traits@D@std@@V?$allocator@D@2@@2@@ZV82@@std@@@std@@PEAX@std@@@std@@@std@@QEAA@XZ 0000000140059890 f i cinder:ImageIo.obj
 0001:000588d0       ??1?$map@HP6A?AV?$shared_ptr@VImageSource@cinder@@@std@@V?$shared_ptr@VDataSource@cinder@@@2@VOptions@ImageSource@cinder@@@ZU?$less@H@2@V?$allocator@U?$pair@$$CBHP6A?AV?$shared_ptr@VImageSource@cinder@@@std@@V?$shared_ptr@VDataSource@cinder@@@2@VOptions@ImageSource@cinder@@@Z@std@@@2@@std@@QEAA@XZ 00000001400598d0 f i cinder:ImageIo.obj
 0001:000588d0       ??1?$multimap@HP6A?AV?$shared_ptr@VImageSource@cinder@@@std@@V?$shared_ptr@VDataSource@cinder@@@2@VOptions@ImageSource@cinder@@@ZU?$less@H@2@V?$allocator@U?$pair@$$CBHP6A?AV?$shared_ptr@VImageSource@cinder@@@std@@V?$shared_ptr@VDataSource@cinder@@@2@VOptions@ImageSource@cinder@@@Z@std@@@2@@std@@QEAA@XZ 00000001400598d0 f i cinder:ImageIo.obj
 0001:000588e0       ??1?$map@V?$basic_string@DU?$char_traits@D@std@@V?$allocator@D@2@@std@@V?$multimap@HP6A?AV?$shared_ptr@VImageSource@cinder@@@std@@V?$shared_ptr@VDataSource@cinder@@@2@VOptions@ImageSource@cinder@@@ZU?$less@H@2@V?$allocator@U?$pair@$$CBHP6A?AV?$shared_ptr@VImageSource@cinder@@@std@@V?$shared_ptr@VDataSource@cinder@@@2@VOptions@ImageSource@cinder@@@Z@std@@@2@@2@U?$less@V?$basic_string@DU?$char_traits@D@std@@V?$allocator@D@2@@std@@@2@V?$allocator@U?$pair@$$CBV?$basic_string@DU?$char_traits@D@std@@V?$allocator@D@2@@std@@V?$multimap@HP6A?AV?$shared_ptr@VImageSource@cinder@@@std@@V?$shared_ptr@VDataSource@cinder@@@2@VOptions@ImageSource@cinder@@@ZU?$less@H@2@V?$allocator@U?$pair@$$CBHP6A?AV?$shared_ptr@VImageSource@cinder@@@std@@V?$shared_ptr@VDataSource@cinder@@@2@VOptions@ImageSource@cinder@@@Z@std@@@2@@2@@std@@@2@@std@@QEAA@XZ 00000001400598e0 f i cinder:ImageIo.obj
 0001:00058910       ??1?$multimap@HU?$pair@P6A?AV?$shared_ptr@VImageTarget@cinder@@@std@@V?$shared_ptr@VDataTarget@cinder@@@2@V?$shared_ptr@VImageSource@cinder@@@2@VOptions@ImageTarget@cinder@@AEBV?$basic_string@DU?$char_traits@D@std@@V?$allocator@D@2@@2@@ZV82@@std@@U?$less@H@2@V?$allocator@U?$pair@$$CBHU?$pair@P6A?AV?$shared_ptr@VImageTarget@cinder@@@std@@V?$shared_ptr@VDataTarget@cinder@@@2@V?$shared_ptr@VImageSource@cinder@@@2@VOptions@ImageTarget@cinder@@AEBV?$basic_string@DU?$char_traits@D@std@@V?$allocator@D@2@@2@@ZV82@@std@@@std@@@2@@std@@QEAA@XZ 0000000140059910 f i cinder:ImageIo.obj
 0001:00058940       ??1?$pair@HU?$pair@P6A?AV?$shared_ptr@VImageTarget@cinder@@@std@@V?$shared_ptr@VDataTarget@cinder@@@2@V?$shared_ptr@VImageSource@cinder@@@2@VOptions@ImageTarget@cinder@@AEBV?$basic_string@DU?$char_traits@D@std@@V?$allocator@D@2@@2@@ZV82@@std@@@std@@QEAA@XZ 0000000140059940 f i cinder:ImageIo.obj
 0001:00058950       ??1?$pair@P6A?AV?$shared_ptr@VImageTarget@cinder@@@std@@V?$shared_ptr@VDataTarget@cinder@@@2@V?$shared_ptr@VImageSource@cinder@@@2@VOptions@ImageTarget@cinder@@AEBV?$basic_string@DU?$char_traits@D@std@@V?$allocator@D@2@@2@@ZV82@@std@@QEAA@XZ 0000000140059950 f i cinder:ImageIo.obj
 0001:00058950       ??1?$pair@$$CBIV?$basic_string@DU?$char_traits@D@std@@V?$allocator@D@2@@std@@@std@@QEAA@XZ 0000000140059950 f i cinder:ConstantConversions.obj
 0001:000589b0       ??1?$pair@V?$basic_string@DU?$char_traits@D@std@@V?$allocator@D@2@@std@@V?$multimap@HP6A?AV?$shared_ptr@VImageSource@cinder@@@std@@V?$shared_ptr@VDataSource@cinder@@@2@VOptions@ImageSource@cinder@@@ZU?$less@H@2@V?$allocator@U?$pair@$$CBHP6A?AV?$shared_ptr@VImageSource@cinder@@@std@@V?$shared_ptr@VDataSource@cinder@@@2@VOptions@ImageSource@cinder@@@Z@std@@@2@@2@@std@@QEAA@XZ 00000001400599b0 f i cinder:ImageIo.obj
 0001:00058a20       ??1?$pair@V?$basic_string@DU?$char_traits@D@std@@V?$allocator@D@2@@std@@V?$multimap@HU?$pair@P6A?AV?$shared_ptr@VImageTarget@cinder@@@std@@V?$shared_ptr@VDataTarget@cinder@@@2@V?$shared_ptr@VImageSource@cinder@@@2@VOptions@ImageTarget@cinder@@AEBV?$basic_string@DU?$char_traits@D@std@@V?$allocator@D@2@@2@@ZV82@@std@@U?$less@H@2@V?$allocator@U?$pair@$$CBHU?$pair@P6A?AV?$shared_ptr@VImageTarget@cinder@@@std@@V?$shared_ptr@VDataTarget@cinder@@@2@V?$shared_ptr@VImageSource@cinder@@@2@VOptions@ImageTarget@cinder@@AEBV?$basic_string@DU?$char_traits@D@std@@V?$allocator@D@2@@2@@ZV82@@std@@@std@@@2@@2@@std@@QEAA@XZ 0000000140059a20 f i cinder:ImageIo.obj
 0001:00058ab0       ??R?$less@V?$basic_string@DU?$char_traits@D@std@@V?$allocator@D@2@@std@@@std@@QEBA_NAEBV?$basic_string@DU?$char_traits@D@std@@V?$allocator@D@2@@1@0@Z 0000000140059ab0 f i cinder:ImageIo.obj
 0001:00058b20       ?_Destroy@?$_Ref_count@UInst@ImageIoRegistrar@cinder@@@std@@EEAAXXZ 0000000140059b20 f i cinder:ImageIo.obj
 0001:00058ba0       ?channelOrderHasAlpha@ImageIo@cinder@@SA_NW4ChannelOrder@12@@Z 0000000140059ba0 f   cinder:ImageIo.obj
 0001:00058bb0       ?channelOrderNumChannels@ImageIo@cinder@@SACW4ChannelOrder@12@@Z 0000000140059bb0 f   cinder:ImageIo.obj
 0001:00058ca0       ?createSource@Inst@ImageIoRegistrar@cinder@@QEAA?AV?$shared_ptr@VImageSource@cinder@@@std@@V?$shared_ptr@VDataSource@cinder@@@5@VOptions@ImageSource@3@V?$basic_string@DU?$char_traits@D@std@@V?$allocator@D@2@@5@@Z 0000000140059ca0 f   cinder:ImageIo.obj
 0001:000591f0       ?createTarget@ImageIoRegistrar@cinder@@SA?AV?$shared_ptr@VImageTarget@cinder@@@std@@V?$shared_ptr@VDataTarget@cinder@@@4@V?$shared_ptr@VImageSource@cinder@@@4@VOptions@ImageTarget@2@V?$basic_string@DU?$char_traits@D@std@@V?$allocator@D@2@@4@@Z 000000014005a1f0 f   cinder:ImageIo.obj
 0001:000593c0       ?createTarget@Inst@ImageIoRegistrar@cinder@@QEAA?AV?$shared_ptr@VImageTarget@cinder@@@std@@V?$shared_ptr@VDataTarget@cinder@@@5@V?$shared_ptr@VImageSource@cinder@@@5@VOptions@ImageTarget@3@V?$basic_string@DU?$char_traits@D@std@@V?$allocator@D@2@@5@@Z 000000014005a3c0 f   cinder:ImageIo.obj
 0001:00059850       ?dataTypeBytes@ImageIo@cinder@@SAEW4DataType@12@@Z 000000014005a850 f   cinder:ImageIo.obj
 0001:00059900       ?getRowBytes@ImageSource@cinder@@QEBA_KXZ 000000014005a900 f   cinder:ImageIo.obj
 0001:00059a40       ?grayscale@?$CHANTRAIT@Thalf_float@cinder@@@cinder@@SA?AThalf_float@2@T32@00@Z 000000014005aa40 f i cinder:ImageIo.obj
 0001:00059ac0       ?instance@ImageIoRegistrar@cinder@@CAPEAUInst@12@XZ 000000014005aac0 f   cinder:ImageIo.obj
 0001:00059c90       ?isPremultiplied@ImageSource@cinder@@QEBA_NXZ 000000014005ac90 f   cinder:ImageIo.obj
 0001:00059ca0       ?loadImage@cinder@@YA?AV?$shared_ptr@VImageSource@cinder@@@std@@AEBVpath@filesystem@3@VOptions@ImageSource@1@V?$basic_string@DU?$char_traits@D@std@@V?$allocator@D@2@@3@@Z 000000014005aca0 f   cinder:ImageIo.obj
 0001:00059de0       ?loadImage@cinder@@YA?AV?$shared_ptr@VImageSource@cinder@@@std@@V?$shared_ptr@VDataSource@cinder@@@3@VOptions@ImageSource@1@V?$basic_string@DU?$char_traits@D@std@@V?$allocator@D@2@@3@@Z 000000014005ade0 f   cinder:ImageIo.obj
 0001:0005a080       ?registerSourceGeneric@ImageIoRegistrar@cinder@@SAXP6A?AV?$shared_ptr@VImageSource@cinder@@@std@@V?$shared_ptr@VDataSource@cinder@@@4@VOptions@ImageSource@2@@ZH@Z 000000014005b080 f   cinder:ImageIo.obj
 0001:0005a170       ?registerSourceType@ImageIoRegistrar@cinder@@SAXV?$basic_string@DU?$char_traits@D@std@@V?$allocator@D@2@@std@@P6A?AV?$shared_ptr@VImageSource@cinder@@@4@V?$shared_ptr@VDataSource@cinder@@@4@VOptions@ImageSource@2@@ZH@Z 000000014005b170 f   cinder:ImageIo.obj
 0001:0005a230       ?registerSourceType@Inst@ImageIoRegistrar@cinder@@QEAAXV?$basic_string@DU?$char_traits@D@std@@V?$allocator@D@2@@std@@P6A?AV?$shared_ptr@VImageSource@cinder@@@5@V?$shared_ptr@VDataSource@cinder@@@5@VOptions@ImageSource@3@@ZH@Z 000000014005b230 f   cinder:ImageIo.obj
 0001:0005a7b0       ?registerTargetType@ImageIoRegistrar@cinder@@SAXV?$basic_string@DU?$char_traits@D@std@@V?$allocator@D@2@@std@@P6A?AV?$shared_ptr@VImageTarget@cinder@@@4@V?$shared_ptr@VDataTarget@cinder@@@4@V?$shared_ptr@VImageSource@cinder@@@4@VOptions@ImageTarget@2@AEBV34@@ZH4@Z 000000014005b7b0 f   cinder:ImageIo.obj
 0001:0005a870       ?registerTargetType@Inst@ImageIoRegistrar@cinder@@QEAAXV?$basic_string@DU?$char_traits@D@std@@V?$allocator@D@2@@std@@P6A?AV?$shared_ptr@VImageTarget@cinder@@@5@V?$shared_ptr@VDataTarget@cinder@@@5@V?$shared_ptr@VImageSource@cinder@@@5@VOptions@ImageTarget@3@AEBV45@@ZH4@Z 000000014005b870 f   cinder:ImageIo.obj
 0001:0005adc0       ?setupRowFunc@ImageSource@cinder@@IEAAP812@EAAXV?$shared_ptr@VImageTarget@cinder@@@std@@HPEBX@Z0@Z 000000014005bdc0 f   cinder:ImageIo.obj
 0001:0005af40       ?setupRowFuncGraySource@ImageSource@cinder@@IEAAXV?$shared_ptr@VImageTarget@cinder@@@std@@@Z 000000014005bf40 f   cinder:ImageIo.obj
 0001:0005aff0       ?setupRowFuncRgbSource@ImageSource@cinder@@IEAAXV?$shared_ptr@VImageTarget@cinder@@@std@@@Z 000000014005bff0 f   cinder:ImageIo.obj
 0001:0005b0b0       ?translateGrayColorModelToOffsets@ImageIo@cinder@@SAXW4ChannelOrder@12@PEAC11@Z 000000014005c0b0 f   cinder:ImageIo.obj
 0001:0005b150       ?translateRgbColorModelToOffsets@ImageIo@cinder@@SAXW4ChannelOrder@12@PEAC1111@Z 000000014005c150 f   cinder:ImageIo.obj
 0001:0005b2d0       ?writeImage@cinder@@YAXV?$shared_ptr@VDataTarget@cinder@@@std@@AEBV?$shared_ptr@VImageSource@cinder@@@3@VOptions@ImageTarget@1@V?$basic_string@DU?$char_traits@D@std@@V?$allocator@D@2@@3@@Z 000000014005c2d0 f   cinder:ImageIo.obj
 0001:0005b7c0       ??$_Destroy_range@V?$allocator@V?$shared_ptr@VLogger@log@cinder@@@std@@@std@@@std@@YAXPEAV?$shared_ptr@VLogger@log@cinder@@@0@QEAV10@AEAV?$allocator@V?$shared_ptr@VLogger@log@cinder@@@std@@@0@@Z 000000014005c7c0 f i cinder:Log.obj
 0001:0005b7c0       ??$_Destroy_range@V?$allocator@V?$shared_ptr@VDisplay@cinder@@@std@@@std@@@std@@YAXPEAV?$shared_ptr@VDisplay@cinder@@@0@QEAV10@AEAV?$allocator@V?$shared_ptr@VDisplay@cinder@@@std@@@0@@Z 000000014005c7c0 f i cinder:Display.obj
 0001:0005b840       ?getBounds@Display@cinder@@QEBA?AVArea@2@XZ 000000014005c840 f   cinder:Display.obj
 0001:0005b850       ?getDisplays@Display@cinder@@SAAEBV?$vector@V?$shared_ptr@VDisplay@cinder@@@std@@V?$allocator@V?$shared_ptr@VDisplay@cinder@@@std@@@2@@std@@XZ 000000014005c850 f   cinder:Display.obj
 0001:0005b870       ?getMainDisplay@Display@cinder@@SA?AV?$shared_ptr@VDisplay@cinder@@@std@@XZ 000000014005c870 f   cinder:Display.obj
 0001:0005ba70       ??0Exception@cinder@@QEAA@AEBV?$basic_string@DU?$char_traits@D@std@@V?$allocator@D@2@@std@@@Z 000000014005ca70 f   cinder:Exception.obj
 0001:0005bb70       ??0Exception@cinder@@QEAA@XZ 000000014005cb70 f   cinder:Exception.obj
 0001:0005bba0       ?setDescription@Exception@cinder@@IEAAXAEBV?$basic_string@DU?$char_traits@D@std@@V?$allocator@D@2@@std@@@Z 000000014005cba0 f   cinder:Exception.obj
 0001:0005bbc0       ??$_Assign_range@PEAVTouch@TouchEvent@app@cinder@@@?$vector@VTouch@TouchEvent@app@cinder@@V?$allocator@VTouch@TouchEvent@app@cinder@@@std@@@std@@AEAAXPEAVTouch@TouchEvent@app@cinder@@0Uforward_iterator_tag@1@@Z 000000014005cbc0 f i cinder:AppImplMsw.obj
 0001:0005be00       ??$_Emplace_reallocate@VTouch@TouchEvent@app@cinder@@@?$vector@VTouch@TouchEvent@app@cinder@@V?$allocator@VTouch@TouchEvent@app@cinder@@@std@@@std@@QEAAPEAVTouch@TouchEvent@app@cinder@@QEAV2345@$$QEAV2345@@Z 000000014005ce00 f i cinder:AppImplMsw.obj
 0001:0005be00       ??$_Emplace_reallocate@AEBVTouch@TouchEvent@app@cinder@@@?$vector@VTouch@TouchEvent@app@cinder@@V?$allocator@VTouch@TouchEvent@app@cinder@@@std@@@std@@QEAAPEAVTouch@TouchEvent@app@cinder@@QEAV2345@AEBV2345@@Z 000000014005ce00 f i cinder:AppImplMsw.obj
 0001:0005bfd0       ??$_Emplace_reallocate@Vpath@filesystem@std@@@?$vector@Vpath@filesystem@std@@V?$allocator@Vpath@filesystem@std@@@3@@std@@QEAAPEAVpath@filesystem@1@QEAV231@$$QEAV231@@Z 000000014005cfd0 f i cinder:AppImplMsw.obj
 0001:0005c230       ??$_Erase_tree@V?$allocator@U?$_Tree_node@U?$pair@$$CBKU?$vec@$01M$0A@@glm@@@std@@PEAX@std@@@std@@@?$_Tree_val@U?$_Tree_simple_types@U?$pair@$$CBKU?$vec@$01M$0A@@glm@@@std@@@std@@@std@@QEAAXAEAV?$allocator@U?$_Tree_node@U?$pair@$$CBKU?$vec@$01M$0A@@glm@@@std@@PEAX@std@@@1@PEAU?$_Tree_node@U?$pair@$$CBKU?$vec@$01M$0A@@glm@@@std@@PEAX@1@@Z 000000014005d230 f i cinder:AppImplMsw.obj
 0001:0005c230       ??$_Erase_tree@V?$allocator@U?$_Tree_node@PEBVBufferObj@gl@cinder@@PEAX@std@@@std@@@?$_Tree_val@U?$_Tree_simple_types@PEBVBufferObj@gl@cinder@@@std@@@std@@QEAAXAEAV?$allocator@U?$_Tree_node@PEBVBufferObj@gl@cinder@@PEAX@std@@@1@PEAU?$_Tree_node@PEBVBufferObj@gl@cinder@@PEAX@1@@Z 000000014005d230 f i cinder:Context.cpp.obj
 0001:0005c230       ??$_Erase_tree@V?$allocator@U?$_Tree_node@PEBVTextureBase@gl@cinder@@PEAX@std@@@std@@@?$_Tree_val@U?$_Tree_simple_types@PEBVTextureBase@gl@cinder@@@std@@@std@@QEAAXAEAV?$allocator@U?$_Tree_node@PEBVTextureBase@gl@cinder@@PEAX@std@@@1@PEAU?$_Tree_node@PEBVTextureBase@gl@cinder@@PEAX@1@@Z 000000014005d230 f i cinder:Context.cpp.obj
 0001:0005c230       ??$_Erase_tree@V?$allocator@U?$_Tree_node@PEBVGlslProg@gl@cinder@@PEAX@std@@@std@@@?$_Tree_val@U?$_Tree_simple_types@PEBVGlslProg@gl@cinder@@@std@@@std@@QEAAXAEAV?$allocator@U?$_Tree_node@PEBVGlslProg@gl@cinder@@PEAX@std@@@1@PEAU?$_Tree_node@PEBVGlslProg@gl@cinder@@PEAX@1@@Z 000000014005d230 f i cinder:Context.cpp.obj
 0001:0005c230       ??$_Erase_tree@V?$allocator@U?$_Tree_node@PEBVFbo@gl@cinder@@PEAX@std@@@std@@@?$_Tree_val@U?$_Tree_simple_types@PEBVFbo@gl@cinder@@@std@@@std@@QEAAXAEAV?$allocator@U?$_Tree_node@PEBVFbo@gl@cinder@@PEAX@std@@@1@PEAU?$_Tree_node@PEBVFbo@gl@cinder@@PEAX@1@@Z 000000014005d230 f i cinder:Context.cpp.obj
 0001:0005c230       ??$_Erase_tree@V?$allocator@U?$_Tree_node@PEBVVao@gl@cinder@@PEAX@std@@@std@@@?$_Tree_val@U?$_Tree_simple_types@PEBVVao@gl@cinder@@@std@@@std@@QEAAXAEAV?$allocator@U?$_Tree_node@PEBVVao@gl@cinder@@PEAX@std@@@1@PEAU?$_Tree_node@PEBVVao@gl@cinder@@PEAX@1@@Z 000000014005d230 f i cinder:Context.cpp.obj
 0001:0005c290       ??0?$Signal@$$A6AXAEAVKeyEvent@app@cinder@@@ZU?$CollectorEvent@VKeyEvent@app@cinder@@@23@@signals@cinder@@QEAA@XZ 000000014005d290 f i cinder:AppImplMsw.obj
 0001:0005c330       ??0?$Signal@$$A6AXAEAVMouseEvent@app@cinder@@@ZU?$CollectorEvent@VMouseEvent@app@cinder@@@23@@signals@cinder@@QEAA@XZ 000000014005d330 f i cinder:AppImplMsw.obj
 0001:0005c3d0       ??0?$Signal@$$A6AXAEAVTouchEvent@app@cinder@@@ZU?$CollectorEvent@VTouchEvent@app@cinder@@@23@@signals@cinder@@QEAA@XZ 000000014005d3d0 f i cinder:AppImplMsw.obj
 0001:0005c470       ??0AppImplMsw@app@cinder@@QEAA@PEAVAppBase@12@@Z 000000014005d470 f   cinder:AppImplMsw.obj
 0001:0005c4d0       ??0BlankingWindow@app@cinder@@QEAA@V?$shared_ptr@VDisplay@cinder@@@std@@@Z 000000014005d4d0 f   cinder:AppImplMsw.obj
 0001:0005c7b0       ??0KeyEvent@app@cinder@@QEAA@V?$shared_ptr@VWindow@app@cinder@@@std@@HIDII@Z 000000014005d7b0 f i cinder:AppImplMsw.obj
 0001:0005c880       ??0Window@app@cinder@@IEAA@XZ 000000014005d880 f i cinder:AppImplMsw.obj
 0001:0005ca10       ??0WindowImplMsw@app@cinder@@QEAA@AEBUFormat@Window@12@V?$shared_ptr@VRenderer@app@cinder@@@std@@PEAVAppImplMsw@12@@Z 000000014005da10 f   cinder:AppImplMsw.obj
 0001:0005cf80       ??1?$Signal@$$A6AXAEAVKeyEvent@app@cinder@@@ZU?$CollectorEvent@VKeyEvent@app@cinder@@@23@@signals@cinder@@QEAA@XZ 000000014005df80 f i cinder:AppImplMsw.obj
 0001:0005cf90       ??1?$Signal@$$A6AXAEAVMouseEvent@app@cinder@@@ZU?$CollectorEvent@VMouseEvent@app@cinder@@@23@@signals@cinder@@QEAA@XZ 000000014005df90 f i cinder:AppImplMsw.obj
 0001:0005cfa0       ??1?$Signal@$$A6AXAEAVTouchEvent@app@cinder@@@ZU?$CollectorEvent@VTouchEvent@app@cinder@@@23@@signals@cinder@@QEAA@XZ 000000014005dfa0 f i cinder:AppImplMsw.obj
 0001:0005cfb0       ??1?$SignalProto@$$A6AXAEAVFileDropEvent@app@cinder@@@ZU?$CollectorEvent@VFileDropEvent@app@cinder@@@23@@detail@signals@cinder@@QEAA@XZ 000000014005dfb0 f i cinder:AppImplMsw.obj
 0001:0005d1b0       ??1?$SignalProto@$$A6AXAEAVKeyEvent@app@cinder@@@ZU?$CollectorEvent@VKeyEvent@app@cinder@@@23@@detail@signals@cinder@@QEAA@XZ 000000014005e1b0 f i cinder:AppImplMsw.obj
 0001:0005d3b0       ??1?$SignalProto@$$A6AXAEAVMouseEvent@app@cinder@@@ZU?$CollectorEvent@VMouseEvent@app@cinder@@@23@@detail@signals@cinder@@QEAA@XZ 000000014005e3b0 f i cinder:AppImplMsw.obj
 0001:0005d5b0       ??1?$SignalProto@$$A6AXAEAVTouchEvent@app@cinder@@@ZU?$CollectorEvent@VTouchEvent@app@cinder@@@23@@detail@signals@cinder@@QEAA@XZ 000000014005e5b0 f i cinder:AppImplMsw.obj
 0001:0005d7b0       ??1?$_Alloc_construct_ptr@V?$allocator@U?$_Tree_node@PEBVGlslProg@gl@cinder@@PEAX@std@@@std@@@std@@QEAA@XZ 000000014005e7b0 f i cinder:Context.cpp.obj
 0001:0005d7b0       ??1?$_Alloc_construct_ptr@V?$allocator@U?$_Tree_node@U?$pair@$$CBKU?$vec@$01M$0A@@glm@@@std@@PEAX@std@@@std@@@std@@QEAA@XZ 000000014005e7b0 f i cinder:AppImplMsw.obj
 0001:0005d7b0       ??1?$_Alloc_construct_ptr@V?$allocator@U?$_Tree_node@PEBVBufferObj@gl@cinder@@PEAX@std@@@std@@@std@@QEAA@XZ 000000014005e7b0 f i cinder:Context.cpp.obj
 0001:0005d7b0       ??1?$_Alloc_construct_ptr@V?$allocator@U?$_Tree_node@PEBVTextureBase@gl@cinder@@PEAX@std@@@std@@@std@@QEAA@XZ 000000014005e7b0 f i cinder:Context.cpp.obj
 0001:0005d7b0       ??1?$_Alloc_construct_ptr@V?$allocator@U?$_Tree_node@PEBVVao@gl@cinder@@PEAX@std@@@std@@@std@@QEAA@XZ 000000014005e7b0 f i cinder:Context.cpp.obj
 0001:0005d7d0       ??1?$_Temporary_owner@VWindow@app@cinder@@@std@@QEAA@XZ 000000014005e7d0 f i cinder:AppImplMsw.obj
 0001:0005d7f0       ??1?$set@PEBVBufferObj@gl@cinder@@U?$less@PEBVBufferObj@gl@cinder@@@std@@V?$allocator@PEBVBufferObj@gl@cinder@@@5@@std@@QEAA@XZ 000000014005e7f0 f i cinder:Context.cpp.obj
 0001:0005d7f0       ??1?$map@KU?$vec@$01M$0A@@glm@@U?$less@K@std@@V?$allocator@U?$pair@$$CBKU?$vec@$01M$0A@@glm@@@std@@@4@@std@@QEAA@XZ 000000014005e7f0 f i cinder:AppImplMsw.obj
 0001:0005d7f0       ??1?$set@PEBVFbo@gl@cinder@@U?$less@PEBVFbo@gl@cinder@@@std@@V?$allocator@PEBVFbo@gl@cinder@@@5@@std@@QEAA@XZ 000000014005e7f0 f i cinder:Context.cpp.obj
 0001:0005d7f0       ??1?$set@PEBVTextureBase@gl@cinder@@U?$less@PEBVTextureBase@gl@cinder@@@std@@V?$allocator@PEBVTextureBase@gl@cinder@@@5@@std@@QEAA@XZ 000000014005e7f0 f i cinder:Context.cpp.obj
 0001:0005d7f0       ??1?$set@PEBVGlslProg@gl@cinder@@U?$less@PEBVGlslProg@gl@cinder@@@std@@V?$allocator@PEBVGlslProg@gl@cinder@@@5@@std@@QEAA@XZ 000000014005e7f0 f i cinder:Context.cpp.obj
 0001:0005d7f0       ??1?$set@PEBVVao@gl@cinder@@U?$less@PEBVVao@gl@cinder@@@std@@V?$allocator@PEBVVao@gl@cinder@@@5@@std@@QEAA@XZ 000000014005e7f0 f i cinder:Context.cpp.obj
 0001:0005d850       ??1AppImplMsw@app@cinder@@UEAA@XZ 000000014005e850 f   cinder:AppImplMsw.obj
 0001:0005d8b0       ??1WindowImplMsw@app@cinder@@UEAA@XZ 000000014005e8b0 f i cinder:AppImplMsw.obj
 0001:0005d9e0       ??A?$map@KU?$vec@$01M$0A@@glm@@U?$less@K@std@@V?$allocator@U?$pair@$$CBKU?$vec@$01M$0A@@glm@@@std@@@4@@std@@QEAAAEAU?$vec@$01M$0A@@glm@@AEBK@Z 000000014005e9e0 f i cinder:AppImplMsw.obj
 0001:0005dae0       ??_GAppImplMsw@app@cinder@@UEAAPEAXI@Z 000000014005eae0 f i cinder:AppImplMsw.obj
 0001:0005dae0       ??_EAppImplMsw@app@cinder@@UEAAPEAXI@Z 000000014005eae0 f i cinder:AppImplMsw.obj
 0001:0005db70       ??_GWindow@app@cinder@@QEAAPEAXI@Z 000000014005eb70 f i cinder:AppImplMsw.obj
 0001:0005dcd0       ??_GWindowImplMsw@app@cinder@@UEAAPEAXI@Z 000000014005ecd0 f i cinder:AppImplMsw.obj
 0001:0005dcd0       ??_EWindowImplMsw@app@cinder@@UEAAPEAXI@Z 000000014005ecd0 f i cinder:AppImplMsw.obj
 0001:0005de20       ?BlankingWndProc@app@cinder@@YA_JPEAUHWND__@@I_K_J@Z 000000014005ee20 f   cinder:AppImplMsw.obj
 0001:0005df40       ?WndProc@app@cinder@@YA_JPEAUHWND__@@I_K_J@Z 000000014005ef40 f   cinder:AppImplMsw.obj
 0001:0005fb60       ?_Change_array@?$vector@VTouch@TouchEvent@app@cinder@@V?$allocator@VTouch@TouchEvent@app@cinder@@@std@@@std@@AEAAXQEAVTouch@TouchEvent@app@cinder@@_K1@Z 0000000140060b60 f i cinder:AppImplMsw.obj
 0001:0005fc10       ?_Destroy@?$_Ref_count@VWindow@app@cinder@@@std@@EEAAXXZ 0000000140060c10 f i cinder:AppImplMsw.obj
 0001:0005fc30       ?_Extract@?$_Tree_val@U?$_Tree_simple_types@U?$pair@QEAXV?$shared_ptr@VTimelineItem@cinder@@@std@@@std@@@std@@@std@@QEAAPEAU?$_Tree_node@U?$pair@QEAXV?$shared_ptr@VTimelineItem@cinder@@@std@@@std@@PEAX@2@V?$_Tree_unchecked_const_iterator@V?$_Tree_val@U?$_Tree_simple_types@U?$pair@QEAXV?$shared_ptr@VTimelineItem@cinder@@@std@@@std@@@std@@@std@@U_Iterator_base0@2@@2@@Z 0000000140060c30 f i cinder:Timeline.obj
 0001:0005fc30       ?_Extract@?$_Tree_val@U?$_Tree_simple_types@PEBVVao@gl@cinder@@@std@@@std@@QEAAPEAU?$_Tree_node@PEBVVao@gl@cinder@@PEAX@2@V?$_Tree_unchecked_const_iterator@V?$_Tree_val@U?$_Tree_simple_types@PEBVVao@gl@cinder@@@std@@@std@@U_Iterator_base0@2@@2@@Z 0000000140060c30 f i cinder:Context.cpp.obj
 0001:0005fc30       ?_Extract@?$_Tree_val@U?$_Tree_simple_types@PEBVGlslProg@gl@cinder@@@std@@@std@@QEAAPEAU?$_Tree_node@PEBVGlslProg@gl@cinder@@PEAX@2@V?$_Tree_unchecked_const_iterator@V?$_Tree_val@U?$_Tree_simple_types@PEBVGlslProg@gl@cinder@@@std@@@std@@U_Iterator_base0@2@@2@@Z 0000000140060c30 f i cinder:Context.cpp.obj
 0001:0005fc30       ?_Extract@?$_Tree_val@U?$_Tree_simple_types@PEBVBufferObj@gl@cinder@@@std@@@std@@QEAAPEAU?$_Tree_node@PEBVBufferObj@gl@cinder@@PEAX@2@V?$_Tree_unchecked_const_iterator@V?$_Tree_val@U?$_Tree_simple_types@PEBVBufferObj@gl@cinder@@@std@@@std@@U_Iterator_base0@2@@2@@Z 0000000140060c30 f i cinder:Context.cpp.obj
 0001:0005fc30       ?_Extract@?$_Tree_val@U?$_Tree_simple_types@U?$pair@$$CBKU?$vec@$01M$0A@@glm@@@std@@@std@@@std@@QEAAPEAU?$_Tree_node@U?$pair@$$CBKU?$vec@$01M$0A@@glm@@@std@@PEAX@2@V?$_Tree_unchecked_const_iterator@V?$_Tree_val@U?$_Tree_simple_types@U?$pair@$$CBKU?$vec@$01M$0A@@glm@@@std@@@std@@@std@@U_Iterator_base0@2@@2@@Z 0000000140060c30 f i cinder:AppImplMsw.obj
 0001:0005fc30       ?_Extract@?$_Tree_val@U?$_Tree_simple_types@PEBVTextureBase@gl@cinder@@@std@@@std@@QEAAPEAU?$_Tree_node@PEBVTextureBase@gl@cinder@@PEAX@2@V?$_Tree_unchecked_const_iterator@V?$_Tree_val@U?$_Tree_simple_types@PEBVTextureBase@gl@cinder@@@std@@@std@@U_Iterator_base0@2@@2@@Z 0000000140060c30 f i cinder:Context.cpp.obj
 0001:0005ffd0       ?_Lrotate@?$_Tree_val@U?$_Tree_simple_types@PEBVGlslProg@gl@cinder@@@std@@@std@@QEAAXPEAU?$_Tree_node@PEBVGlslProg@gl@cinder@@PEAX@2@@Z 0000000140060fd0 f i cinder:Context.cpp.obj
 0001:0005ffd0       ?_Lrotate@?$_Tree_val@U?$_Tree_simple_types@U?$pair@$$CBKU?$vec@$01M$0A@@glm@@@std@@@std@@@std@@QEAAXPEAU?$_Tree_node@U?$pair@$$CBKU?$vec@$01M$0A@@glm@@@std@@PEAX@2@@Z 0000000140060fd0 f i cinder:AppImplMsw.obj
 0001:0005ffd0       ?_Lrotate@?$_Tree_val@U?$_Tree_simple_types@PEBVTextureBase@gl@cinder@@@std@@@std@@QEAAXPEAU?$_Tree_node@PEBVTextureBase@gl@cinder@@PEAX@2@@Z 0000000140060fd0 f i cinder:Context.cpp.obj
 0001:0005ffd0       ?_Lrotate@?$_Tree_val@U?$_Tree_simple_types@U?$pair@QEAXV?$shared_ptr@VTimelineItem@cinder@@@std@@@std@@@std@@@std@@QEAAXPEAU?$_Tree_node@U?$pair@QEAXV?$shared_ptr@VTimelineItem@cinder@@@std@@@std@@PEAX@2@@Z 0000000140060fd0 f i cinder:Timeline.obj
 0001:0005ffd0       ?_Lrotate@?$_Tree_val@U?$_Tree_simple_types@PEBVVao@gl@cinder@@@std@@@std@@QEAAXPEAU?$_Tree_node@PEBVVao@gl@cinder@@PEAX@2@@Z 0000000140060fd0 f i cinder:Context.cpp.obj
 0001:0005ffd0       ?_Lrotate@?$_Tree_val@U?$_Tree_simple_types@PEBVBufferObj@gl@cinder@@@std@@@std@@QEAAXPEAU?$_Tree_node@PEBVBufferObj@gl@cinder@@PEAX@2@@Z 0000000140060fd0 f i cinder:Context.cpp.obj
 0001:00060030       ?_Rrotate@?$_Tree_val@U?$_Tree_simple_types@PEBVBufferObj@gl@cinder@@@std@@@std@@QEAAXPEAU?$_Tree_node@PEBVBufferObj@gl@cinder@@PEAX@2@@Z 0000000140061030 f i cinder:Context.cpp.obj
 0001:00060030       ?_Rrotate@?$_Tree_val@U?$_Tree_simple_types@U?$pair@QEAXV?$shared_ptr@VTimelineItem@cinder@@@std@@@std@@@std@@@std@@QEAAXPEAU?$_Tree_node@U?$pair@QEAXV?$shared_ptr@VTimelineItem@cinder@@@std@@@std@@PEAX@2@@Z 0000000140061030 f i cinder:Timeline.obj
 0001:00060030       ?_Rrotate@?$_Tree_val@U?$_Tree_simple_types@PEBVGlslProg@gl@cinder@@@std@@@std@@QEAAXPEAU?$_Tree_node@PEBVGlslProg@gl@cinder@@PEAX@2@@Z 0000000140061030 f i cinder:Context.cpp.obj
 0001:00060030       ?_Rrotate@?$_Tree_val@U?$_Tree_simple_types@PEBVTextureBase@gl@cinder@@@std@@@std@@QEAAXPEAU?$_Tree_node@PEBVTextureBase@gl@cinder@@PEAX@2@@Z 0000000140061030 f i cinder:Context.cpp.obj
 0001:00060030       ?_Rrotate@?$_Tree_val@U?$_Tree_simple_types@U?$pair@$$CBKU?$vec@$01M$0A@@glm@@@std@@@std@@@std@@QEAAXPEAU?$_Tree_node@U?$pair@$$CBKU?$vec@$01M$0A@@glm@@@std@@PEAX@2@@Z 0000000140061030 f i cinder:AppImplMsw.obj
 0001:00060030       ?_Rrotate@?$_Tree_val@U?$_Tree_simple_types@PEBVVao@gl@cinder@@@std@@@std@@QEAAXPEAU?$_Tree_node@PEBVVao@gl@cinder@@PEAX@2@@Z 0000000140061030 f i cinder:Context.cpp.obj
 0001:00060090       ?_Throw_fs_error@filesystem@std@@YAXPEBDW4__std_win_error@@AEBVpath@12@@Z 0000000140061090 f i cinder:AppImplMsw.obj
 0001:00060100       ?_Umove@?$vector@VTouch@TouchEvent@app@cinder@@V?$allocator@VTouch@TouchEvent@app@cinder@@@std@@@std@@AEAAPEAVTouch@TouchEvent@app@cinder@@PEAV3456@00@Z 0000000140061100 f i cinder:AppImplMsw.obj
 0001:00060180       ?allocate@?$allocator@VTouch@TouchEvent@app@cinder@@@std@@QEAAPEAVTouch@TouchEvent@app@cinder@@_K@Z 0000000140061180 f i cinder:AppImplMsw.obj
 0001:00060200       ?close@WindowImplMsw@app@cinder@@UEAAXXZ 0000000140061200 f   cinder:AppImplMsw.obj
 0001:00060210       ?createWindow@WindowImplMsw@app@cinder@@IEAAXAEBU?$vec@$01H$0A@@glm@@AEBV?$basic_string@DU?$char_traits@D@std@@V?$allocator@D@2@@std@@V?$shared_ptr@VDisplay@cinder@@@7@V?$shared_ptr@VRenderer@app@cinder@@@7@@Z 0000000140061210 f   cinder:AppImplMsw.obj
 0001:000606b0       ?destroy@BlankingWindow@app@cinder@@QEAAXXZ 00000001400616b0 f   cinder:AppImplMsw.obj
 0001:000606c0       ?draw@WindowImplMsw@app@cinder@@UEAAXXZ 00000001400616c0 f   cinder:AppImplMsw.obj
 0001:00060720       ?erase@?$_Tree@V?$_Tmap_traits@KU?$vec@$01M$0A@@glm@@U?$less@K@std@@V?$allocator@U?$pair@$$CBKU?$vec@$01M$0A@@glm@@@std@@@4@$0A@@std@@@std@@QEAA_KAEBK@Z 0000000140061720 f i cinder:AppImplMsw.obj
 0001:00060960       ?getActiveTouches@WindowImplMsw@app@cinder@@UEBAAEBV?$vector@VTouch@TouchEvent@app@cinder@@V?$allocator@VTouch@TouchEvent@app@cinder@@@std@@@std@@XZ 0000000140061960 f i cinder:AppImplMsw.obj
 0001:00060970       ?getContentScale@WindowImplMsw@app@cinder@@UEBAMXZ 0000000140061970 f   cinder:AppImplMsw.obj
 0001:000609a0       ?getDisplay@WindowImplMsw@app@cinder@@UEBA?AV?$shared_ptr@VDisplay@cinder@@@std@@XZ 00000001400619a0 f i cinder:AppImplMsw.obj
 0001:000609d0       ?getFolderPath@AppImplMsw@app@cinder@@SA?AVpath@filesystem@std@@AEBV456@@Z 00000001400619d0 f   cinder:AppImplMsw.obj
 0001:00060d70       ?getHighDensityDisplayEnabled@AppImplMsw@app@cinder@@IEBA_NXZ 0000000140061d70 f   cinder:AppImplMsw.obj
 0001:00060d80       ?getNative@WindowImplMsw@app@cinder@@UEAAPEAXXZ 0000000140061d80 f i cinder:AppImplMsw.obj
 0001:00060d90       ?getOpenFilePath@AppImplMsw@app@cinder@@SA?AVpath@filesystem@std@@AEBV456@V?$vector@V?$basic_string@DU?$char_traits@D@std@@V?$allocator@D@2@@std@@V?$allocator@V?$basic_string@DU?$char_traits@D@std@@V?$allocator@D@2@@std@@@2@@6@@Z 0000000140061d90 f   cinder:AppImplMsw.obj
 0001:00061500       ?getPos@WindowImplMsw@app@cinder@@UEBA?AU?$vec@$01H$0A@@glm@@XZ 0000000140062500 f i cinder:AppImplMsw.obj
 0001:00061510       ?getRenderer@WindowImplMsw@app@cinder@@UEBA?AV?$shared_ptr@VRenderer@app@cinder@@@std@@XZ 0000000140062510 f i cinder:AppImplMsw.obj
 0001:00061540       ?getSaveFilePath@AppImplMsw@app@cinder@@SA?AVpath@filesystem@std@@AEBV456@V?$vector@V?$basic_string@DU?$char_traits@D@std@@V?$allocator@D@2@@std@@V?$allocator@V?$basic_string@DU?$char_traits@D@std@@V?$allocator@D@2@@std@@@2@@6@@Z 0000000140062540 f   cinder:AppImplMsw.obj
 0001:00061d50       ?getSize@WindowImplMsw@app@cinder@@UEBA?AU?$vec@$01H$0A@@glm@@XZ 0000000140062d50 f i cinder:AppImplMsw.obj
 0001:00061dc0       ?getTitle@WindowImplMsw@app@cinder@@UEBA?AV?$basic_string@DU?$char_traits@D@std@@V?$allocator@D@2@@std@@XZ 0000000140062dc0 f   cinder:AppImplMsw.obj
 0001:00061ee0       ?getWindow@AppImplMsw@app@cinder@@UEBA?AV?$shared_ptr@VWindow@app@cinder@@@std@@XZ 0000000140062ee0 f i cinder:AppImplMsw.obj
 0001:00061f10       ?getWindow@WindowImplMsw@app@cinder@@QEAA?AV?$shared_ptr@VWindow@app@cinder@@@std@@XZ 0000000140062f10 f i cinder:AppImplMsw.obj
 0001:00061f40       ?hide@WindowImplMsw@app@cinder@@UEAAXXZ 0000000140062f40 f   cinder:AppImplMsw.obj
 0001:00061f60       ?hideCursor@AppImplMsw@app@cinder@@SAXXZ 0000000140062f60 f   cinder:AppImplMsw.obj
 0001:00061f90       ?isFullScreen@WindowImplMsw@app@cinder@@UEAA_NXZ 0000000140062f90 f i cinder:AppImplMsw.obj
 0001:00061fa0       ?isHidden@WindowImplMsw@app@cinder@@UEBA_NXZ 0000000140062fa0 f   cinder:AppImplMsw.obj
 0001:00061fb0       ?keyDown@WindowImplMsw@app@cinder@@UEAAXAEBVKeyEvent@23@@Z 0000000140062fb0 f   cinder:AppImplMsw.obj
 0001:00062120       ?mapVirtualKey@app@cinder@@YA_W_K@Z 0000000140063120 f   cinder:AppImplMsw.obj
 0001:000621c0       ?onTouch@WindowImplMsw@app@cinder@@IEAAXPEAUHWND__@@_K_J@Z 00000001400631c0 f   cinder:AppImplMsw.obj
 0001:00063050       ?prepKeyEventModifiers@app@cinder@@YAIXZ 0000000140064050 f   cinder:AppImplMsw.obj
 0001:000630f0       ?prepMouseEventModifiers@app@cinder@@YAI_K@Z 00000001400640f0 f   cinder:AppImplMsw.obj
 0001:00063180       ?prepNativeKeyCode@app@cinder@@YAH_K@Z 0000000140064180 f   cinder:AppImplMsw.obj
 0001:00063200       ?privateClose@WindowImplMsw@app@cinder@@QEAAXXZ 0000000140064200 f   cinder:AppImplMsw.obj
 0001:00063250       ?privateCreate__@Window@app@cinder@@SA?AV?$shared_ptr@VWindow@app@cinder@@@std@@PEAVWindowImplMsw@23@PEAVAppBase@23@@Z 0000000140064250 f i cinder:AppImplMsw.obj
 0001:000633a0       ?redraw@WindowImplMsw@app@cinder@@UEAAXXZ 00000001400643a0 f   cinder:AppImplMsw.obj
 0001:000633c0       ?resize@WindowImplMsw@app@cinder@@UEAAXXZ 00000001400643c0 f   cinder:AppImplMsw.obj
 0001:00063410       ?setFullScreen@WindowImplMsw@app@cinder@@UEAAX_NAEBUFullScreenOptions@23@@Z 0000000140064410 f   cinder:AppImplMsw.obj
 0001:00063430       ?setPos@WindowImplMsw@app@cinder@@UEAAXAEBU?$vec@$01H$0A@@glm@@@Z 0000000140064430 f   cinder:AppImplMsw.obj
 0001:000634e0       ?setSize@WindowImplMsw@app@cinder@@UEAAXAEBU?$vec@$01H$0A@@glm@@@Z 00000001400644e0 f   cinder:AppImplMsw.obj
 0001:000635b0       ?setTitle@WindowImplMsw@app@cinder@@UEAAXAEBV?$basic_string@DU?$char_traits@D@std@@V?$allocator@D@2@@std@@@Z 00000001400645b0 f   cinder:AppImplMsw.obj
 0001:00063660       ?setWindow@AppImplMsw@app@cinder@@QEAAXV?$shared_ptr@VWindow@app@cinder@@@std@@@Z 0000000140064660 f i cinder:AppImplMsw.obj
 0001:00063710       ?show@WindowImplMsw@app@cinder@@UEAAXXZ 0000000140064710 f   cinder:AppImplMsw.obj
 0001:00063740       ?showCursor@AppImplMsw@app@cinder@@SAXXZ 0000000140064740 f   cinder:AppImplMsw.obj
 0001:00063770       ?toPoints@WindowImplMsw@app@cinder@@QEBAHH@Z 0000000140064770 f i cinder:AppImplMsw.obj
 0001:000637a0       ?toggleFullScreen@WindowImplMsw@app@cinder@@MEAAXAEBUFullScreenOptions@23@@Z 00000001400647a0 f   cinder:AppImplMsw.obj
 0001:000639e0       ??$_Emplace_reallocate@AEBVpath@filesystem@std@@@?$vector@Vpath@filesystem@std@@V?$allocator@Vpath@filesystem@std@@@3@@std@@QEAAPEAVpath@filesystem@1@QEAV231@AEBV231@@Z 00000001400649e0 f i cinder:Platform.obj
 0001:00063ca0       ??0AssetLoadExc@app@cinder@@QEAA@AEBV012@@Z 0000000140064ca0 f i cinder:Platform.obj
 0001:00063d10       ??0AssetLoadExc@app@cinder@@QEAA@AEBVpath@filesystem@std@@@Z 0000000140064d10 f   cinder:Platform.obj
 0001:00063f30       ??0ResourceLoadExc@app@cinder@@QEAA@AEBVpath@filesystem@std@@@Z 0000000140064f30 f   cinder:Platform.obj
 0001:00064150       ?console@Platform@app@cinder@@UEAAAEAV?$basic_ostream@DU?$char_traits@D@std@@@std@@XZ 0000000140065150 f   cinder:Platform.obj
 0001:00064160       ?findAndAddDefaultAssetPath@Platform@app@cinder@@MEAAXXZ 0000000140065160 f   cinder:Platform.obj
 0001:00064660       ?get@Platform@app@cinder@@SAPEAV123@XZ 0000000140065660 f   cinder:Platform.obj
 0001:000646c0       ?getAssetPath@Platform@app@cinder@@UEBA?AVpath@filesystem@std@@AEBV456@@Z 00000001400656c0 f   cinder:Platform.obj
 0001:000648b0       ?loadAsset@Platform@app@cinder@@UEAA?AV?$shared_ptr@VDataSource@cinder@@@std@@AEBVpath@filesystem@5@@Z 00000001400658b0 f   cinder:Platform.obj
 0001:00064a60       ??$_Emplace_reallocate@VConnection@signals@cinder@@@?$vector@VConnection@signals@cinder@@V?$allocator@VConnection@signals@cinder@@@std@@@std@@QEAAPEAVConnection@signals@cinder@@QEAV234@$$QEAV234@@Z 0000000140065a60 f i cinder:Signals.obj
 0001:00064ce0       ??0Connection@signals@cinder@@QEAA@AEBV?$shared_ptr@UDisconnector@detail@signals@cinder@@@std@@PEAUSignalLinkBase@detail@12@H@Z 0000000140065ce0 f   cinder:Signals.obj
 0001:00064d10       ??0Disconnector@detail@signals@cinder@@QEAA@PEAUSignalBase@123@@Z 0000000140065d10 f   cinder:Signals.obj
 0001:00064d10       ??$?0PEADU?$default_delete@$$BY0A@D@std@@$0A@X@?$unique_ptr@$$BY0A@DU?$default_delete@$$BY0A@D@std@@@std@@QEAA@PEAD@Z 0000000140065d10 f   cinder:GlslProg.obj
 0001:00064d20       ??1ConnectionList@signals@cinder@@QEAA@XZ 0000000140065d20 f   cinder:Signals.obj
 0001:00064e30       ?_Destroy@?$vector@VConnection@signals@cinder@@V?$allocator@VConnection@signals@cinder@@@std@@@std@@AEAAXPEAVConnection@signals@cinder@@0@Z 0000000140065e30 f i cinder:Signals.obj
 0001:00064e80       ?_Umove@?$vector@VConnection@signals@cinder@@V?$allocator@VConnection@signals@cinder@@@std@@@std@@AEAAPEAVConnection@signals@cinder@@PEAV345@00@Z 0000000140065e80 f i cinder:Signals.obj
 0001:00064ef0       ?add@ConnectionList@signals@cinder@@QEAAX$$QEAVConnection@23@@Z 0000000140065ef0 f   cinder:Signals.obj
 0001:00064f40       ?disconnect@Connection@signals@cinder@@QEAA_NXZ 0000000140065f40 f   cinder:Signals.obj
 0001:00065010       ?demangleTypeName@System@cinder@@SA?AV?$basic_string@DU?$char_traits@D@std@@V?$allocator@D@2@@std@@PEBD@Z 0000000140066010 f   cinder:System.obj
 0001:00065050       ??$?0VTimeline@cinder@@$0A@@?$shared_ptr@VTimelineItem@cinder@@@std@@QEAA@PEAVTimeline@cinder@@@Z 0000000140066050 f i cinder:Timeline.obj
 0001:00065150       ??$_Erase_tree@V?$allocator@U?$_Tree_node@U?$pair@QEAXV?$shared_ptr@VTimelineItem@cinder@@@std@@@std@@PEAX@std@@@std@@@?$_Tree_val@U?$_Tree_simple_types@U?$pair@QEAXV?$shared_ptr@VTimelineItem@cinder@@@std@@@std@@@std@@@std@@QEAAXAEAV?$allocator@U?$_Tree_node@U?$pair@QEAXV?$shared_ptr@VTimelineItem@cinder@@@std@@@std@@PEAX@std@@@1@PEAU?$_Tree_node@U?$pair@QEAXV?$shared_ptr@VTimelineItem@cinder@@@std@@@std@@PEAX@1@@Z 0000000140066150 f i cinder:Timeline.obj
 0001:00065200       ??0Timeline@cinder@@AEAA@AEBV01@@Z 0000000140066200 f   cinder:Timeline.obj
 0001:000654b0       ??0Timeline@cinder@@IEAA@XZ 00000001400664b0 f   cinder:Timeline.obj
 0001:00065530       ??1?$_Tree_temp_node@V?$allocator@U?$_Tree_node@U?$pair@QEAXV?$shared_ptr@VTimelineItem@cinder@@@std@@@std@@PEAX@std@@@std@@@std@@QEAA@XZ 0000000140066530 f i cinder:Timeline.obj
 0001:000655b0       ??1?$multimap@PEAXV?$shared_ptr@VTimelineItem@cinder@@@std@@U?$less@PEAX@2@V?$allocator@U?$pair@QEAXV?$shared_ptr@VTimelineItem@cinder@@@std@@@std@@@2@@std@@QEAA@XZ 00000001400665b0 f i cinder:Timeline.obj
 0001:000655e0       ??1?$pair@PEAXV?$shared_ptr@VTimelineItem@cinder@@@std@@@std@@QEAA@XZ 00000001400665e0 f i cinder:Timeline.obj
 0001:00065630       ??1TimelineItem@cinder@@UEAA@XZ 0000000140066630 f i cinder:Timeline.obj
 0001:00065660       ??_GTimeline@cinder@@UEAAPEAXI@Z 0000000140066660 f i cinder:Timeline.obj
 0001:00065660       ??_ETimeline@cinder@@UEAAPEAXI@Z 0000000140066660 f i cinder:Timeline.obj
 0001:000656f0       ??_GTimelineItem@cinder@@UEAAPEAXI@Z 00000001400666f0 f i cinder:Timeline.obj
 0001:000656f0       ??_ETimelineItem@cinder@@UEAAPEAXI@Z 00000001400666f0 f i cinder:Timeline.obj
 0001:00065750       ?calcDuration@Timeline@cinder@@MEBAMXZ 0000000140066750 f   cinder:Timeline.obj
 0001:00065820       ?calcDuration@TimelineItem@cinder@@UEBAMXZ 0000000140066820 f i cinder:Timeline.obj
 0001:00065830       ?clone@Timeline@cinder@@MEBA?AV?$shared_ptr@VTimelineItem@cinder@@@std@@XZ 0000000140066830 f   cinder:Timeline.obj
 0001:00065880       ?cloneReverse@Timeline@cinder@@MEBA?AV?$shared_ptr@VTimelineItem@cinder@@@std@@XZ 0000000140066880 f   cinder:Timeline.obj
 0001:00065980       ?eraseMarked@Timeline@cinder@@IEAAXXZ 0000000140066980 f   cinder:Timeline.obj
 0001:00065b20       ?loopStart@Timeline@cinder@@MEAAXXZ 0000000140066b20 f   cinder:Timeline.obj
 0001:00065b30       ?reset@Timeline@cinder@@UEAAX_N@Z 0000000140066b30 f   cinder:Timeline.obj
 0001:00065be0       ?reset@TimelineItem@cinder@@UEAAX_N@Z 0000000140066be0 f i cinder:Timeline.obj
 0001:00065bf0       ?reverse@Timeline@cinder@@MEAAXXZ 0000000140066bf0 f   cinder:Timeline.obj
 0001:00065c80       ?stepTo@Timeline@cinder@@QEAAXM@Z 0000000140066c80 f   cinder:Timeline.obj
 0001:00065d70       ?stepTo@Timeline@cinder@@UEAAXM_N@Z 0000000140066d70 f i cinder:Timeline.obj
 0001:00065d80       ?update@Timeline@cinder@@MEAAXM@Z 0000000140066d80 f   cinder:Timeline.obj
 0001:00065da0       ??$_Emplace_reallocate@AEBV?$shared_ptr@VLogger@log@cinder@@@std@@@?$vector@V?$shared_ptr@VLogger@log@cinder@@@std@@V?$allocator@V?$shared_ptr@VLogger@log@cinder@@@std@@@2@@std@@QEAAPEAV?$shared_ptr@VLogger@log@cinder@@@1@QEAV21@AEBV21@@Z 0000000140066da0 f i cinder:Log.obj
 0001:00065fe0       ??$makeLogger@VLoggerConsole@log@cinder@@$$V@LogManager@log@cinder@@QEAA?AV?$shared_ptr@VLoggerConsole@log@cinder@@@std@@XZ 0000000140066fe0 f i cinder:Log.obj
 0001:00066150       ??0Entry@log@cinder@@QEAA@W4Level@12@AEBULocation@12@@Z 0000000140067150 f   cinder:Log.obj
 0001:00066210       ??1?$lock_guard@Vmutex@std@@@std@@QEAA@XZ 0000000140067210 f i cinder:Log.obj
 0001:00066220       ??1?$vector@V?$shared_ptr@VLogger@log@cinder@@@std@@V?$allocator@V?$shared_ptr@VLogger@log@cinder@@@std@@@2@@std@@QEAA@XZ 0000000140067220 f i cinder:Log.obj
 0001:00066230       ??1Entry@log@cinder@@QEAA@XZ 0000000140067230 f   cinder:Log.obj
 0001:00066260       ??1Metadata@log@cinder@@QEAA@XZ 0000000140067260 f i cinder:Log.obj
 0001:00066270       ??1mutex@std@@QEAA@XZ      0000000140067270 f i cinder:Log.obj
 0001:00066280       ??6log@cinder@@YAAEAV?$basic_ostream@DU?$char_traits@D@std@@@std@@AEAV23@AEBW4Level@01@@Z 0000000140067280 f   cinder:Log.obj
 0001:00066350       ??_E?$_Ref_count_obj2@VLoggerConsole@log@cinder@@@std@@UEAAPEAXI@Z 0000000140067350 f i cinder:Log.obj
 0001:00066350       ??_G?$_Ref_count_obj2@VLoggerConsole@log@cinder@@@std@@UEAAPEAXI@Z 0000000140067350 f i cinder:Log.obj
 0001:00066380       ??_ELoggerConsole@log@cinder@@UEAAPEAXI@Z 0000000140067380 f i cinder:Log.obj
 0001:00066380       ??_GLogger@log@cinder@@UEAAPEAXI@Z 0000000140067380 f i cinder:Log.obj
 0001:00066380       ??_ELogger@log@cinder@@UEAAPEAXI@Z 0000000140067380 f i cinder:Log.obj
 0001:00066380       ??_GLoggerConsole@log@cinder@@UEAAPEAXI@Z 0000000140067380 f i cinder:Log.obj
 0001:000663b0       ?_Destroy@?$_Ref_count_obj2@VLoggerConsole@log@cinder@@@std@@EEAAXXZ 00000001400673b0 f i cinder:Log.obj
 0001:000663c0       ?_Destroy@?$vector@V?$shared_ptr@VDisplay@cinder@@@std@@V?$allocator@V?$shared_ptr@VDisplay@cinder@@@std@@@2@@std@@AEAAXPEAV?$shared_ptr@VDisplay@cinder@@@2@0@Z 00000001400673c0 f i cinder:PlatformMsw.obj
 0001:000663c0       ?_Destroy@?$vector@V?$shared_ptr@VLogger@log@cinder@@@std@@V?$allocator@V?$shared_ptr@VLogger@log@cinder@@@std@@@2@@std@@AEAAXPEAV?$shared_ptr@VLogger@log@cinder@@@2@0@Z 00000001400673c0 f i cinder:Log.obj
 0001:000663e0       ??1?$vector@V?$shared_ptr@VDisplay@cinder@@@std@@V?$allocator@V?$shared_ptr@VDisplay@cinder@@@std@@@2@@std@@QEAA@XZ 00000001400673e0 f i cinder:PlatformMsw.obj
 0001:000663e0       ?_Tidy@?$vector@V?$shared_ptr@VLogger@log@cinder@@@std@@V?$allocator@V?$shared_ptr@VLogger@log@cinder@@@std@@@2@@std@@AEAAXXZ 00000001400673e0 f i cinder:Log.obj
 0001:00066450       ?allocate@?$allocator@U?$vec@$03M$0A@@glm@@@std@@QEAAPEAU?$vec@$03M$0A@@glm@@_K@Z 0000000140067450 f i cinder:Batch.obj
 0001:00066450       ?allocate@?$allocator@V?$shared_ptr@VDisplay@cinder@@@std@@@std@@QEAAPEAV?$shared_ptr@VDisplay@cinder@@@2@_K@Z 0000000140067450 f i cinder:PlatformMsw.obj
 0001:00066450       ?allocate@?$allocator@V?$ColorAT@M@cinder@@@std@@QEAAPEAV?$ColorAT@M@cinder@@_K@Z 0000000140067450 f i cinder:Batch.obj
 0001:00066450       ?allocate@?$allocator@U?$pair@U?$vec@$01H$0A@@glm@@U12@@std@@@std@@QEAAPEAU?$pair@U?$vec@$01H$0A@@glm@@U12@@2@_K@Z 0000000140067450 f i cinder:Context.cpp.obj
 0001:00066450       ?allocate@?$allocator@V?$shared_ptr@VLogger@log@cinder@@@std@@@std@@QEAAPEAV?$shared_ptr@VLogger@log@cinder@@@2@_K@Z 0000000140067450 f i cinder:Log.obj
 0001:000664c0       ?deallocate@?$allocator@U?$pair@U?$vec@$01H$0A@@glm@@U12@@std@@@std@@QEAAXQEAU?$pair@U?$vec@$01H$0A@@glm@@U12@@2@_K@Z 00000001400674c0 f i cinder:Context.cpp.obj
 0001:000664c0       ?deallocate@?$allocator@V?$shared_ptr@VLogger@log@cinder@@@std@@@std@@QEAAXQEAV?$shared_ptr@VLogger@log@cinder@@@2@_K@Z 00000001400674c0 f i cinder:Log.obj
 0001:000664c0       ?deallocate@?$allocator@V?$shared_ptr@VDisplay@cinder@@@std@@@std@@QEAAXQEAV?$shared_ptr@VDisplay@cinder@@@2@_K@Z 00000001400674c0 f i cinder:PlatformMsw.obj
 0001:00066510       ?write@LoggerConsole@log@cinder@@UEAAXAEBUMetadata@23@AEBV?$basic_string@DU?$char_traits@D@std@@V?$allocator@D@2@@std@@@Z 0000000140067510 f   cinder:Log.obj
 0001:00066560       ?writeDefault@Logger@log@cinder@@IEAAXAEAV?$basic_ostream@DU?$char_traits@D@std@@@std@@AEBUMetadata@23@AEBV?$basic_string@DU?$char_traits@D@std@@V?$allocator@D@2@@5@@Z 0000000140067560 f   cinder:Log.obj
 0001:00066750       ?writeToLog@Entry@log@cinder@@QEAAXXZ 0000000140067750 f   cinder:Log.obj
 0001:000668d0       ??0Renderer@app@cinder@@IEAA@AEBV012@@Z 00000001400678d0 f   cinder:Renderer.obj
 0001:000668e0       ??$_Emplace_reallocate@AEBI@?$vector@IV?$allocator@I@std@@@std@@QEAAPEAIQEAIAEBI@Z 00000001400678e0 f i cinder:Context.cpp.obj
 0001:000668e0       ??$_Emplace_reallocate@I@?$vector@IV?$allocator@I@std@@@std@@QEAAPEAIQEAI$$QEAI@Z 00000001400678e0 f i cinder:Context.cpp.obj
 0001:000668e0       ??$_Emplace_reallocate@AEBH@?$vector@HV?$allocator@H@std@@@std@@QEAAPEAHQEAHAEBH@Z 00000001400678e0 f i cinder:RendererImplGlMsw.obj
 0001:000669e0       ??0RendererImplGlMsw@app@cinder@@QEAA@PEAVRendererGl@12@@Z 00000001400679e0 f   cinder:RendererImplGlMsw.obj
 0001:00066a00       ??1?$vector@HV?$allocator@H@std@@@std@@QEAA@XZ 0000000140067a00 f i cinder:RendererImplGlMsw.obj
 0001:00066a00       ??1?$vector@IV?$allocator@I@std@@@std@@QEAA@XZ 0000000140067a00 f i cinder:Context.cpp.obj
 0001:00066a00       ??1?$vector@MV?$allocator@M@std@@@std@@QEAA@XZ 0000000140067a00 f i cinder:Context.cpp.obj
 0001:00066a60       ??_GPlatformData@Context@gl@cinder@@UEAAPEAXI@Z 0000000140067a60 f i cinder:RendererImplGlMsw.obj
 0001:00066a60       ??_EPlatformData@Context@gl@cinder@@UEAAPEAXI@Z 0000000140067a60 f i cinder:RendererImplGlMsw.obj
 0001:00066a90       ??_GPlatformDataMsw@gl@cinder@@UEAAPEAXI@Z 0000000140067a90 f i cinder:RendererImplGlMsw.obj
 0001:00066a90       ??_EPlatformDataMsw@gl@cinder@@UEAAPEAXI@Z 0000000140067a90 f i cinder:RendererImplGlMsw.obj
 0001:00066ac0       ?_Change_array@?$vector@MV?$allocator@M@std@@@std@@AEAAXQEAM_K1@Z 0000000140067ac0 f i cinder:GeomIo.obj
 0001:00066ac0       ?_Change_array@?$vector@HV?$allocator@H@std@@@std@@AEAAXQEAH_K1@Z 0000000140067ac0 f i cinder:RendererImplGlMsw.obj
 0001:00066ac0       ?_Change_array@?$vector@IV?$allocator@I@std@@@std@@AEAAXQEAI_K1@Z 0000000140067ac0 f i cinder:Context.cpp.obj
 0001:00066b50       ?defaultResize@RendererImplGlMsw@app@cinder@@UEBAXXZ 0000000140067b50 f   cinder:RendererImplGlMsw.obj
 0001:00066ec0       ?initialize@RendererImplGlMsw@app@cinder@@QEAA_NPEAVWindowImplMsw@23@V?$shared_ptr@VRenderer@app@cinder@@@std@@@Z 0000000140067ec0 f   cinder:RendererImplGlMsw.obj
 0001:00067490       ?kill@RendererImplGlMsw@app@cinder@@UEAAXXZ 0000000140068490 f   cinder:RendererImplGlMsw.obj
 0001:00067530       ?makeCurrentContext@RendererImplGlMsw@app@cinder@@UEAAX_N@Z 0000000140068530 f   cinder:RendererImplGlMsw.obj
 0001:00067540       ?swapBuffers@RendererImplGlMsw@app@cinder@@UEBAXXZ 0000000140068540 f   cinder:RendererImplGlMsw.obj
 0001:00067b00       ??$flipVertical@E@ip@cinder@@YAXPEAV?$SurfaceT@E@1@@Z 0000000140068b00 f i cinder:Flip.obj
 0001:0006f6f0       gladLoadGL                 00000001400706f0 f   cinder:glad.obj
 0001:0006f780       gladLoadGLLoader           0000000140070780 f   cinder:glad.obj
 0001:0007c7e0       sscanf_s                   000000014007d7e0 f i cinder:glad.obj
 0001:0007c840       ??$_Emplace_reallocate@UFormat@Window@app@cinder@@@?$vector@UFormat@Window@app@cinder@@V?$allocator@UFormat@Window@app@cinder@@@std@@@std@@QEAAPEAUFormat@Window@app@cinder@@QEAU2345@$$QEAU2345@@Z 000000014007d840 f i cinder:AppImplMswBasic.obj
 0001:0007ca10       ??$_Free_non_head@V?$allocator@U?$_List_node@V?$shared_ptr@VBlankingWindow@app@cinder@@@std@@PEAX@std@@@std@@@?$_List_node@V?$shared_ptr@VBlankingWindow@app@cinder@@@std@@PEAX@std@@SAXAEAV?$allocator@U?$_List_node@V?$shared_ptr@VBlankingWindow@app@cinder@@@std@@PEAX@std@@@1@PEAU01@@Z 000000014007da10 f i cinder:AppImplMswBasic.obj
 0001:0007caa0       ??$construct@UFormat@Window@app@cinder@@U1234@@?$_Default_allocator_traits@V?$allocator@UFormat@Window@app@cinder@@@std@@@std@@SAXAEAV?$allocator@UFormat@Window@app@cinder@@@1@QEAUFormat@Window@app@cinder@@$$QEAU3456@@Z 000000014007daa0 f i cinder:AppImplMswBasic.obj
 0001:0007cba0       ??0AppImplMswBasic@app@cinder@@QEAA@PEAVAppMsw@12@AEBVSettings@312@@Z 000000014007dba0 f   cinder:AppImplMswBasic.obj
 0001:0007cf60       ??1?$_Alloc_construct_ptr@V?$allocator@U?$_List_node@PEAVWindowImplMswBasic@app@cinder@@PEAX@std@@@std@@@std@@QEAA@XZ 000000014007df60 f i cinder:AppImplMswBasic.obj
 0001:0007cf80       ??1?$_Tidy_guard@V?$vector@UFormat@Window@app@cinder@@V?$allocator@UFormat@Window@app@cinder@@@std@@@std@@@std@@QEAA@XZ 000000014007df80 f i cinder:AppImplMswBasic.obj
 0001:0007cf90       ??1?$list@PEAVWindowImplMswBasic@app@cinder@@V?$allocator@PEAVWindowImplMswBasic@app@cinder@@@std@@@std@@QEAA@XZ 000000014007df90 f i cinder:AppImplMswBasic.obj
 0001:0007cff0       ??1?$list@V?$shared_ptr@VBlankingWindow@app@cinder@@@std@@V?$allocator@V?$shared_ptr@VBlankingWindow@app@cinder@@@std@@@2@@std@@QEAA@XZ 000000014007dff0 f i cinder:AppImplMswBasic.obj
 0001:0007d020       ??_EAppImplMswBasic@app@cinder@@UEAAPEAXI@Z 000000014007e020 f i cinder:AppImplMswBasic.obj
 0001:0007d020       ??_GAppImplMswBasic@app@cinder@@UEAAPEAXI@Z 000000014007e020 f i cinder:AppImplMswBasic.obj
 0001:0007d110       ??_EWindowImplMswBasic@app@cinder@@UEAAPEAXI@Z 000000014007e110 f i cinder:AppImplMswBasic.obj
 0001:0007d110       ??_GWindowImplMswBasic@app@cinder@@UEAAPEAXI@Z 000000014007e110 f i cinder:AppImplMswBasic.obj
 0001:0007d150       ?allocate@?$allocator@UFormat@Window@app@cinder@@@std@@QEAAPEAUFormat@Window@app@cinder@@_K@Z 000000014007e150 f i cinder:AppImplMswBasic.obj
 0001:0007d1c0       ?closeWindow@AppImplMswBasic@app@cinder@@EEAAXPEAVWindowImplMsw@23@@Z 000000014007e1c0 f   cinder:AppImplMswBasic.obj
 0001:0007d2d0       ?createWindow@AppImplMswBasic@app@cinder@@AEAA?AV?$shared_ptr@VWindow@app@cinder@@@std@@UFormat@Window@23@@Z 000000014007e2d0 f   cinder:AppImplMswBasic.obj
 0001:0007d700       ?destroyBlankingWindows@AppImplMswBasic@app@cinder@@QEAAXXZ 000000014007e700 f   cinder:AppImplMswBasic.obj
 0001:0007d770       ?disableFrameRate@AppImplMswBasic@app@cinder@@QEAAXXZ 000000014007e770 f   cinder:AppImplMswBasic.obj
 0001:0007d780       ?getForegroundWindow@AppImplMswBasic@app@cinder@@QEBA?AV?$shared_ptr@VWindow@app@cinder@@@std@@XZ 000000014007e780 f   cinder:AppImplMswBasic.obj
 0001:0007d7b0       ?getNumWindows@AppImplMswBasic@app@cinder@@QEBA_KXZ 000000014007e7b0 f   cinder:AppImplMswBasic.obj
 0001:0007d7c0       ?getWindowIndex@AppImplMswBasic@app@cinder@@QEAA?AV?$shared_ptr@VWindow@app@cinder@@@std@@_K@Z 000000014007e7c0 f   cinder:AppImplMswBasic.obj
 0001:0007d820       ?isFrameRateEnabled@AppImplMswBasic@app@cinder@@QEBA_NXZ 000000014007e820 f   cinder:AppImplMswBasic.obj
 0001:0007d830       ?quit@AppImplMswBasic@app@cinder@@UEAAXXZ 000000014007e830 f   cinder:AppImplMswBasic.obj
 0001:0007d950       ?run@AppImplMswBasic@app@cinder@@QEAAXXZ 000000014007e950 f   cinder:AppImplMswBasic.obj
 0001:0007dd10       ?setForegroundWindow@AppImplMswBasic@app@cinder@@EEAAXV?$shared_ptr@VWindow@app@cinder@@@std@@@Z 000000014007ed10 f   cinder:AppImplMswBasic.obj
 0001:0007ddc0       ?setFrameRate@AppImplMswBasic@app@cinder@@UEAAXM@Z 000000014007edc0 f   cinder:AppImplMswBasic.obj
 0001:0007ddf0       ?setupBlankingWindows@AppImplMswBasic@app@cinder@@QEAAXV?$shared_ptr@VDisplay@cinder@@@std@@@Z 000000014007edf0 f   cinder:AppImplMswBasic.obj
 0001:0007dfc0       ?toggleFullScreen@WindowImplMswBasic@app@cinder@@UEAAXAEBUFullScreenOptions@23@@Z 000000014007efc0 f   cinder:AppImplMswBasic.obj
 0001:0007e030       ??$append@V?$back_insert_iterator@V?$basic_string@DU?$char_traits@D@std@@V?$allocator@D@2@@std@@@std@@@utf8@@YA?AV?$back_insert_iterator@V?$basic_string@DU?$char_traits@D@std@@V?$allocator@D@2@@std@@@std@@IV12@@Z 000000014007f030 f i cinder:Unicode.obj
 0001:0007e280       ??$validate_next@V?$_String_const_iterator@V?$_String_val@U?$_Simple_types@D@std@@@std@@@std@@@internal@utf8@@YA?AW4utf_error@01@AEAV?$_String_const_iterator@V?$_String_val@U?$_Simple_types@D@std@@@std@@@std@@V34@AEAI@Z 000000014007f280 f i cinder:Unicode.obj
 0001:0007e500       ??0exception@utf8@@QEAA@AEBV01@@Z 000000014007f500 f i cinder:Unicode.obj
 0001:0007e540       ??0invalid_code_point@utf8@@QEAA@AEBV01@@Z 000000014007f540 f i cinder:Unicode.obj
 0001:0007e590       ??0invalid_code_point@utf8@@QEAA@I@Z 000000014007f590 f i cinder:Unicode.obj
 0001:0007e5b0       ??0invalid_utf16@utf8@@QEAA@AEBV01@@Z 000000014007f5b0 f i cinder:Unicode.obj
 0001:0007e600       ??0invalid_utf16@utf8@@QEAA@G@Z 000000014007f600 f i cinder:Unicode.obj
 0001:0007e620       ??0invalid_utf8@utf8@@QEAA@AEBV01@@Z 000000014007f620 f i cinder:Unicode.obj
 0001:0007e670       ??0invalid_utf8@utf8@@QEAA@E@Z 000000014007f670 f i cinder:Unicode.obj
 0001:0007e690       ??0not_enough_room@utf8@@QEAA@AEBV01@@Z 000000014007f690 f i cinder:Unicode.obj
 0001:0007e6d0       ??0not_enough_room@utf8@@QEAA@XZ 000000014007f6d0 f i cinder:Unicode.obj
 0001:0007e6f0       ??D?$_String_const_iterator@V?$_String_val@U?$_Simple_types@D@std@@@std@@@std@@QEBAAEBDXZ 000000014007f6f0 f i cinder:Unicode.obj
 0001:0007e6f0       ?get@?$unique_ptr@$$BY0A@DU?$default_delete@$$BY0A@D@std@@@std@@QEBAPEADXZ 000000014007f6f0 f i cinder:GlslProg.obj
 0001:0007e700       ??_Gscheduler_worker_creation_error@Concurrency@@UEAAPEAXI@Z 000000014007f700 f i libconcrt:Exceptions.obj
 0001:0007e700       ??_Einvalid_utf8@utf8@@UEAAPEAXI@Z 000000014007f700 f i cinder:Unicode.obj
 0001:0007e700       ??_Escheduler_resource_allocation_error@Concurrency@@UEAAPEAXI@Z 000000014007f700 f i libconcrt:Platform.obj
 0001:0007e700       ??_Gscheduler_resource_allocation_error@Concurrency@@UEAAPEAXI@Z 000000014007f700 f i libconcrt:Platform.obj
 0001:0007e700       ??_Ginvalid_code_point@utf8@@UEAAPEAXI@Z 000000014007f700 f i cinder:Unicode.obj
 0001:0007e700       ??_Ginvalid_utf8@utf8@@UEAAPEAXI@Z 000000014007f700 f i cinder:Unicode.obj
 0001:0007e700       ??_Einvalid_code_point@utf8@@UEAAPEAXI@Z 000000014007f700 f i cinder:Unicode.obj
 0001:0007e700       ??_Ginvalid_utf16@utf8@@UEAAPEAXI@Z 000000014007f700 f i cinder:Unicode.obj
 0001:0007e700       ??_Einvalid_utf16@utf8@@UEAAPEAXI@Z 000000014007f700 f i cinder:Unicode.obj
 0001:0007e700       ??_Escheduler_worker_creation_error@Concurrency@@UEAAPEAXI@Z 000000014007f700 f i libconcrt:Exceptions.obj
 0001:0007e750       ?toUtf16@cinder@@YA?AV?$basic_string@_SU?$char_traits@_S@std@@V?$allocator@_S@2@@std@@AEBV?$basic_string@DU?$char_traits@D@std@@V?$allocator@D@2@@3@@Z 000000014007f750 f   cinder:Unicode.obj
 0001:0007e8e0       ?toUtf8@cinder@@YA?AV?$basic_string@DU?$char_traits@D@std@@V?$allocator@D@2@@std@@PEB_S_K@Z 000000014007f8e0 f   cinder:Unicode.obj
 0001:0007ea10       ?what@invalid_code_point@utf8@@UEBAPEBDXZ 000000014007fa10 f i cinder:Unicode.obj
 0001:0007ea20       ?what@invalid_utf16@utf8@@UEBAPEBDXZ 000000014007fa20 f i cinder:Unicode.obj
 0001:0007ea30       ?what@invalid_utf8@utf8@@UEBAPEBDXZ 000000014007fa30 f i cinder:Unicode.obj
 0001:0007ea40       ?what@not_enough_room@utf8@@UEBAPEBDXZ 000000014007fa40 f i cinder:Unicode.obj
 0001:0007ea50       ??0ExcContextMakeCurrent@gl@cinder@@QEAA@AEBV012@@Z 000000014007fa50 f i cinder:Environment.obj
 0001:0007eac0       ??0ExcContextMakeCurrent@gl@cinder@@QEAA@XZ 000000014007fac0 f i cinder:Environment.obj
 0001:0007eaf0       ??0Exception@gl@cinder@@QEAA@AEBV012@@Z 000000014007faf0 f i cinder:Environment.obj
 0001:0007eb60       ??1?$_Temporary_owner@VContext@gl@cinder@@@std@@QEAA@XZ 000000014007fb60 f i cinder:Environment.obj
 0001:0007eb90       ?_Destroy@?$_Ref_count@VContext@gl@cinder@@@std@@EEAAXXZ 000000014007fb90 f i cinder:Environment.obj
 0001:0007ebc0       ?env@gl@cinder@@YAPEAVEnvironment@12@XZ 000000014007fbc0 f   cinder:Environment.obj
 0001:0007ebd0       ?makeContextCurrent@Environment@gl@cinder@@QEAAXPEBVContext@23@@Z 000000014007fbd0 f   cinder:Environment.obj
 0001:0007ed90       ?setCore@Environment@gl@cinder@@SAXXZ 000000014007fd90 f   cinder:Environment.obj
 0001:0007edb0       ??0ShaderDef@gl@cinder@@QEAA@XZ 000000014007fdb0 f   cinder:Shader.obj
 0001:0007ede0       ??MShaderDef@gl@cinder@@QEBA_NAEBV012@@Z 000000014007fde0 f   cinder:Shader.obj
 0001:0007ee40       ?color@ShaderDef@gl@cinder@@QEAAAEAV123@XZ 000000014007fe40 f   cinder:Shader.obj
 0001:0007ee50       ?getTextureSwizzleString@ShaderDef@gl@cinder@@QEBA?AV?$basic_string@DU?$char_traits@D@std@@V?$allocator@D@2@@std@@XZ 000000014007fe50 f   cinder:Shader.obj
 0001:0007efc0       ?isTextureSwizzleDefault@ShaderDef@gl@cinder@@QEBA_NXZ 000000014007ffc0 f   cinder:Shader.obj
 0001:0007eff0       ?texture@ShaderDef@gl@cinder@@QEAAAEAV123@AEBV?$shared_ptr@VTexture2d@gl@cinder@@@std@@@Z 000000014007fff0 f   cinder:Shader.obj
 0001:0007f050       ?uniformBasedPosAndTexCoord@ShaderDef@gl@cinder@@QEAAAEAV123@XZ 0000000140080050 f   cinder:Shader.obj
 0001:0007f060       ??$_Destroy_range@V?$allocator@V?$vector@IV?$allocator@I@std@@@std@@@std@@@std@@YAXPEAV?$vector@IV?$allocator@I@std@@@0@QEAV10@AEAV?$allocator@V?$vector@IV?$allocator@I@std@@@std@@@0@@Z 0000000140080060 f i cinder:Context.cpp.obj
 0001:0007f0f0       ??$_Emplace_reallocate@AEBQEBVGlslProg@gl@cinder@@@?$vector@PEBVGlslProg@gl@cinder@@V?$allocator@PEBVGlslProg@gl@cinder@@@std@@@std@@QEAAPEAPEBVGlslProg@gl@cinder@@QEAPEBV234@AEBQEBV234@@Z 00000001400800f0 f i cinder:Context.cpp.obj
 0001:0007f0f0       ??$_Emplace_reallocate@AEBQEAVVao@gl@cinder@@@?$vector@PEAVVao@gl@cinder@@V?$allocator@PEAVVao@gl@cinder@@@std@@@std@@QEAAPEAPEAVVao@gl@cinder@@QEAPEAV234@AEBQEAV234@@Z 00000001400800f0 f i cinder:Context.cpp.obj
 0001:0007f0f0       ??$_Emplace_reallocate@PEBVGlslProg@gl@cinder@@@?$vector@PEBVGlslProg@gl@cinder@@V?$allocator@PEBVGlslProg@gl@cinder@@@std@@@std@@QEAAPEAPEBVGlslProg@gl@cinder@@QEAPEBV234@$$QEAPEBV234@@Z 00000001400800f0 f i cinder:Context.cpp.obj
 0001:0007f0f0       ??$_Emplace_reallocate@PEAVVao@gl@cinder@@@?$vector@PEAVVao@gl@cinder@@V?$allocator@PEAVVao@gl@cinder@@@std@@@std@@QEAAPEAPEAVVao@gl@cinder@@QEAPEAV234@$$QEAPEAV234@@Z 00000001400800f0 f i cinder:Context.cpp.obj
 0001:0007f1f0       ??$_Emplace_reallocate@AEBU?$pair@U?$vec@$01H$0A@@glm@@U12@@std@@@?$vector@U?$pair@U?$vec@$01H$0A@@glm@@U12@@std@@V?$allocator@U?$pair@U?$vec@$01H$0A@@glm@@U12@@std@@@2@@std@@QEAAPEAU?$pair@U?$vec@$01H$0A@@glm@@U12@@1@QEAU21@AEBU21@@Z 00000001400801f0 f i cinder:Context.cpp.obj
 0001:0007f1f0       ??$_Emplace_reallocate@U?$pair@U?$vec@$01H$0A@@glm@@U12@@std@@@?$vector@U?$pair@U?$vec@$01H$0A@@glm@@U12@@std@@V?$allocator@U?$pair@U?$vec@$01H$0A@@glm@@U12@@std@@@2@@std@@QEAAPEAU?$pair@U?$vec@$01H$0A@@glm@@U12@@1@QEAU21@$$QEAU21@@Z 00000001400801f0 f i cinder:Context.cpp.obj
 0001:0007f390       ??$_Emplace_reallocate@U?$mat@$03$03M$0A@@glm@@@?$vector@U?$mat@$03$03M$0A@@glm@@V?$allocator@U?$mat@$03$03M$0A@@glm@@@std@@@std@@QEAAPEAU?$mat@$03$03M$0A@@glm@@QEAU23@$$QEAU23@@Z 0000000140080390 f i cinder:Context.cpp.obj
 0001:0007f570       ??$_Erase_tree@V?$allocator@U?$_Tree_node@U?$pair@$$CBEV?$map@IV?$vector@HV?$allocator@H@std@@@std@@U?$less@I@2@V?$allocator@U?$pair@$$CBIV?$vector@HV?$allocator@H@std@@@std@@@std@@@2@@std@@@std@@PEAX@std@@@std@@@?$_Tree_val@U?$_Tree_simple_types@U?$pair@$$CBEV?$map@IV?$vector@HV?$allocator@H@std@@@std@@U?$less@I@2@V?$allocator@U?$pair@$$CBIV?$vector@HV?$allocator@H@std@@@std@@@std@@@2@@std@@@std@@@std@@@std@@QEAAXAEAV?$allocator@U?$_Tree_node@U?$pair@$$CBEV?$map@IV?$vector@HV?$allocator@H@std@@@std@@U?$less@I@2@V?$allocator@U?$pair@$$CBIV?$vector@HV?$allocator@H@std@@@std@@@std@@@2@@std@@@std@@PEAX@std@@@1@PEAU?$_Tree_node@U?$pair@$$CBEV?$map@IV?$vector@HV?$allocator@H@std@@@std@@U?$less@I@2@V?$allocator@U?$pair@$$CBIV?$vector@HV?$allocator@H@std@@@std@@@std@@@2@@std@@@std@@PEAX@1@@Z 0000000140080570 f i cinder:Context.cpp.obj
 0001:0007f610       ??$_Erase_tree@V?$allocator@U?$_Tree_node@U?$pair@$$CBIV?$vector@EV?$allocator@E@std@@@std@@@std@@PEAX@std@@@std@@@?$_Tree_val@U?$_Tree_simple_types@U?$pair@$$CBIV?$vector@EV?$allocator@E@std@@@std@@@std@@@std@@@std@@QEAAXAEAV?$allocator@U?$_Tree_node@U?$pair@$$CBIV?$vector@EV?$allocator@E@std@@@std@@@std@@PEAX@std@@@1@PEAU?$_Tree_node@U?$pair@$$CBIV?$vector@EV?$allocator@E@std@@@std@@@std@@PEAX@1@@Z 0000000140080610 f i cinder:Context.cpp.obj
 0001:0007f6d0       ??$_Erase_tree@V?$allocator@U?$_Tree_node@U?$pair@$$CBIV?$vector@HV?$allocator@H@std@@@std@@@std@@PEAX@std@@@std@@@?$_Tree_val@U?$_Tree_simple_types@U?$pair@$$CBIV?$vector@HV?$allocator@H@std@@@std@@@std@@@std@@@std@@QEAAXAEAV?$allocator@U?$_Tree_node@U?$pair@$$CBIV?$vector@HV?$allocator@H@std@@@std@@@std@@PEAX@std@@@1@PEAU?$_Tree_node@U?$pair@$$CBIV?$vector@HV?$allocator@H@std@@@std@@@std@@PEAX@1@@Z 00000001400806d0 f i cinder:Context.cpp.obj
 0001:0007f6d0       ??$_Erase_tree_and_orphan@V?$allocator@U?$_Tree_node@U?$pair@$$CBIV?$vector@HV?$allocator@H@std@@@std@@@std@@PEAX@std@@@std@@@?$_Tree_val@U?$_Tree_simple_types@U?$pair@$$CBIV?$vector@HV?$allocator@H@std@@@std@@@std@@@std@@@std@@QEAAXAEAV?$allocator@U?$_Tree_node@U?$pair@$$CBIV?$vector@HV?$allocator@H@std@@@std@@@std@@PEAX@std@@@1@PEAU?$_Tree_node@U?$pair@$$CBIV?$vector@HV?$allocator@H@std@@@std@@@std@@PEAX@1@@Z 00000001400806d0 f i cinder:GlslProg.obj
 0001:0007f790       ??$_Erase_tree@V?$allocator@U?$_Tree_node@U?$pair@$$CBVShaderDef@gl@cinder@@V?$shared_ptr@VGlslProg@gl@cinder@@@std@@@std@@PEAX@std@@@std@@@?$_Tree_val@U?$_Tree_simple_types@U?$pair@$$CBVShaderDef@gl@cinder@@V?$shared_ptr@VGlslProg@gl@cinder@@@std@@@std@@@std@@@std@@QEAAXAEAV?$allocator@U?$_Tree_node@U?$pair@$$CBVShaderDef@gl@cinder@@V?$shared_ptr@VGlslProg@gl@cinder@@@std@@@std@@PEAX@std@@@1@PEAU?$_Tree_node@U?$pair@$$CBVShaderDef@gl@cinder@@V?$shared_ptr@VGlslProg@gl@cinder@@@std@@@std@@PEAX@1@@Z 0000000140080790 f i cinder:Context.cpp.obj
 0001:0007f840       ??$_Find_lower_bound@VShaderDef@gl@cinder@@@?$_Tree@V?$_Tmap_traits@VShaderDef@gl@cinder@@V?$shared_ptr@VGlslProg@gl@cinder@@@std@@U?$less@VShaderDef@gl@cinder@@@5@V?$allocator@U?$pair@$$CBVShaderDef@gl@cinder@@V?$shared_ptr@VGlslProg@gl@cinder@@@std@@@std@@@5@$0A@@std@@@std@@IEBA?AU?$_Tree_find_result@PEAU?$_Tree_node@U?$pair@$$CBVShaderDef@gl@cinder@@V?$shared_ptr@VGlslProg@gl@cinder@@@std@@@std@@PEAX@std@@@1@AEBVShaderDef@gl@cinder@@@Z 0000000140080840 f i cinder:Context.cpp.obj
 0001:0007f8c0       ??$setStackState@U?$pair@U?$vec@$01H$0A@@glm@@U12@@std@@@Context@gl@cinder@@IEAA_NAEAV?$vector@U?$pair@U?$vec@$01H$0A@@glm@@U12@@std@@V?$allocator@U?$pair@U?$vec@$01H$0A@@glm@@U12@@std@@@2@@std@@U?$pair@U?$vec@$01H$0A@@glm@@U12@@4@@Z 00000001400808c0 f i cinder:Context.cpp.obj
 0001:0007f960       ??0?$mat@$03$03M$0A@@glm@@QEAA@$$QEAU01@@Z 0000000140080960 f i cinder:Context.cpp.obj
 0001:0007f9a0       ??0Context@gl@cinder@@AEAA@AEBV?$shared_ptr@UPlatformData@Context@gl@cinder@@@std@@@Z 00000001400809a0 f   cinder:Context.cpp.obj
 0001:00080ab0       ??1?$_Tree_temp_node_alloc@V?$allocator@U?$_Tree_node@V?$basic_string@DU?$char_traits@D@std@@V?$allocator@D@2@@std@@PEAX@std@@@std@@@std@@QEAA@XZ 0000000140081ab0 f i cinder:GlslProg.obj
 0001:00080ab0       ??1?$_Alloc_construct_ptr@V?$allocator@U?$_Tree_node@V?$basic_string@DU?$char_traits@D@std@@V?$allocator@D@2@@std@@PEAX@std@@@std@@@std@@QEAA@XZ 0000000140081ab0 f i cinder:GlslProg.obj
 0001:00080ab0       ??1?$_Alloc_construct_ptr@V?$allocator@U?$_Tree_node@Vpath@filesystem@std@@PEAX@std@@@std@@@std@@QEAA@XZ 0000000140081ab0 f i cinder:ShaderPreprocessor.obj
 0001:00080ab0       ??1?$_Alloc_construct_ptr@V?$allocator@U?$_Tree_node@U?$pair@$$CBIV?$vector@HV?$allocator@H@std@@@std@@@std@@PEAX@std@@@std@@@std@@QEAA@XZ 0000000140081ab0 f i cinder:Context.cpp.obj
 0001:00080ab0       ??1?$_Alloc_construct_ptr@V?$allocator@U?$_Tree_node@U?$pair@$$CBIV?$vector@EV?$allocator@E@std@@@std@@@std@@PEAX@std@@@std@@@std@@QEAA@XZ 0000000140081ab0 f i cinder:Context.cpp.obj
 0001:00080ab0       ??1?$_Tree_temp_node_alloc@V?$allocator@U?$_Tree_node@Vpath@filesystem@std@@PEAX@std@@@std@@@std@@QEAA@XZ 0000000140081ab0 f i cinder:ShaderPreprocessor.obj
 0001:00080ad0       ??1?$_Tree_temp_node_alloc@V?$allocator@U?$_Tree_node@U?$pair@$$CBV?$basic_string@DU?$char_traits@D@std@@V?$allocator@D@2@@std@@PEBU_GUID@@@std@@PEAX@std@@@std@@@std@@QEAA@XZ 0000000140081ad0 f i cinder:ImageTargetFileWic.obj
 0001:00080ad0       ??1?$_Alloc_construct_ptr@V?$allocator@U?$_Tree_node@U?$pair@$$CBV?$basic_string@DU?$char_traits@D@std@@V?$allocator@D@2@@std@@W4Attrib@geom@cinder@@@std@@PEAX@std@@@std@@@std@@QEAA@XZ 0000000140081ad0 f i cinder:GlslProg.obj
 0001:00080ad0       ??1?$_Alloc_construct_ptr@V?$allocator@U?$_Tree_node@U?$pair@$$CBVShaderDef@gl@cinder@@V?$shared_ptr@VGlslProg@gl@cinder@@@std@@@std@@PEAX@std@@@std@@@std@@QEAA@XZ 0000000140081ad0 f i cinder:Context.cpp.obj
 0001:00080ad0       ??1?$_Alloc_construct_ptr@V?$allocator@U?$_Tree_node@U?$pair@$$CBV?$basic_string@DU?$char_traits@D@std@@V?$allocator@D@2@@std@@W4UniformSemantic@gl@cinder@@@std@@PEAX@std@@@std@@@std@@QEAA@XZ 0000000140081ad0 f i cinder:GlslProg.obj
 0001:00080ad0       ??1?$_Alloc_construct_ptr@V?$allocator@U?$_Tree_node@U?$pair@$$CBV?$basic_string@DU?$char_traits@D@std@@V?$allocator@D@2@@std@@I@std@@PEAX@std@@@std@@@std@@QEAA@XZ 0000000140081ad0 f i cinder:GlslProg.obj
 0001:00080ad0       ??1?$_Alloc_construct_ptr@V?$allocator@U?$_Tree_node@U?$pair@$$CBV?$basic_string@DU?$char_traits@D@std@@V?$allocator@D@2@@std@@PEBU_GUID@@@std@@PEAX@std@@@std@@@std@@QEAA@XZ 0000000140081ad0 f i cinder:ImageTargetFileWic.obj
 0001:00080af0       ??1?$map@EV?$map@IV?$vector@HV?$allocator@H@std@@@std@@U?$less@I@2@V?$allocator@U?$pair@$$CBIV?$vector@HV?$allocator@H@std@@@std@@@std@@@2@@std@@U?$less@E@2@V?$allocator@U?$pair@$$CBEV?$map@IV?$vector@HV?$allocator@H@std@@@std@@U?$less@I@2@V?$allocator@U?$pair@$$CBIV?$vector@HV?$allocator@H@std@@@std@@@std@@@2@@std@@@std@@@2@@std@@QEAA@XZ 0000000140081af0 f i cinder:Context.cpp.obj
 0001:00080b20       ??1?$map@IV?$vector@EV?$allocator@E@std@@@std@@U?$less@I@2@V?$allocator@U?$pair@$$CBIV?$vector@EV?$allocator@E@std@@@std@@@std@@@2@@std@@QEAA@XZ 0000000140081b20 f i cinder:Context.cpp.obj
 0001:00080b50       ??1?$map@IV?$vector@HV?$allocator@H@std@@@std@@U?$less@I@2@V?$allocator@U?$pair@$$CBIV?$vector@HV?$allocator@H@std@@@std@@@std@@@2@@std@@QEAA@XZ 0000000140081b50 f i cinder:Context.cpp.obj
 0001:00080b80       ??1?$map@VShaderDef@gl@cinder@@V?$shared_ptr@VGlslProg@gl@cinder@@@std@@U?$less@VShaderDef@gl@cinder@@@5@V?$allocator@U?$pair@$$CBVShaderDef@gl@cinder@@V?$shared_ptr@VGlslProg@gl@cinder@@@std@@@std@@@5@@std@@QEAA@XZ 0000000140081b80 f i cinder:Context.cpp.obj
 0001:00080bb0       ??1?$vector@EV?$allocator@E@std@@@std@@QEAA@XZ 0000000140081bb0 f i cinder:Context.cpp.obj
 0001:00080bb0       ??1?$vector@DV?$allocator@D@std@@@std@@QEAA@XZ 0000000140081bb0 f i cinder:Stream.obj
 0001:00080c10       ??1?$vector@PEBVGlslProg@gl@cinder@@V?$allocator@PEBVGlslProg@gl@cinder@@@std@@@std@@QEAA@XZ 0000000140081c10 f i cinder:Context.cpp.obj
 0001:00080c10       ??1?$vector@PEAVVao@gl@cinder@@V?$allocator@PEAVVao@gl@cinder@@@std@@@std@@QEAA@XZ 0000000140081c10 f i cinder:Context.cpp.obj
 0001:00080c10       ??1?$vector@_JV?$allocator@_J@std@@@std@@QEAA@XZ 0000000140081c10 f i cinder:tinyexr.obj
 0001:00080c10       ??1?$vector@_KV?$allocator@_K@std@@@std@@QEAA@XZ 0000000140081c10 f i cinder:VboMesh.obj
 0001:00080c10       ??1?$vector@PEBDV?$allocator@PEBD@std@@@std@@QEAA@XZ 0000000140081c10 f i cinder:GlslProg.obj
 0001:00080c70       ??1?$vector@U?$mat@$03$03M$0A@@glm@@V?$allocator@U?$mat@$03$03M$0A@@glm@@@std@@@std@@QEAA@XZ 0000000140081c70 f i cinder:Context.cpp.obj
 0001:00080cd0       ??1?$vector@U?$pair@IUVertexAttrib@Vao@gl@cinder@@@std@@V?$allocator@U?$pair@IUVertexAttrib@Vao@gl@cinder@@@std@@@2@@std@@QEAA@XZ 0000000140081cd0 f i cinder:Context.cpp.obj
 0001:00080ce0       ??1?$vector@U?$pair@U?$vec@$01H$0A@@glm@@U12@@std@@V?$allocator@U?$pair@U?$vec@$01H$0A@@glm@@U12@@std@@@2@@std@@QEAA@XZ 0000000140081ce0 f i cinder:Context.cpp.obj
 0001:00080ce0       ??1?$vector@V?$ColorAT@M@cinder@@V?$allocator@V?$ColorAT@M@cinder@@@std@@@std@@QEAA@XZ 0000000140081ce0 f i cinder:Batch.obj
 0001:00080ce0       ??1?$vector@U?$vec@$03M$0A@@glm@@V?$allocator@U?$vec@$03M$0A@@glm@@@std@@@std@@QEAA@XZ 0000000140081ce0 f i cinder:Batch.obj
 0001:00080ce0       ??1?$vector@UHufDec@tinyexr@@V?$allocator@UHufDec@tinyexr@@@std@@@std@@QEAA@XZ 0000000140081ce0 f i cinder:tinyexr.obj
 0001:00080d40       ??1?$vector@V?$vector@IV?$allocator@I@std@@@std@@V?$allocator@V?$vector@IV?$allocator@I@std@@@std@@@2@@std@@QEAA@XZ 0000000140081d40 f i cinder:Context.cpp.obj
 0001:00080dd0       ??1Context@gl@cinder@@QEAA@XZ 0000000140081dd0 f   cinder:Context.cpp.obj
 0001:000819b0       ??4?$map@IV?$vector@HV?$allocator@H@std@@@std@@U?$less@I@2@V?$allocator@U?$pair@$$CBIV?$vector@HV?$allocator@H@std@@@std@@@std@@@2@@std@@QEAAAEAV01@$$QEAV01@@Z 00000001400829b0 f i cinder:Context.cpp.obj
 0001:00081a20       ??4?$vector@EV?$allocator@E@std@@@std@@QEAAAEAV01@$$QEAV01@@Z 0000000140082a20 f i cinder:Context.cpp.obj
 0001:00081ac0       ??4?$vector@HV?$allocator@H@std@@@std@@QEAAAEAV01@$$QEAV01@@Z 0000000140082ac0 f i cinder:Context.cpp.obj
 0001:00081b60       ??A?$map@EV?$map@IV?$vector@HV?$allocator@H@std@@@std@@U?$less@I@2@V?$allocator@U?$pair@$$CBIV?$vector@HV?$allocator@H@std@@@std@@@std@@@2@@std@@U?$less@E@2@V?$allocator@U?$pair@$$CBEV?$map@IV?$vector@HV?$allocator@H@std@@@std@@U?$less@I@2@V?$allocator@U?$pair@$$CBIV?$vector@HV?$allocator@H@std@@@std@@@std@@@2@@std@@@std@@@2@@std@@QEAAAEAV?$map@IV?$vector@HV?$allocator@H@std@@@std@@U?$less@I@2@V?$allocator@U?$pair@$$CBIV?$vector@HV?$allocator@H@std@@@std@@@std@@@2@@1@AEBE@Z 0000000140082b60 f i cinder:Context.cpp.obj
 0001:00081c90       ??A?$map@IV?$vector@HV?$allocator@H@std@@@std@@U?$less@I@2@V?$allocator@U?$pair@$$CBIV?$vector@HV?$allocator@H@std@@@std@@@std@@@2@@std@@QEAAAEAV?$vector@HV?$allocator@H@std@@@1@AEBI@Z 0000000140082c90 f i cinder:Context.cpp.obj
 0001:00081c90       ??A?$map@IV?$vector@EV?$allocator@E@std@@@std@@U?$less@I@2@V?$allocator@U?$pair@$$CBIV?$vector@EV?$allocator@E@std@@@std@@@std@@@2@@std@@QEAAAEAV?$vector@EV?$allocator@E@std@@@1@$$QEAI@Z 0000000140082c90 f i cinder:Context.cpp.obj
 0001:00081c90       ??A?$map@IV?$vector@EV?$allocator@E@std@@@std@@U?$less@I@2@V?$allocator@U?$pair@$$CBIV?$vector@EV?$allocator@E@std@@@std@@@std@@@2@@std@@QEAAAEAV?$vector@EV?$allocator@E@std@@@1@AEBI@Z 0000000140082c90 f i cinder:Context.cpp.obj
 0001:00081c90       ??A?$map@IV?$vector@HV?$allocator@H@std@@@std@@U?$less@I@2@V?$allocator@U?$pair@$$CBIV?$vector@HV?$allocator@H@std@@@std@@@std@@@2@@std@@QEAAAEAV?$vector@HV?$allocator@H@std@@@1@$$QEAI@Z 0000000140082c90 f i cinder:Context.cpp.obj
 0001:00081d90       ??A?$map@VShaderDef@gl@cinder@@V?$shared_ptr@VGlslProg@gl@cinder@@@std@@U?$less@VShaderDef@gl@cinder@@@5@V?$allocator@U?$pair@$$CBVShaderDef@gl@cinder@@V?$shared_ptr@VGlslProg@gl@cinder@@@std@@@std@@@5@@std@@QEAAAEAV?$shared_ptr@VGlslProg@gl@cinder@@@1@AEBVShaderDef@gl@cinder@@@Z 0000000140082d90 f i cinder:Context.cpp.obj
 0001:00081eb0       ?_Change_array@?$vector@PEBVGlslProg@gl@cinder@@V?$allocator@PEBVGlslProg@gl@cinder@@@std@@@std@@AEAAXQEAPEBVGlslProg@gl@cinder@@_K1@Z 0000000140082eb0 f i cinder:Context.cpp.obj
 0001:00081eb0       ?_Change_array@?$vector@PEAVVao@gl@cinder@@V?$allocator@PEAVVao@gl@cinder@@@std@@@std@@AEAAXQEAPEAVVao@gl@cinder@@_K1@Z 0000000140082eb0 f i cinder:Context.cpp.obj
 0001:00081f40       ?_Change_array@?$vector@U?$pair@U?$vec@$01H$0A@@glm@@U12@@std@@V?$allocator@U?$pair@U?$vec@$01H$0A@@glm@@U12@@std@@@2@@std@@AEAAXQEAU?$pair@U?$vec@$01H$0A@@glm@@U12@@2@_K1@Z 0000000140082f40 f i cinder:Context.cpp.obj
 0001:00081fd0       ?_Tidy@?$vector@U?$pair@IUVertexAttrib@Vao@gl@cinder@@@std@@V?$allocator@U?$pair@IUVertexAttrib@Vao@gl@cinder@@@std@@@2@@std@@AEAAXXZ 0000000140082fd0 f i cinder:Context.cpp.obj
 0001:00082050       ?allocate@?$allocator@PEBVGlslProg@gl@cinder@@@std@@QEAAPEAPEBVGlslProg@gl@cinder@@_K@Z 0000000140083050 f i cinder:Context.cpp.obj
 0001:00082050       ?allocate@?$allocator@_K@std@@QEAAPEA_K_K@Z 0000000140083050 f i cinder:tinyexr.obj
 0001:00082050       ?allocate@?$allocator@PEAVVao@gl@cinder@@@std@@QEAAPEAPEAVVao@gl@cinder@@_K@Z 0000000140083050 f i cinder:Context.cpp.obj
 0001:000820c0       ?allocateDrawTextureVboAndVao@Context@gl@cinder@@AEAAXXZ 00000001400830c0 f   cinder:Context.cpp.obj
 0001:00082350       ?bindBuffer@Context@gl@cinder@@QEAAXII@Z 0000000140083350 f   cinder:Context.cpp.obj
 0001:000823d0       ?bindTexture@Context@gl@cinder@@QEAAXIIE@Z 00000001400833d0 f   cinder:Context.cpp.obj
 0001:00082510       ?bindVao@Context@gl@cinder@@QEAAXPEAVVao@23@@Z 0000000140083510 f   cinder:Context.cpp.obj
 0001:00082590       ?bufferCreated@Context@gl@cinder@@QEAAXPEBVBufferObj@23@@Z 0000000140083590 f   cinder:Context.cpp.obj
 0001:00082670       ?bufferDeleted@Context@gl@cinder@@QEAAXPEBVBufferObj@23@@Z 0000000140083670 f   cinder:Context.cpp.obj
 0001:000827c0       ?createFromExisting@Context@gl@cinder@@SA?AV?$shared_ptr@VContext@gl@cinder@@@std@@AEBV?$shared_ptr@UPlatformData@Context@gl@cinder@@@5@@Z 00000001400837c0 f   cinder:Context.cpp.obj
 0001:00082870       ?deallocate@?$allocator@_K@std@@QEAAXQEA_K_K@Z 0000000140083870 f i cinder:VboMesh.obj
 0001:00082870       ?deallocate@?$allocator@PEBVGlslProg@gl@cinder@@@std@@QEAAXQEAPEBVGlslProg@gl@cinder@@_K@Z 0000000140083870 f i cinder:Context.cpp.obj
 0001:00082870       ?deallocate@?$allocator@PEAVVao@gl@cinder@@@std@@QEAAXQEAPEAVVao@gl@cinder@@_K@Z 0000000140083870 f i cinder:Context.cpp.obj
 0001:00082870       ?deallocate@?$allocator@PEBD@std@@QEAAXQEAPEBD_K@Z 0000000140083870 f i cinder:GlslProg.obj
 0001:000828c0       ?debugMessageCallback@Context@gl@cinder@@SAXIIIIHPEBDPEAX@Z 00000001400838c0 f   cinder:Context.cpp.obj
 0001:00083020       ?drawArrays@Context@gl@cinder@@QEAAXIHH@Z 0000000140084020 f   cinder:Context.cpp.obj
 0001:00083040       ?enableVertexAttribArray@Context@gl@cinder@@QEAAXI@Z 0000000140084040 f   cinder:Context.cpp.obj
 0001:00083060       ?erase@?$_Tree@V?$_Tset_traits@PEBVVao@gl@cinder@@U?$less@PEBVVao@gl@cinder@@@std@@V?$allocator@PEBVVao@gl@cinder@@@5@$0A@@std@@@std@@QEAA_KAEBQEBVVao@gl@cinder@@@Z 0000000140084060 f i cinder:Context.cpp.obj
 0001:00083060       ?erase@?$_Tree@V?$_Tset_traits@PEBVTextureBase@gl@cinder@@U?$less@PEBVTextureBase@gl@cinder@@@std@@V?$allocator@PEBVTextureBase@gl@cinder@@@5@$0A@@std@@@std@@QEAA_KAEBQEBVTextureBase@gl@cinder@@@Z 0000000140084060 f i cinder:Context.cpp.obj
 0001:00083060       ?erase@?$_Tree@V?$_Tset_traits@PEBVGlslProg@gl@cinder@@U?$less@PEBVGlslProg@gl@cinder@@@std@@V?$allocator@PEBVGlslProg@gl@cinder@@@5@$0A@@std@@@std@@QEAA_KAEBQEBVGlslProg@gl@cinder@@@Z 0000000140084060 f i cinder:Context.cpp.obj
 0001:00083060       ?erase@?$_Tree@V?$_Tset_traits@PEBVBufferObj@gl@cinder@@U?$less@PEBVBufferObj@gl@cinder@@@std@@V?$allocator@PEBVBufferObj@gl@cinder@@@5@$0A@@std@@@std@@QEAA_KAEBQEBVBufferObj@gl@cinder@@@Z 0000000140084060 f i cinder:Context.cpp.obj
 0001:000832b0       ?getActiveTexture@Context@gl@cinder@@QEAAEXZ 00000001400842b0 f   cinder:Context.cpp.obj
 0001:00083380       ?getBufferBinding@Context@gl@cinder@@QEAAII@Z 0000000140084380 f   cinder:Context.cpp.obj
 0001:00083550       ?getCurrent@Context@gl@cinder@@SAPEAV123@XZ 0000000140084550 f   cinder:Context.cpp.obj
 0001:00083570       ?getDefaultArrayVbo@Context@gl@cinder@@QEAA?AV?$shared_ptr@VVbo@gl@cinder@@@std@@_K@Z 0000000140084570 f   cinder:Context.cpp.obj
 0001:00083680       ?getDefaultVao@Context@gl@cinder@@QEAAPEAVVao@23@XZ 0000000140084680 f   cinder:Context.cpp.obj
 0001:00083720       ?getDepthFunc@Context@gl@cinder@@QEAAIXZ 0000000140084720 f   cinder:Context.cpp.obj
 0001:000837f0       ?getDepthMask@Context@gl@cinder@@QEAAEXZ 00000001400847f0 f   cinder:Context.cpp.obj
 0001:000838c0       ?getDrawTextureVao@Context@gl@cinder@@QEAAPEAVVao@23@XZ 00000001400848c0 f   cinder:Context.cpp.obj
 0001:000838f0       ?getDrawTextureVbo@Context@gl@cinder@@QEAA?AV?$shared_ptr@VVbo@gl@cinder@@@std@@XZ 00000001400848f0 f   cinder:Context.cpp.obj
 0001:00083950       ?getGlslProg@Context@gl@cinder@@QEAAPEBVGlslProg@23@XZ 0000000140084950 f   cinder:Context.cpp.obj
 0001:000839b0       ?getStockShader@Context@gl@cinder@@QEAAAEAV?$shared_ptr@VGlslProg@gl@cinder@@@std@@AEBVShaderDef@23@@Z 00000001400849b0 f   cinder:Context.cpp.obj
 0001:00083b00       ?getTextureBinding@Context@gl@cinder@@QEAAIIE@Z 0000000140084b00 f   cinder:Context.cpp.obj
 0001:00083dd0       ?getViewport@Context@gl@cinder@@QEAA?AU?$pair@U?$vec@$01H$0A@@glm@@U12@@std@@XZ 0000000140084dd0 f   cinder:Context.cpp.obj
 0001:00083f00       ?glslProgCreated@Context@gl@cinder@@QEAAXPEBVGlslProg@23@@Z 0000000140084f00 f   cinder:Context.cpp.obj
 0001:00083fe0       ?glslProgDeleted@Context@gl@cinder@@QEAAXPEBVGlslProg@23@@Z 0000000140084fe0 f   cinder:Context.cpp.obj
 0001:00084010       ?invalidateBufferBindingCache@Context@gl@cinder@@QEAAXI@Z 0000000140085010 f   cinder:Context.cpp.obj
 0001:00084150       ?makeCurrent@Context@gl@cinder@@QEBAX_N@Z 0000000140085150 f   cinder:Context.cpp.obj
 0001:000841b0       ?popActiveTexture@Context@gl@cinder@@QEAAX_N@Z 00000001400851b0 f   cinder:Context.cpp.obj
 0001:00084470       ?popBufferBinding@Context@gl@cinder@@QEAAXI@Z 0000000140085470 f   cinder:Context.cpp.obj
 0001:00084530       ?popDepthMask@Context@gl@cinder@@QEAAX_N@Z 0000000140085530 f   cinder:Context.cpp.obj
 0001:000847e0       ?popGlslProg@Context@gl@cinder@@QEAAX_N@Z 00000001400857e0 f   cinder:Context.cpp.obj
 0001:00084cb0       ?popTextureBinding@Context@gl@cinder@@QEAAXIE_N@Z 0000000140085cb0 f   cinder:Context.cpp.obj
 0001:00085120       ?popVao@Context@gl@cinder@@QEAAXXZ 0000000140086120 f   cinder:Context.cpp.obj
 0001:000851a0       ?pushActiveTexture@Context@gl@cinder@@QEAAXE@Z 00000001400861a0 f   cinder:Context.cpp.obj
 0001:00085210       ?pushBlendFuncSeparate@Context@gl@cinder@@QEAAXIIII@Z 0000000140086210 f   cinder:Context.cpp.obj
 0001:00085390       ?pushBoolState@Context@gl@cinder@@QEAAXIE@Z 0000000140086390 f   cinder:Context.cpp.obj
 0001:00085530       ?pushBufferBinding@Context@gl@cinder@@QEAAXII@Z 0000000140086530 f   cinder:Context.cpp.obj
 0001:00085600       ?pushDepthMask@Context@gl@cinder@@QEAAXE@Z 0000000140086600 f   cinder:Context.cpp.obj
 0001:00085670       ?pushGlslProg@Context@gl@cinder@@QEAAXPEBVGlslProg@23@@Z 0000000140086670 f   cinder:Context.cpp.obj
 0001:00085720       ?pushTextureBinding@Context@gl@cinder@@QEAAXIE@Z 0000000140086720 f   cinder:Context.cpp.obj
 0001:000859e0       ?pushTextureBinding@Context@gl@cinder@@QEAAXIIE@Z 00000001400869e0 f   cinder:Context.cpp.obj
 0001:00085a30       ?pushVao@Context@gl@cinder@@QEAAXPEAVVao@23@@Z 0000000140086a30 f   cinder:Context.cpp.obj
 0001:00085ad0       ?pushVao@Context@gl@cinder@@QEAAXXZ 0000000140086ad0 f   cinder:Context.cpp.obj
 0001:00085b20       ?reflectBufferBinding@Context@gl@cinder@@QEAAXII@Z 0000000140086b20 f   cinder:Context.cpp.obj
 0001:00085c60       ?reflectCurrent@Context@gl@cinder@@SAXPEAV123@@Z 0000000140086c60 f   cinder:Context.cpp.obj
 0001:00085c80       ?setDefaultShaderVars@Context@gl@cinder@@QEAAXXZ 0000000140086c80 f   cinder:Context.cpp.obj
 0001:00085fc0       ?textureCreated@Context@gl@cinder@@QEAAXPEBVTextureBase@23@@Z 0000000140086fc0 f   cinder:Context.cpp.obj
 0001:000860a0       ?textureDeleted@Context@gl@cinder@@QEAAXPEBVTextureBase@23@@Z 00000001400870a0 f   cinder:Context.cpp.obj
 0001:000861d0       ?vaoCreated@Context@gl@cinder@@QEAAXPEBVVao@23@@Z 00000001400871d0 f   cinder:Context.cpp.obj
 0001:000862b0       ?vaoDeleted@Context@gl@cinder@@QEAAXPEBVVao@23@@Z 00000001400872b0 f   cinder:Context.cpp.obj
 0001:00086310       ?vertexAttrib4f@Context@gl@cinder@@QEAAXIMMMM@Z 0000000140087310 f   cinder:Context.cpp.obj
 0001:00086340       ?vertexAttribPointer@Context@gl@cinder@@QEAAXIHIEHPEBX@Z 0000000140087340 f   cinder:Context.cpp.obj
 0001:00086370       ?viewport@Context@gl@cinder@@QEAAXAEBU?$pair@U?$vec@$01H$0A@@glm@@U12@@std@@@Z 0000000140087370 f   cinder:Context.cpp.obj
 0001:000863d0       ??0?$vector@U?$vec@$02M$0A@@glm@@V?$allocator@U?$vec@$02M$0A@@glm@@@std@@@std@@QEAA@AEBV01@@Z 00000001400873d0 f i cinder:Batch.obj
 0001:00086490       ??0?$vector@U?$vec@$03M$0A@@glm@@V?$allocator@U?$vec@$03M$0A@@glm@@@std@@@std@@QEAA@AEBV01@@Z 0000000140087490 f i cinder:Batch.obj
 0001:00086540       ??0VertBatch@gl@cinder@@QEAA@AEBV012@@Z 0000000140087540 f i cinder:Batch.obj
 0001:000866e0       ??0VertBatch@gl@cinder@@QEAA@I_N@Z 00000001400876e0 f   cinder:Batch.obj
 0001:00086990       ??1VertBatch@gl@cinder@@UEAA@XZ 0000000140087990 f i cinder:Batch.obj
 0001:00086b60       ??_GVertBatch@gl@cinder@@UEAAPEAXI@Z 0000000140087b60 f i cinder:Batch.obj
 0001:00086b60       ??_EVertBatch@gl@cinder@@UEAAPEAXI@Z 0000000140087b60 f i cinder:Batch.obj
 0001:00086ba0       ?begin@VertBatch@gl@cinder@@QEAAXI@Z 0000000140087ba0 f   cinder:Batch.obj
 0001:00086bd0       ?clear@VertBatch@gl@cinder@@QEAAXXZ 0000000140087bd0 f   cinder:Batch.obj
 0001:00086c00       ?clone@VertBatch@gl@cinder@@MEBAPEAV123@XZ 0000000140087c00 f i cinder:Batch.obj
 0001:00086c40       ?create@VertBatch@gl@cinder@@SA?AV?$shared_ptr@VVertBatch@gl@cinder@@@std@@I_N@Z 0000000140087c40 f   cinder:Batch.obj
 0001:00086cf0       ?draw@VertBatch@gl@cinder@@QEAAXXZ 0000000140087cf0 f   cinder:Batch.obj
 0001:00086d60       ?getAttribDims@VertBatch@gl@cinder@@MEBAEW4Attrib@geom@3@@Z 0000000140087d60 f   cinder:Batch.obj
 0001:00086df0       ?getAvailableAttribs@VertBatch@gl@cinder@@MEBA?AV?$set@W4Attrib@geom@cinder@@U?$less@W4Attrib@geom@cinder@@@std@@V?$allocator@W4Attrib@geom@cinder@@@5@@std@@XZ 0000000140087df0 f   cinder:Batch.obj
 0001:000871b0       ?getNumVertices@VertBatch@gl@cinder@@MEBA_KXZ 00000001400881b0 f   cinder:Batch.obj
 0001:000871c0       ?getPrimitive@VertBatch@gl@cinder@@MEBA?AW4Primitive@geom@3@XZ 00000001400881c0 f   cinder:Batch.obj
 0001:000871d0       ?loadInto@VertBatch@gl@cinder@@MEBAXPEAVTarget@geom@3@AEBV?$set@W4Attrib@geom@cinder@@U?$less@W4Attrib@geom@cinder@@@std@@V?$allocator@W4Attrib@geom@cinder@@@5@@std@@@Z 00000001400881d0 f   cinder:Batch.obj
 0001:00087300       ?setupBuffers@VertBatch@gl@cinder@@IEAAXXZ 0000000140088300 f   cinder:Batch.obj
 0001:00087710       ??0ScopedActiveTexture@gl@cinder@@QEAA@E@Z 0000000140088710 f   cinder:scoped.obj
 0001:00087750       ??0ScopedBuffer@gl@cinder@@QEAA@AEBV?$shared_ptr@VBufferObj@gl@cinder@@@std@@@Z 0000000140088750 f   cinder:scoped.obj
 0001:00087790       ??0ScopedBuffer@gl@cinder@@QEAA@II@Z 0000000140088790 f   cinder:scoped.obj
 0001:000877e0       ??0ScopedDepthWrite@gl@cinder@@QEAA@_N@Z 00000001400887e0 f   cinder:scoped.obj
 0001:00087820       ??0ScopedGlslProg@gl@cinder@@QEAA@AEAV?$shared_ptr@VGlslProg@gl@cinder@@@std@@@Z 0000000140088820 f   cinder:scoped.obj
 0001:00087860       ??0ScopedGlslProg@gl@cinder@@QEAA@PEBVGlslProg@12@@Z 0000000140088860 f   cinder:scoped.obj
 0001:000878a0       ??0ScopedTextureBind@gl@cinder@@QEAA@AEBV?$shared_ptr@VTextureBase@gl@cinder@@@std@@@Z 00000001400888a0 f   cinder:scoped.obj
 0001:00087900       ??0ScopedTextureBind@gl@cinder@@QEAA@II@Z 0000000140088900 f   cinder:scoped.obj
 0001:00087960       ??0ScopedVao@gl@cinder@@QEAA@AEAV?$shared_ptr@VVao@gl@cinder@@@std@@@Z 0000000140088960 f   cinder:scoped.obj
 0001:000879a0       ??0ScopedVao@gl@cinder@@QEAA@PEAVVao@12@@Z 00000001400889a0 f   cinder:scoped.obj
 0001:000879e0       ??1ScopedActiveTexture@gl@cinder@@QEAA@XZ 00000001400889e0 f   cinder:scoped.obj
 0001:00087a00       ??1ScopedBuffer@gl@cinder@@QEAA@XZ 0000000140088a00 f   cinder:scoped.obj
 0001:00087a20       ??1ScopedDepthWrite@gl@cinder@@QEAA@XZ 0000000140088a20 f   cinder:scoped.obj
 0001:00087a40       ??1ScopedGlslProg@gl@cinder@@QEAA@XZ 0000000140088a40 f   cinder:scoped.obj
 0001:00087a60       ??1ScopedTextureBind@gl@cinder@@QEAA@XZ 0000000140088a60 f   cinder:scoped.obj
 0001:00087a80       ??1ScopedVao@gl@cinder@@QEAA@XZ 0000000140088a80 f   cinder:scoped.obj
 0001:0008bef0       gladLoadWGL                000000014008cef0 f   cinder:glad_wgl.obj
 0001:0008bf80       gladLoadWGLLoader          000000014008cf80 f   cinder:glad_wgl.obj
 0001:0008c880       ??0ImDrawListSharedData@@QEAA@XZ 000000014008d880 f   cinder:imgui_draw.obj
 0001:0008c990       ??0ImFont@@QEAA@XZ         000000014008d990 f   cinder:imgui_draw.obj
 0001:0008c9f0       ??0ImFontAtlas@@QEAA@XZ    000000014008d9f0 f   cinder:imgui_draw.obj
 0001:0008ca50       ??1?$ImVector@Ustbrp_rect@@@@QEAA@XZ 000000014008da50 f i cinder:imgui_draw.obj
 0001:0008ca50       ??1?$ImVector@Ustbtt_packedchar@@@@QEAA@XZ 000000014008da50 f i cinder:imgui_draw.obj
 0001:0008ca50       ??1?$ImVector@UImFontBuildDstData@@@@QEAA@XZ 000000014008da50 f i cinder:imgui_draw.obj
 0001:0008ca50       ??1?$ImVector@UImFontBuildSrcData@@@@QEAA@XZ 000000014008da50 f i cinder:imgui_draw.obj
 0001:0008ca70       ??1ImFont@@QEAA@XZ         000000014008da70 f   cinder:imgui_draw.obj
 0001:0008cac0       ??1ImFontAtlas@@QEAA@XZ    000000014008dac0 f   cinder:imgui_draw.obj
 0001:0008cb10       ?AddCircleFilled@ImDrawList@@QEAAXAEBUImVec2@@MIH@Z 000000014008db10 f   cinder:imgui_draw.obj
 0001:0008cc50       ?AddConvexPolyFilled@ImDrawList@@QEAAXPEBUImVec2@@HI@Z 000000014008dc50 f   cinder:imgui_draw.obj
 0001:0008d2c0       ?AddFont@ImFontAtlas@@QEAAPEAUImFont@@PEBUImFontConfig@@@Z 000000014008e2c0 f   cinder:imgui_draw.obj
 0001:0008d580       ?AddFontDefault@ImFontAtlas@@QEAAPEAUImFont@@PEBUImFontConfig@@@Z 000000014008e580 f   cinder:imgui_draw.obj
 0001:0008d880       ?AddFontFromMemoryCompressedTTF@ImFontAtlas@@QEAAPEAUImFont@@PEBXHMPEBUImFontConfig@@PEBG@Z 000000014008e880 f   cinder:imgui_draw.obj
 0001:0008db70       ?AddGlyph@ImFont@@QEAAXGMMMMMMMMM@Z 000000014008eb70 f   cinder:imgui_draw.obj
 0001:0008dd00       ?AddImage@ImDrawList@@QEAAXPEAXAEBUImVec2@@111I@Z 000000014008ed00 f   cinder:imgui_draw.obj
 0001:0008ddc0       ?AddLine@ImDrawList@@QEAAXAEBUImVec2@@0IM@Z 000000014008edc0 f   cinder:imgui_draw.obj
 0001:0008df20       ?AddPolyline@ImDrawList@@QEAAXPEBUImVec2@@HI_NM@Z 000000014008ef20 f   cinder:imgui_draw.obj
 0001:0008ed60       ?AddRect@ImDrawList@@QEAAXAEBUImVec2@@0IMHM@Z 000000014008fd60 f   cinder:imgui_draw.obj
 0001:0008ee60       ?AddRectFilled@ImDrawList@@QEAAXAEBUImVec2@@0IMH@Z 000000014008fe60 f   cinder:imgui_draw.obj
 0001:0008f000       ?AddText@ImDrawList@@QEAAXPEBUImFont@@MAEBUImVec2@@IPEBD2MPEBUImVec4@@@Z 0000000140090000 f   cinder:imgui_draw.obj
 0001:0008f120       ?AddTriangleFilled@ImDrawList@@QEAAXAEBUImVec2@@00I@Z 0000000140090120 f   cinder:imgui_draw.obj
 0001:0008f1a0       ?BuildLookupTable@ImFont@@QEAAXXZ 00000001400901a0 f   cinder:imgui_draw.obj
 0001:0008f500       ?CalcTextSizeA@ImFont@@QEBA?AUImVec2@@MMMPEBD0PEAPEBD@Z 0000000140090500 f   cinder:imgui_draw.obj
 0001:0008f770       ?CalcWordWrapPositionA@ImFont@@QEBAPEBDMPEBD0M@Z 0000000140090770 f   cinder:imgui_draw.obj
 0001:0008f940       ?Clear@ImFontAtlas@@QEAAXXZ 0000000140090940 f   cinder:imgui_draw.obj
 0001:0008fb50       ?ClearFreeMemory@ImDrawListSplitter@@QEAAXXZ 0000000140090b50 f   cinder:imgui_draw.obj
 0001:0008fc10       ?ClearOutputData@ImFont@@QEAAXXZ 0000000140090c10 f   cinder:imgui_draw.obj
 0001:0008fc90       ?FindGlyph@ImFont@@QEBAPEBUImFontGlyph@@G@Z 0000000140090c90 f   cinder:imgui_draw.obj
 0001:0008fcd0       ?GetTexDataAsRGBA32@ImFontAtlas@@QEAAXPEAPEAEPEAH11@Z 0000000140090cd0 f   cinder:imgui_draw.obj
 0001:0008fdc0       ?GrowIndex@ImFont@@QEAAXH@Z 0000000140090dc0 f   cinder:imgui_draw.obj
 0001:0008ff20       ?ImFontAtlasBuildFinish@@YAXPEAUImFontAtlas@@@Z 0000000140090f20 f   cinder:imgui_draw.obj
 0001:00090570       ?ImFontAtlasBuildWithStbTruetype@@YA_NPEAUImFontAtlas@@@Z 0000000140091570 f   cinder:imgui_draw.obj
 0001:000918e0       ?Merge@ImDrawListSplitter@@QEAAXPEAUImDrawList@@@Z 00000001400928e0 f   cinder:imgui_draw.obj
 0001:00091dc0       ?PathArcTo@ImDrawList@@QEAAXAEBUImVec2@@MMMH@Z 0000000140092dc0 f   cinder:imgui_draw.obj
 0001:00091f80       ?PathArcToFast@ImDrawList@@QEAAXAEBUImVec2@@MHH@Z 0000000140092f80 f   cinder:imgui_draw.obj
 0001:00092140       ?PathRect@ImDrawList@@QEAAXAEBUImVec2@@0MH@Z 0000000140093140 f   cinder:imgui_draw.obj
 0001:000924b0       ?PopClipRect@ImDrawList@@QEAAXXZ 00000001400934b0 f   cinder:imgui_draw.obj
 0001:000924f0       ?PopTextureID@ImDrawList@@QEAAXXZ 00000001400934f0 f   cinder:imgui_draw.obj
 0001:00092530       ?PrimRectUV@ImDrawList@@QEAAXAEBUImVec2@@000I@Z 0000000140093530 f   cinder:imgui_draw.obj
 0001:00092680       ?PrimReserve@ImDrawList@@QEAAXHH@Z 0000000140093680 f   cinder:imgui_draw.obj
 0001:00092780       ?PushClipRect@ImDrawList@@QEAAXUImVec2@@0_N@Z 0000000140093780 f   cinder:imgui_draw.obj
 0001:000928a0       ?PushClipRectFullScreen@ImDrawList@@QEAAXXZ 00000001400938a0 f   cinder:imgui_draw.obj
 0001:00092960       ?PushTextureID@ImDrawList@@QEAAXPEAX@Z 0000000140093960 f   cinder:imgui_draw.obj
 0001:000929e0       ?RenderArrow@ImGui@@YAXPEAUImDrawList@@UImVec2@@IHM@Z 00000001400939e0 f   cinder:imgui_draw.obj
 0001:00092b90       ?RenderCheckMark@ImGui@@YAXPEAUImDrawList@@UImVec2@@IM@Z 0000000140093b90 f   cinder:imgui_draw.obj
 0001:00092db0       ?RenderMouseCursor@ImGui@@YAXPEAUImDrawList@@UImVec2@@MHIII@Z 0000000140093db0 f   cinder:imgui_draw.obj
 0001:00093230       ?RenderText@ImFont@@QEBAXPEAUImDrawList@@MUImVec2@@IAEBUImVec4@@PEBD3M_N@Z 0000000140094230 f   cinder:imgui_draw.obj
 0001:000938c0       ?SetCircleSegmentMaxError@ImDrawListSharedData@@QEAAXM@Z 00000001400948c0 f   cinder:imgui_draw.obj
 0001:00093990       ?SetCurrentChannel@ImDrawListSplitter@@QEAAXPEAUImDrawList@@H@Z 0000000140094990 f   cinder:imgui_draw.obj
 0001:00093ac0       ?StyleColorsDark@ImGui@@YAXPEAUImGuiStyle@@@Z 0000000140094ac0 f   cinder:imgui_draw.obj
 0001:00093f90       ?_ClearFreeMemory@ImDrawList@@QEAAXXZ 0000000140094f90 f   cinder:imgui_draw.obj
 0001:00094050       ?_OnChangedClipRect@ImDrawList@@QEAAXXZ 0000000140095050 f   cinder:imgui_draw.obj
 0001:00094140       ?_OnChangedTextureID@ImDrawList@@QEAAXXZ 0000000140095140 f   cinder:imgui_draw.obj
 0001:00094220       ?_PopUnusedDrawCmd@ImDrawList@@QEAAXXZ 0000000140095220 f   cinder:imgui_draw.obj
 0001:00094250       ?_ResetForNewFrame@ImDrawList@@QEAAXXZ 0000000140095250 f   cinder:imgui_draw.obj
 0001:00094370       ?push_back@?$ImVector@UImDrawCmd@@@@QEAAXAEBUImDrawCmd@@@Z 0000000140095370 f i cinder:imgui_draw.obj
 0001:00094440       ?push_back@?$ImVector@UImFontAtlasCustomRect@@@@QEAAXAEBUImFontAtlasCustomRect@@@Z 0000000140095440 f i cinder:imgui_draw.obj
 0001:00094500       ?push_back@?$ImVector@UImVec2@@@@QEAAXAEBUImVec2@@@Z 0000000140095500 f i cinder:imgui_draw.obj
 0001:000945b0       ?reserve@?$ImVector@PEAX@@QEAAXH@Z 00000001400955b0 f i cinder:imgui_draw.obj
 0001:000945b0       ?reserve@?$ImVector@UImVec2@@@@QEAAXH@Z 00000001400955b0 f i cinder:imgui_draw.obj
 0001:00094620       ?reserve@?$ImVector@UImVec4@@@@QEAAXH@Z 0000000140095620 f i cinder:imgui_draw.obj
 0001:00094690       ?resize@?$ImVector@I@@QEAAXH@Z 0000000140095690 f i cinder:imgui_draw.obj
 0001:00094740       ?resize@?$ImVector@UImDrawCmd@@@@QEAAXH@Z 0000000140095740 f i cinder:imgui_draw.obj
 0001:000947f0       ?resize@?$ImVector@UImDrawVert@@@@QEAAXH@Z 00000001400957f0 f i cinder:imgui_draw.obj
 0001:000948b0       ?resize@?$ImVector@UImFontGlyph@@@@QEAAXH@Z 00000001400958b0 f i cinder:imgui_draw.obj
 0001:0009b590       ?ImGui_ImplOpenGL3_CreateDeviceObjects@@YA_NXZ 000000014009c590 f   cinder:imgui_impl_opengl3.obj
 0001:0009b9d0       ?ImGui_ImplOpenGL3_Init@@YA_NPEBD@Z 000000014009c9d0 f   cinder:imgui_impl_opengl3.obj
 0001:0009ba90       ?ImGui_ImplOpenGL3_NewFrame@@YAXXZ 000000014009ca90 f   cinder:imgui_impl_opengl3.obj
 0001:0009baa0       ?ImGui_ImplOpenGL3_RenderDrawData@@YAXPEAUImDrawData@@@Z 000000014009caa0 f   cinder:imgui_impl_opengl3.obj
 0001:0009c2a0       ?ImGui_ImplOpenGL3_Shutdown@@YAXXZ 000000014009d2a0 f   cinder:imgui_impl_opengl3.obj
 0001:0009c3c0       fprintf                    000000014009d3c0 f i cinder:imgui_impl_opengl3.obj
 0001:0009c410       ?getString@Clipboard@cinder@@SA?AV?$basic_string@DU?$char_traits@D@std@@V?$allocator@D@2@@std@@XZ 000000014009d410 f   cinder:Clipboard.obj
 0001:0009c610       ?setString@Clipboard@cinder@@SAXAEBV?$basic_string@DU?$char_traits@D@std@@V?$allocator@D@2@@std@@@Z 000000014009d610 f   cinder:Clipboard.obj
 0001:0009c950       ??$_Resize_reallocate@U_Value_init_tag@std@@@?$vector@MV?$allocator@M@std@@@std@@AEAAX_KAEBU_Value_init_tag@1@@Z 000000014009d950 f i cinder:GeomIo.obj
 0001:0009ca20       ??1?$vector@_WV?$allocator@_W@std@@@std@@QEAA@XZ 000000014009da20 f i cinder:CinderMsw.obj
 0001:0009ca20       ??1?$vector@GV?$allocator@G@std@@@std@@QEAA@XZ 000000014009da20 f i cinder:Font.obj
 0001:0009ca80       ??$?0VGlslProg@gl@cinder@@$0A@@?$shared_ptr@VGlslProg@gl@cinder@@@std@@QEAA@PEAVGlslProg@gl@cinder@@@Z 000000014009da80 f i cinder:GlslProg.obj
 0001:0009caf0       ??$_Copy_nodes@U_Copy_tag@?$_Tree@V?$_Tmap_traits@IV?$vector@HV?$allocator@H@std@@@std@@U?$less@I@2@V?$allocator@U?$pair@$$CBIV?$vector@HV?$allocator@H@std@@@std@@@std@@@2@$0A@@std@@@std@@@?$_Tree@V?$_Tmap_traits@IV?$vector@HV?$allocator@H@std@@@std@@U?$less@I@2@V?$allocator@U?$pair@$$CBIV?$vector@HV?$allocator@H@std@@@std@@@std@@@2@$0A@@std@@@std@@IEAAPEAU?$_Tree_node@U?$pair@$$CBIV?$vector@HV?$allocator@H@std@@@std@@@std@@PEAX@1@PEAU21@0U_Copy_tag@01@@Z 000000014009daf0 f i cinder:GlslProg.obj
 0001:0009cbc0       ??$_Destroy_range@V?$allocator@UTransformFeedbackVaryings@GlslProg@gl@cinder@@@std@@@std@@YAXPEAUTransformFeedbackVaryings@GlslProg@gl@cinder@@QEAU1234@AEAV?$allocator@UTransformFeedbackVaryings@GlslProg@gl@cinder@@@0@@Z 000000014009dbc0 f i cinder:GlslProg.obj
 0001:0009cc50       ??$_Emplace@U?$pair@HV?$vector@HV?$allocator@H@std@@@std@@@std@@@?$_Tree@V?$_Tmap_traits@IV?$vector@HV?$allocator@H@std@@@std@@U?$less@I@2@V?$allocator@U?$pair@$$CBIV?$vector@HV?$allocator@H@std@@@std@@@std@@@2@$0A@@std@@@std@@IEAA?AU?$pair@PEAU?$_Tree_node@U?$pair@$$CBIV?$vector@HV?$allocator@H@std@@@std@@@std@@PEAX@std@@_N@1@$$QEAU?$pair@HV?$vector@HV?$allocator@H@std@@@std@@@1@@Z 000000014009dc50 f i cinder:GlslProg.obj
 0001:0009cde0       ??$_Emplace_reallocate@AEBUAttribute@GlslProg@gl@cinder@@@?$vector@UAttribute@GlslProg@gl@cinder@@V?$allocator@UAttribute@GlslProg@gl@cinder@@@std@@@std@@QEAAPEAUAttribute@GlslProg@gl@cinder@@QEAU2345@AEBU2345@@Z 000000014009dde0 f i cinder:GlslProg.obj
 0001:0009cff0       ??$_Emplace_reallocate@AEBUUniform@GlslProg@gl@cinder@@@?$vector@UUniform@GlslProg@gl@cinder@@V?$allocator@UUniform@GlslProg@gl@cinder@@@std@@@std@@QEAAPEAUUniform@GlslProg@gl@cinder@@QEAU2345@AEBU2345@@Z 000000014009dff0 f i cinder:GlslProg.obj
 0001:0009d1a0       ??$_Emplace_reallocate@AEBUUniformBlock@GlslProg@gl@cinder@@@?$vector@UUniformBlock@GlslProg@gl@cinder@@V?$allocator@UUniformBlock@GlslProg@gl@cinder@@@std@@@std@@QEAAPEAUUniformBlock@GlslProg@gl@cinder@@QEAU2345@AEBU2345@@Z 000000014009e1a0 f i cinder:GlslProg.obj
 0001:0009d430       ??$_Emplace_reallocate@PEBD@?$vector@PEBDV?$allocator@PEBD@std@@@std@@QEAAPEAPEBDQEAPEBD$$QEAPEBD@Z 000000014009e430 f i cinder:GlslProg.obj
 0001:0009d5d0       ??$_Erase_tree@V?$allocator@U?$_Tree_node@Vpath@filesystem@std@@PEAX@std@@@std@@@?$_Tree_val@U?$_Tree_simple_types@Vpath@filesystem@std@@@std@@@std@@QEAAXAEAV?$allocator@U?$_Tree_node@Vpath@filesystem@std@@PEAX@std@@@1@PEAU?$_Tree_node@Vpath@filesystem@std@@PEAX@1@@Z 000000014009e5d0 f i cinder:GlslProg.obj
 0001:0009d650       ??$_Insert_range@V?$_Tree_unchecked_const_iterator@V?$_Tree_val@U?$_Tree_simple_types@Vpath@filesystem@std@@@std@@@std@@U_Iterator_base0@2@@std@@@?$vector@Vpath@filesystem@std@@V?$allocator@Vpath@filesystem@std@@@3@@std@@AEAAXV?$_Vector_const_iterator@V?$_Vector_val@U?$_Simple_types@Vpath@filesystem@std@@@std@@@std@@@1@V?$_Tree_unchecked_const_iterator@V?$_Tree_val@U?$_Tree_simple_types@Vpath@filesystem@std@@@std@@@std@@U_Iterator_base0@2@@1@1Uforward_iterator_tag@1@@Z 000000014009e650 f i cinder:GlslProg.obj
 0001:0009da70       ??$_Move_unchecked@PEAVpath@filesystem@std@@PEAV123@@std@@YAPEAVpath@filesystem@0@PEAV120@00@Z 000000014009ea70 f i cinder:GlslProg.obj
 0001:0009daf0       ??$_Resize_reallocate@U_Value_init_tag@std@@@?$vector@UTransformFeedbackVaryings@GlslProg@gl@cinder@@V?$allocator@UTransformFeedbackVaryings@GlslProg@gl@cinder@@@std@@@std@@AEAAX_KAEBU_Value_init_tag@1@@Z 000000014009eaf0 f i cinder:GlslProg.obj
 0001:0009dd50       ??$_Ucopy@V?$_Tree_unchecked_const_iterator@V?$_Tree_val@U?$_Tree_simple_types@Vpath@filesystem@std@@@std@@@std@@U_Iterator_base0@2@@std@@@?$vector@Vpath@filesystem@std@@V?$allocator@Vpath@filesystem@std@@@3@@std@@AEAAPEAVpath@filesystem@1@V?$_Tree_unchecked_const_iterator@V?$_Tree_val@U?$_Tree_simple_types@Vpath@filesystem@std@@@std@@@std@@U_Iterator_base0@2@@1@0PEAV231@@Z 000000014009ed50 f i cinder:GlslProg.obj
 0001:0009de10       ??$_Uninitialized_move@PEAUAttribute@GlslProg@gl@cinder@@V?$allocator@UAttribute@GlslProg@gl@cinder@@@std@@@std@@YAPEAUAttribute@GlslProg@gl@cinder@@QEAU1234@0PEAU1234@AEAV?$allocator@UAttribute@GlslProg@gl@cinder@@@0@@Z 000000014009ee10 f i cinder:GlslProg.obj
 0001:0009de90       ??$_Uninitialized_move@PEAUUniform@GlslProg@gl@cinder@@V?$allocator@UUniform@GlslProg@gl@cinder@@@std@@@std@@YAPEAUUniform@GlslProg@gl@cinder@@QEAU1234@0PEAU1234@AEAV?$allocator@UUniform@GlslProg@gl@cinder@@@0@@Z 000000014009ee90 f i cinder:GlslProg.obj
 0001:0009df30       ??$checkUniformType@H@GlslProg@gl@cinder@@IEBA_NI@Z 000000014009ef30 f i cinder:GlslProg.obj
 0001:0009e280       ??$checkUniformType@M@GlslProg@gl@cinder@@IEBA_NI@Z 000000014009f280 f i cinder:GlslProg.obj
 0001:0009e5b0       ??$checkUniformType@U?$mat@$02$02M$0A@@glm@@@GlslProg@gl@cinder@@IEBA_NI@Z 000000014009f5b0 f i cinder:GlslProg.obj
 0001:0009e8f0       ??$checkUniformType@U?$mat@$03$03M$0A@@glm@@@GlslProg@gl@cinder@@IEBA_NI@Z 000000014009f8f0 f i cinder:GlslProg.obj
 0001:0009ec30       ??$checkUniformType@U?$vec@$01H$0A@@glm@@@GlslProg@gl@cinder@@IEBA_NI@Z 000000014009fc30 f i cinder:GlslProg.obj
 0001:0009ef70       ??$checkUniformType@U?$vec@$01M$0A@@glm@@@GlslProg@gl@cinder@@IEBA_NI@Z 000000014009ff70 f i cinder:GlslProg.obj
 0001:0009f2b0       ??$insert@$0A@$0A@@?$_Tree@V?$_Tset_traits@V?$basic_string@DU?$char_traits@D@std@@V?$allocator@D@2@@std@@U?$less@V?$basic_string@DU?$char_traits@D@std@@V?$allocator@D@2@@std@@@2@V?$allocator@V?$basic_string@DU?$char_traits@D@std@@V?$allocator@D@2@@std@@@2@$0A@@std@@@std@@QEAA?AU?$pair@V?$_Tree_const_iterator@V?$_Tree_val@U?$_Tree_simple_types@V?$basic_string@DU?$char_traits@D@std@@V?$allocator@D@2@@std@@@std@@@std@@@std@@_N@1@AEBV?$basic_string@DU?$char_traits@D@std@@V?$allocator@D@2@@1@@Z 00000001400a02b0 f i cinder:GlslProg.obj
 0001:0009f3b0       ??$validateUniform@H@GlslProg@gl@cinder@@IEBA_NAEBUUniform@012@HAEBH@Z 00000001400a03b0 f i cinder:GlslProg.obj
 0001:0009f4b0       ??$validateUniform@M@GlslProg@gl@cinder@@IEBA_NAEBUUniform@012@HAEBM@Z 00000001400a04b0 f i cinder:GlslProg.obj
 0001:0009f5a0       ??$validateUniform@U?$mat@$02$02M$0A@@glm@@@GlslProg@gl@cinder@@IEBA_NAEBUUniform@012@HAEBU?$mat@$02$02M$0A@@glm@@@Z 00000001400a05a0 f i cinder:GlslProg.obj
 0001:0009f690       ??$validateUniform@U?$mat@$03$03M$0A@@glm@@@GlslProg@gl@cinder@@IEBA_NAEBUUniform@012@HAEBU?$mat@$03$03M$0A@@glm@@@Z 00000001400a0690 f i cinder:GlslProg.obj
 0001:0009f780       ??$validateUniform@U?$vec@$01H$0A@@glm@@@GlslProg@gl@cinder@@IEBA_NAEBUUniform@012@HAEBU?$vec@$01H$0A@@glm@@@Z 00000001400a0780 f i cinder:GlslProg.obj
 0001:0009f870       ??$validateUniform@U?$vec@$01M$0A@@glm@@@GlslProg@gl@cinder@@IEBA_NAEBUUniform@012@HAEBU?$vec@$01M$0A@@glm@@@Z 00000001400a0870 f i cinder:GlslProg.obj
 0001:0009f960       ??0?$vector@HV?$allocator@H@std@@@std@@QEAA@AEBV01@@Z 00000001400a0960 f i cinder:GlslProg.obj
 0001:0009f9e0       ??0Format@GlslProg@gl@cinder@@QEAA@XZ 00000001400a09e0 f   cinder:GlslProg.obj
 0001:0009fc40       ??0GlslProg@gl@cinder@@IEAA@AEBUFormat@012@@Z 00000001400a0c40 f   cinder:GlslProg.obj
 0001:000a0c90       ??0GlslProgCompileExc@gl@cinder@@QEAA@AEBV012@@Z 00000001400a1c90 f i cinder:GlslProg.obj
 0001:000a0d00       ??0GlslProgCompileExc@gl@cinder@@QEAA@AEBV?$basic_string@DU?$char_traits@D@std@@V?$allocator@D@2@@std@@H@Z 00000001400a1d00 f   cinder:GlslProg.obj
 0001:000a1090       ??0GlslProgExc@gl@cinder@@QEAA@AEBV012@@Z 00000001400a2090 f i cinder:GlslProg.obj
 0001:000a1100       ??0GlslProgLinkExc@gl@cinder@@QEAA@AEBV012@@Z 00000001400a2100 f i cinder:GlslProg.obj
 0001:000a1170       ??0GlslProgLinkExc@gl@cinder@@QEAA@AEBV?$basic_string@DU?$char_traits@D@std@@V?$allocator@D@2@@std@@@Z 00000001400a2170 f i cinder:GlslProg.obj
 0001:000a11a0       ??0UniformBlock@GlslProg@gl@cinder@@QEAA@AEBU0123@@Z 00000001400a21a0 f i cinder:GlslProg.obj
 0001:000a1370       ??1?$SignalProto@$$A6A_NAEBVpath@filesystem@std@@PEAV?$basic_string@DU?$char_traits@D@std@@V?$allocator@D@2@@3@@ZU?$CollectorDefault@_N@detail@signals@cinder@@@detail@signals@cinder@@QEAA@XZ 00000001400a2370 f i cinder:GlslProg.obj
 0001:000a1570       ??1?$_Temporary_owner@VGlslProg@gl@cinder@@@std@@QEAA@XZ 00000001400a2570 f i cinder:GlslProg.obj
 0001:000a1590       ??1?$_Tidy_guard@V?$vector@UUniform@GlslProg@gl@cinder@@V?$allocator@UUniform@GlslProg@gl@cinder@@@std@@@std@@@std@@QEAA@XZ 00000001400a2590 f i cinder:GlslProg.obj
 0001:000a15a0       ??1?$_Tree_head_scoped_ptr@V?$allocator@U?$_Tree_node@U?$pair@$$CBIV?$vector@HV?$allocator@H@std@@@std@@@std@@PEAX@std@@@std@@V?$_Tree_val@U?$_Tree_simple_types@U?$pair@$$CBIV?$vector@HV?$allocator@H@std@@@std@@@std@@@std@@@2@@std@@QEAA@XZ 00000001400a25a0 f i cinder:GlslProg.obj
 0001:000a15e0       ??1?$_Tree_temp_node@V?$allocator@U?$_Tree_node@U?$pair@$$CBIV?$vector@HV?$allocator@H@std@@@std@@@std@@PEAX@std@@@std@@@std@@QEAA@XZ 00000001400a25e0 f i cinder:GlslProg.obj
 0001:000a1670       ??1?$_Uninitialized_backout_al@V?$allocator@UUniform@GlslProg@gl@cinder@@@std@@@std@@QEAA@XZ 00000001400a2670 f i cinder:GlslProg.obj
 0001:000a1680       ??1?$_Uninitialized_backout_al@V?$allocator@UUniformBlock@GlslProg@gl@cinder@@@std@@@std@@QEAA@XZ 00000001400a2680 f i cinder:GlslProg.obj
 0001:000a16c0       ??1?$map@V?$basic_string@DU?$char_traits@D@std@@V?$allocator@D@2@@std@@IU?$less@V?$basic_string@DU?$char_traits@D@std@@V?$allocator@D@2@@std@@@2@V?$allocator@U?$pair@$$CBV?$basic_string@DU?$char_traits@D@std@@V?$allocator@D@2@@std@@I@std@@@2@@std@@QEAA@XZ 00000001400a26c0 f i cinder:GlslProg.obj
 0001:000a16f0       ??1?$pair@HV?$vector@HV?$allocator@H@std@@@std@@@std@@QEAA@XZ 00000001400a26f0 f i cinder:GlslProg.obj
 0001:000a1750       ??1?$set@HU?$less@H@std@@V?$allocator@H@2@@std@@QEAA@XZ 00000001400a2750 f i cinder:GlslProg.obj
 0001:000a17b0       ??1?$set@Vpath@filesystem@std@@U?$less@Vpath@filesystem@std@@@3@V?$allocator@Vpath@filesystem@std@@@3@@std@@QEAA@XZ 00000001400a27b0 f i cinder:GlslProg.obj
 0001:000a17e0       ??1?$unique_ptr@VUniformValueCache@gl@cinder@@U?$default_delete@VUniformValueCache@gl@cinder@@@std@@@std@@QEAA@XZ 00000001400a27e0 f i cinder:GlslProg.obj
 0001:000a1870       ??1?$vector@U?$pair@V?$basic_string@DU?$char_traits@D@std@@V?$allocator@D@2@@std@@V12@@std@@V?$allocator@U?$pair@V?$basic_string@DU?$char_traits@D@std@@V?$allocator@D@2@@std@@V12@@std@@@2@@std@@QEAA@XZ 00000001400a2870 f i cinder:GlslProg.obj
 0001:000a19c0       ??1?$vector@UTransformFeedbackVaryings@GlslProg@gl@cinder@@V?$allocator@UTransformFeedbackVaryings@GlslProg@gl@cinder@@@std@@@std@@QEAA@XZ 00000001400a29c0 f i cinder:GlslProg.obj
 0001:000a1a50       ??1?$vector@UUniform@GlslProg@gl@cinder@@V?$allocator@UUniform@GlslProg@gl@cinder@@@std@@@std@@QEAA@XZ 00000001400a2a50 f i cinder:GlslProg.obj
 0001:000a1a60       ??1?$vector@UUniformBlock@GlslProg@gl@cinder@@V?$allocator@UUniformBlock@GlslProg@gl@cinder@@@std@@@std@@QEAA@XZ 00000001400a2a60 f i cinder:GlslProg.obj
 0001:000a1b10       ??1UniformBlock@GlslProg@gl@cinder@@QEAA@XZ 00000001400a2b10 f i cinder:GlslProg.obj
 0001:000a1bb0       ??A?$map@V?$basic_string@DU?$char_traits@D@std@@V?$allocator@D@2@@std@@W4UniformSemantic@gl@cinder@@U?$less@V?$basic_string@DU?$char_traits@D@std@@V?$allocator@D@2@@std@@@2@V?$allocator@U?$pair@$$CBV?$basic_string@DU?$char_traits@D@std@@V?$allocator@D@2@@std@@W4UniformSemantic@gl@cinder@@@std@@@2@@std@@QEAAAEAW4UniformSemantic@gl@cinder@@$$QEAV?$basic_string@DU?$char_traits@D@std@@V?$allocator@D@2@@1@@Z 00000001400a2bb0 f i cinder:GlslProg.obj
 0001:000a1bb0       ??A?$map@V?$basic_string@DU?$char_traits@D@std@@V?$allocator@D@2@@std@@W4Attrib@geom@cinder@@U?$less@V?$basic_string@DU?$char_traits@D@std@@V?$allocator@D@2@@std@@@2@V?$allocator@U?$pair@$$CBV?$basic_string@DU?$char_traits@D@std@@V?$allocator@D@2@@std@@W4Attrib@geom@cinder@@@std@@@2@@std@@QEAAAEAW4Attrib@geom@cinder@@$$QEAV?$basic_string@DU?$char_traits@D@std@@V?$allocator@D@2@@1@@Z 00000001400a2bb0 f i cinder:GlslProg.obj
 0001:000a1ca0       ??_G?$_Ref_count_obj2@VShaderPreprocessor@gl@cinder@@@std@@UEAAPEAXI@Z 00000001400a2ca0 f i cinder:GlslProg.obj
 0001:000a1ca0       ??_E?$_Ref_count_obj2@VShaderPreprocessor@gl@cinder@@@std@@UEAAPEAXI@Z 00000001400a2ca0 f i cinder:GlslProg.obj
 0001:000a1cd0       ??_GGlslProg@gl@cinder@@QEAAPEAXI@Z 00000001400a2cd0 f i cinder:GlslProg.obj
 0001:000a1e50       ??_EGlslProgCompileExc@gl@cinder@@UEAAPEAXI@Z 00000001400a2e50 f i cinder:GlslProg.obj
 0001:000a1e50       ??_GGlslProgCompileExc@gl@cinder@@UEAAPEAXI@Z 00000001400a2e50 f i cinder:GlslProg.obj
 0001:000a1e90       ?_Buy_raw@?$vector@HV?$allocator@H@std@@@std@@AEAAX_K@Z 00000001400a2e90 f i cinder:GlslProg.obj
 0001:000a1f20       ?_Destroy@?$_Ref_count@VGlslProg@gl@cinder@@@std@@EEAAXXZ 00000001400a2f20 f i cinder:GlslProg.obj
 0001:000a1f40       ?_Destroy@?$_Ref_count_obj2@VShaderPreprocessor@gl@cinder@@@std@@EEAAXXZ 00000001400a2f40 f i cinder:GlslProg.obj
 0001:000a1f70       ?_Destroy@?$vector@UChannelInfo@tinyexr@@V?$allocator@UChannelInfo@tinyexr@@@std@@@std@@AEAAXPEAUChannelInfo@tinyexr@@0@Z 00000001400a2f70 f i cinder:tinyexr.obj
 0001:000a1f70       ?_Destroy@?$vector@UAttribute@GlslProg@gl@cinder@@V?$allocator@UAttribute@GlslProg@gl@cinder@@@std@@@std@@AEAAXPEAUAttribute@GlslProg@gl@cinder@@0@Z 00000001400a2f70 f i cinder:GlslProg.obj
 0001:000a1f90       ?_Destroy@?$vector@UTransformFeedbackVaryings@GlslProg@gl@cinder@@V?$allocator@UTransformFeedbackVaryings@GlslProg@gl@cinder@@@std@@@std@@AEAAXPEAUTransformFeedbackVaryings@GlslProg@gl@cinder@@0@Z 00000001400a2f90 f i cinder:GlslProg.obj
 0001:000a1fb0       ?_Destroy@?$vector@UUniform@GlslProg@gl@cinder@@V?$allocator@UUniform@GlslProg@gl@cinder@@@std@@@std@@AEAAXPEAUUniform@GlslProg@gl@cinder@@0@Z 00000001400a2fb0 f i cinder:GlslProg.obj
 0001:000a1fd0       ?_Destroy@?$vector@UUniformBlock@GlslProg@gl@cinder@@V?$allocator@UUniformBlock@GlslProg@gl@cinder@@@std@@@std@@AEAAXPEAUUniformBlock@GlslProg@gl@cinder@@0@Z 00000001400a2fd0 f i cinder:GlslProg.obj
 0001:000a2010       ?_Tidy@?$vector@UUniform@GlslProg@gl@cinder@@V?$allocator@UUniform@GlslProg@gl@cinder@@@std@@@std@@AEAAXXZ 00000001400a3010 f i cinder:GlslProg.obj
 0001:000a2080       ?_Umove@?$vector@UUniformBlock@GlslProg@gl@cinder@@V?$allocator@UUniformBlock@GlslProg@gl@cinder@@@std@@@std@@AEAAPEAUUniformBlock@GlslProg@gl@cinder@@PEAU3456@00@Z 00000001400a3080 f i cinder:GlslProg.obj
 0001:000a21b0       ?_Umove@?$vector@Vpath@filesystem@std@@V?$allocator@Vpath@filesystem@std@@@3@@std@@AEAAPEAVpath@filesystem@2@PEAV342@00@Z 00000001400a31b0 f i cinder:GlslProg.obj
 0001:000a2210       ?allocate@?$allocator@UAttribute@GlslProg@gl@cinder@@@std@@QEAAPEAUAttribute@GlslProg@gl@cinder@@_K@Z 00000001400a3210 f i cinder:GlslProg.obj
 0001:000a2210       ?allocate@?$allocator@UChannelInfo@tinyexr@@@std@@QEAAPEAUChannelInfo@tinyexr@@_K@Z 00000001400a3210 f i cinder:tinyexr.obj
 0001:000a2210       ?allocate@?$allocator@U?$pair@IUVertexAttrib@Vao@gl@cinder@@@std@@@std@@QEAAPEAU?$pair@IUVertexAttrib@Vao@gl@cinder@@@2@_K@Z 00000001400a3210 f i cinder:Vao.obj
 0001:000a2280       ?append@?$basic_string@DU?$char_traits@D@std@@V?$allocator@D@2@@std@@QEAAAEAV12@AEBV12@_K_K@Z 00000001400a3280 f i cinder:GlslProg.obj
 0001:000a22c0       ?attribLocation@Format@GlslProg@gl@cinder@@QEAAAEAU1234@AEBV?$basic_string@DU?$char_traits@D@std@@V?$allocator@D@2@@std@@H@Z 00000001400a32c0 f   cinder:GlslProg.obj
 0001:000a2480       ?bindImpl@GlslProg@gl@cinder@@IEBAXXZ 00000001400a3480 f   cinder:GlslProg.obj
 0001:000a2490       ?cacheActiveAttribs@GlslProg@gl@cinder@@IEAAXXZ 00000001400a3490 f   cinder:GlslProg.obj
 0001:000a2800       ?cacheActiveTransformFeedbackVaryings@GlslProg@gl@cinder@@IEAAXXZ 00000001400a3800 f   cinder:GlslProg.obj
 0001:000a2a30       ?cacheActiveUniformBlocks@GlslProg@gl@cinder@@IEAAXXZ 00000001400a3a30 f   cinder:GlslProg.obj
 0001:000a3840       ?cacheActiveUniforms@GlslProg@gl@cinder@@IEAAXXZ 00000001400a4840 f   cinder:GlslProg.obj
 0001:000a3d60       ?checkUniformValueCache@GlslProg@gl@cinder@@IEBA_NAEBUUniform@123@HPEBXH@Z 00000001400a4d60 f   cinder:GlslProg.obj
 0001:000a3e80       ?create@GlslProg@gl@cinder@@SA?AV?$shared_ptr@VGlslProg@gl@cinder@@@std@@AEBUFormat@123@@Z 00000001400a4e80 f   cinder:GlslProg.obj
 0001:000a3ed0       ?deallocate@?$allocator@UChannelInfo@tinyexr@@@std@@QEAAXQEAUChannelInfo@tinyexr@@_K@Z 00000001400a4ed0 f i cinder:tinyexr.obj
 0001:000a3ed0       ?deallocate@?$allocator@V?$ChannelT@M@cinder@@@std@@QEAAXQEAV?$ChannelT@M@cinder@@_K@Z 00000001400a4ed0 f i cinder:ImageFileTinyExr.obj
 0001:000a3ed0       ?deallocate@?$allocator@U?$pair@IUVertexAttrib@Vao@gl@cinder@@@std@@@std@@QEAAXQEAU?$pair@IUVertexAttrib@Vao@gl@cinder@@@2@_K@Z 00000001400a4ed0 f i cinder:Vao.obj
 0001:000a3ed0       ?deallocate@?$allocator@UAttribute@GlslProg@gl@cinder@@@std@@QEAAXQEAUAttribute@GlslProg@gl@cinder@@_K@Z 00000001400a4ed0 f i cinder:GlslProg.obj
 0001:000a3f20       ?deallocate@?$allocator@UUniformBlock@GlslProg@gl@cinder@@@std@@QEAAXQEAUUniformBlock@GlslProg@gl@cinder@@_K@Z 00000001400a4f20 f i cinder:GlslProg.obj
 0001:000a3f60       ?findUniform@GlslProg@gl@cinder@@QEBAPEBUUniform@123@AEBV?$basic_string@DU?$char_traits@D@std@@V?$allocator@D@2@@std@@PEAH@Z 00000001400a4f60 f   cinder:GlslProg.obj
 0001:000a46c0       ?fragment@Format@GlslProg@gl@cinder@@QEAAAEAU1234@AEBV?$basic_string@DU?$char_traits@D@std@@V?$allocator@D@2@@std@@@Z 00000001400a56c0 f   cinder:GlslProg.obj
 0001:000a4710       ?getAttribSemanticLocation@GlslProg@gl@cinder@@QEBAHW4Attrib@geom@3@@Z 00000001400a5710 f   cinder:GlslProg.obj
 0001:000a4740       ?getDefaultAttribNameToSemanticMap@GlslProg@gl@cinder@@SAAEAV?$map@V?$basic_string@DU?$char_traits@D@std@@V?$allocator@D@2@@std@@W4Attrib@geom@cinder@@U?$less@V?$basic_string@DU?$char_traits@D@std@@V?$allocator@D@2@@std@@@2@V?$allocator@U?$pair@$$CBV?$basic_string@DU?$char_traits@D@std@@V?$allocator@D@2@@std@@W4Attrib@geom@cinder@@@std@@@2@@std@@XZ 00000001400a5740 f   cinder:GlslProg.obj
 0001:000a4d50       ?getDefaultUniformNameToSemanticMap@GlslProg@gl@cinder@@SAAEAV?$map@V?$basic_string@DU?$char_traits@D@std@@V?$allocator@D@2@@std@@W4UniformSemantic@gl@cinder@@U?$less@V?$basic_string@DU?$char_traits@D@std@@V?$allocator@D@2@@std@@@2@V?$allocator@U?$pair@$$CBV?$basic_string@DU?$char_traits@D@std@@V?$allocator@D@2@@std@@W4UniformSemantic@gl@cinder@@@std@@@2@@std@@XZ 00000001400a5d50 f   cinder:GlslProg.obj
 0001:000a56c0       ?getShaderLog@GlslProg@gl@cinder@@QEBA?AV?$basic_string@DU?$char_traits@D@std@@V?$allocator@D@2@@std@@I@Z 00000001400a66c0 f   cinder:GlslProg.obj
 0001:000a5820       ?hasAttribSemantic@GlslProg@gl@cinder@@QEBA_NW4Attrib@geom@3@@Z 00000001400a6820 f   cinder:GlslProg.obj
 0001:000a5850       ?loadShader@GlslProg@gl@cinder@@IEAAIAEBV?$basic_string@DU?$char_traits@D@std@@V?$allocator@D@2@@std@@AEBVpath@filesystem@5@HAEBV?$shared_ptr@VShaderPreprocessor@gl@cinder@@@5@@Z 00000001400a6850 f   cinder:GlslProg.obj
 0001:000a5a90       ?logMissingUniform@GlslProg@gl@cinder@@IEBAXAEBV?$basic_string@DU?$char_traits@D@std@@V?$allocator@D@2@@std@@@Z 00000001400a6a90 f   cinder:GlslProg.obj
 0001:000a5d90       ?logMissingUniform@GlslProg@gl@cinder@@IEBAXH@Z 00000001400a6d90 f   cinder:GlslProg.obj
 0001:000a6120       ?logUniformWrongType@GlslProg@gl@cinder@@IEBAXAEBV?$basic_string@DU?$char_traits@D@std@@V?$allocator@D@2@@std@@I0@Z 00000001400a7120 f   cinder:GlslProg.obj
 0001:000a64d0       ?setPreprocessingEnabled@Format@GlslProg@gl@cinder@@QEAAX_N@Z 00000001400a74d0 f   cinder:GlslProg.obj
 0001:000a6600       ?uniform@GlslProg@gl@cinder@@QEBAXAEBV?$basic_string@DU?$char_traits@D@std@@V?$allocator@D@2@@std@@AEBU?$vec@$01M$0A@@glm@@@Z 00000001400a7600 f   cinder:GlslProg.obj
 0001:000a66a0       ?uniform@GlslProg@gl@cinder@@QEBAXAEBV?$basic_string@DU?$char_traits@D@std@@V?$allocator@D@2@@std@@H@Z 00000001400a76a0 f   cinder:GlslProg.obj
 0001:000a6730       ?uniform@GlslProg@gl@cinder@@QEBAXHAEBU?$mat@$02$02M$0A@@glm@@_N@Z 00000001400a7730 f   cinder:GlslProg.obj
 0001:000a67e0       ?uniform@GlslProg@gl@cinder@@QEBAXHAEBU?$mat@$03$03M$0A@@glm@@_N@Z 00000001400a77e0 f   cinder:GlslProg.obj
 0001:000a6890       ?uniform@GlslProg@gl@cinder@@QEBAXHAEBU?$vec@$01H$0A@@glm@@@Z 00000001400a7890 f   cinder:GlslProg.obj
 0001:000a6940       ?uniform@GlslProg@gl@cinder@@QEBAXHM@Z 00000001400a7940 f   cinder:GlslProg.obj
 0001:000a69e0       ?vertex@Format@GlslProg@gl@cinder@@QEAAAEAU1234@AEBV?$basic_string@DU?$char_traits@D@std@@V?$allocator@D@2@@std@@@Z 00000001400a79e0 f   cinder:GlslProg.obj
 0001:000a6a30       ??0BufferObj@gl@cinder@@IEAA@I_JPEBXI@Z 00000001400a7a30 f   cinder:BufferObj.obj
 0001:000a6af0       ??1BufferObj@gl@cinder@@QEAA@XZ 00000001400a7af0 f   cinder:BufferObj.obj
 0001:000a6b80       ?bufferData@BufferObj@gl@cinder@@QEAAX_JPEBXI@Z 00000001400a7b80 f   cinder:BufferObj.obj
 0001:000a6bf0       ?bufferSubData@BufferObj@gl@cinder@@QEAAX_J0PEBX@Z 00000001400a7bf0 f   cinder:BufferObj.obj
 0001:000a6c60       ?ensureMinimumSize@BufferObj@gl@cinder@@QEAAX_J@Z 00000001400a7c60 f   cinder:BufferObj.obj
 0001:000a6cb0       ?getBindingConstantForTarget@BufferObj@gl@cinder@@SAII@Z 00000001400a7cb0 f   cinder:BufferObj.obj
 0001:000a6d40       ?getSize@BufferObj@gl@cinder@@QEBA_KXZ 00000001400a7d40 f   cinder:BufferObj.obj
 0001:000a6d50       ?map@BufferObj@gl@cinder@@QEBAPEAXI@Z 00000001400a7d50 f   cinder:BufferObj.obj
 0001:000a6da0       ?unmap@BufferObj@gl@cinder@@QEBAXXZ 00000001400a7da0 f   cinder:BufferObj.obj
 0001:000a6de0       ??$_Assign_range@PEAU?$pair@IUVertexAttrib@Vao@gl@cinder@@@std@@@?$vector@U?$pair@IUVertexAttrib@Vao@gl@cinder@@@std@@V?$allocator@U?$pair@IUVertexAttrib@Vao@gl@cinder@@@std@@@2@@std@@AEAAXPEAU?$pair@IUVertexAttrib@Vao@gl@cinder@@@1@0Uforward_iterator_tag@1@@Z 00000001400a7de0 f i cinder:Vao.obj
 0001:000a7020       ??$_Emplace_reallocate@AEAIUVertexAttrib@Vao@gl@cinder@@@?$vector@U?$pair@IUVertexAttrib@Vao@gl@cinder@@@std@@V?$allocator@U?$pair@IUVertexAttrib@Vao@gl@cinder@@@std@@@2@@std@@QEAAPEAU?$pair@IUVertexAttrib@Vao@gl@cinder@@@1@QEAU21@AEAI$$QEAUVertexAttrib@Vao@gl@cinder@@@Z 00000001400a8020 f i cinder:Vao.obj
 0001:000a7270       ??0Vao@gl@cinder@@IEAA@XZ  00000001400a8270 f   cinder:Vao.obj
 0001:000a72f0       ??1Layout@Vao@gl@cinder@@QEAA@XZ 00000001400a82f0 f i cinder:Vao.obj
 0001:000a7300       ??1Vao@gl@cinder@@UEAA@XZ  00000001400a8300 f   cinder:Vao.obj
 0001:000a73c0       ??_EVao@gl@cinder@@UEAAPEAXI@Z 00000001400a83c0 f i cinder:Vao.obj
 0001:000a73c0       ??_GVao@gl@cinder@@UEAAPEAXI@Z 00000001400a83c0 f i cinder:Vao.obj
 0001:000a74a0       ?bindBuffer@Layout@Vao@gl@cinder@@QEAAXII@Z 00000001400a84a0 f   cinder:Vao.obj
 0001:000a74c0       ?create@Vao@gl@cinder@@SA?AV?$shared_ptr@VVao@gl@cinder@@@std@@XZ 00000001400a84c0 f   cinder:Vao.obj
 0001:000a74e0       ?disableVertexAttribArray@Layout@Vao@gl@cinder@@QEAAXI@Z 00000001400a84e0 f   cinder:Vao.obj
 0001:000a75a0       ?enableVertexAttribArray@Layout@Vao@gl@cinder@@QEAAXI@Z 00000001400a85a0 f   cinder:Vao.obj
 0001:000a7660       ?isVertexAttribArrayEnabled@Layout@Vao@gl@cinder@@QEBA_NI@Z 00000001400a8660 f   cinder:Vao.obj
 0001:000a7690       ?isVertexAttribEqual@Layout@Vao@gl@cinder@@QEBA_NIHIEHW4PointerType@VertexAttrib@234@PEBXI@Z 00000001400a8690 f   cinder:Vao.obj
 0001:000a76f0       ?replacementBindBegin@Vao@gl@cinder@@QEAAXXZ 00000001400a86f0 f   cinder:Vao.obj
 0001:000a7760       ?replacementBindEnd@Vao@gl@cinder@@QEAAXXZ 00000001400a8760 f   cinder:Vao.obj
 0001:000a77d0       ?setContext@Vao@gl@cinder@@IEAAXPEAVContext@23@@Z 00000001400a87d0 f   cinder:Vao.obj
 0001:000a77e0       ?vertexAttribDivisor@Layout@Vao@gl@cinder@@QEAAXII@Z 00000001400a87e0 f   cinder:Vao.obj
 0001:000a78b0       ?vertexAttribIPointer@Layout@Vao@gl@cinder@@QEAAXIHIHPEBX@Z 00000001400a88b0 f   cinder:Vao.obj
 0001:000a79e0       ?vertexAttribPointer@Layout@Vao@gl@cinder@@QEAAXIHIEHPEBX@Z 00000001400a89e0 f   cinder:Vao.obj
 0001:000a7b10       ??0IStreamFile@cinder@@IEAA@PEAU_iobuf@@_NH@Z 00000001400a8b10 f   cinder:Stream.obj
 0001:000a7c90       ??0StreamExc@cinder@@QEAA@AEBV01@@Z 00000001400a8c90 f i cinder:Stream.obj
 0001:000a7d10       ??0StreamExc@cinder@@QEAA@XZ 00000001400a8d10 f i cinder:Stream.obj
 0001:000a7d40       ??1?$_Temporary_owner@VIStreamFile@cinder@@@std@@QEAA@XZ 00000001400a8d40 f i cinder:Stream.obj
 0001:000a7d40       ??1?$_Temporary_owner@VIStreamMem@cinder@@@std@@QEAA@XZ 00000001400a8d40 f i cinder:Stream.obj
 0001:000a7d40       ??1?$_Temporary_owner@VOStreamFile@cinder@@@std@@QEAA@XZ 00000001400a8d40 f i cinder:Stream.obj
 0001:000a7d70       ??1IStreamCinder@cinder@@UEAA@XZ 00000001400a8d70 f i cinder:Stream.obj
 0001:000a7d90       ??1StreamBase@cinder@@UEAA@XZ 00000001400a8d90 f i cinder:Stream.obj
 0001:000a7da4       ??_EIStreamFile@cinder@@$4PPPPPPPM@A@EAAPEAXI@Z 00000001400a8da4 f i cinder:Stream.obj
 0001:000a7db0       ??_EIStreamMem@cinder@@$4PPPPPPPM@A@EAAPEAXI@Z 00000001400a8db0 f i cinder:Stream.obj
 0001:000a7dbc       ??_EOStreamFile@cinder@@$4PPPPPPPM@A@EAAPEAXI@Z 00000001400a8dbc f i cinder:Stream.obj
 0001:000a7dd0       ??_E?$_Ref_count_obj2@VBuffer@cinder@@@std@@UEAAPEAXI@Z 00000001400a8dd0 f i cinder:Stream.obj
 0001:000a7dd0       ??_G?$_Ref_count_obj2@VBuffer@cinder@@@std@@UEAAPEAXI@Z 00000001400a8dd0 f i cinder:Stream.obj
 0001:000a7e00       ??_EIStreamCinder@cinder@@UEAAPEAXI@Z 00000001400a8e00 f i cinder:Stream.obj
 0001:000a7e00       ??_GIStreamCinder@cinder@@UEAAPEAXI@Z 00000001400a8e00 f i cinder:Stream.obj
 0001:000a7e50       ??_EIStreamFile@cinder@@UEAAPEAXI@Z 00000001400a8e50 f i cinder:Stream.obj
 0001:000a7e50       ??_GIStreamFile@cinder@@UEAAPEAXI@Z 00000001400a8e50 f i cinder:Stream.obj
 0001:000a7fa0       ??_GIStreamMem@cinder@@UEAAPEAXI@Z 00000001400a8fa0 f i cinder:Stream.obj
 0001:000a7fa0       ??_EIStreamMem@cinder@@UEAAPEAXI@Z 00000001400a8fa0 f i cinder:Stream.obj
 0001:000a8040       ??_EOStream@cinder@@UEAAPEAXI@Z 00000001400a9040 f i cinder:Stream.obj
 0001:000a8040       ??_GOStream@cinder@@UEAAPEAXI@Z 00000001400a9040 f i cinder:Stream.obj
 0001:000a8090       ??_EOStreamFile@cinder@@UEAAPEAXI@Z 00000001400a9090 f i cinder:Stream.obj
 0001:000a8090       ??_GOStreamFile@cinder@@UEAAPEAXI@Z 00000001400a9090 f i cinder:Stream.obj
 0001:000a81a0       ??_GStreamBase@cinder@@UEAAPEAXI@Z 00000001400a91a0 f i cinder:Stream.obj
 0001:000a81a0       ??_EStreamBase@cinder@@UEAAPEAXI@Z 00000001400a91a0 f i cinder:Stream.obj
 0001:000a81f0       ??_EStreamExc@cinder@@UEAAPEAXI@Z 00000001400a91f0 f i cinder:Stream.obj
 0001:000a81f0       ??_GStreamExc@cinder@@UEAAPEAXI@Z 00000001400a91f0 f i cinder:Stream.obj
 0001:000a8230       ?IORead@IStreamFile@cinder@@MEAAXPEAX_K@Z 00000001400a9230 f   cinder:Stream.obj
 0001:000a8290       ?IORead@IStreamMem@cinder@@MEAAXPEAX_K@Z 00000001400a9290 f   cinder:Stream.obj
 0001:000a8320       ?IOWrite@OStreamFile@cinder@@MEAAXPEBX_K@Z 00000001400a9320 f   cinder:Stream.obj
 0001:000a8390       ?_Destroy@?$_Ref_count@VIStreamMem@cinder@@@std@@EEAAXXZ 00000001400a9390 f i cinder:Stream.obj
 0001:000a8390       ?_Destroy@?$_Ref_count@VOStreamFile@cinder@@@std@@EEAAXXZ 00000001400a9390 f i cinder:Stream.obj
 0001:000a8390       ?_Destroy@?$_Ref_count@VIStreamFile@cinder@@@std@@EEAAXXZ 00000001400a9390 f i cinder:Stream.obj
 0001:000a83c0       ?_Destroy@?$_Ref_count_obj2@VBuffer@cinder@@@std@@EEAAXXZ 00000001400a93c0 f i cinder:Stream.obj
 0001:000a83d0       ?create@IStreamMem@cinder@@SA?AV?$shared_ptr@VIStreamMem@cinder@@@std@@PEBX_K@Z 00000001400a93d0 f   cinder:Stream.obj
 0001:000a8500       ?isEof@IStreamFile@cinder@@UEBA_NXZ 00000001400a9500 f   cinder:Stream.obj
 0001:000a8530       ?isEof@IStreamMem@cinder@@UEBA_NXZ 00000001400a9530 f   cinder:Stream.obj
 0001:000a8540       ?loadFileStream@cinder@@YA?AV?$shared_ptr@VIStreamFile@cinder@@@std@@AEBVpath@filesystem@3@@Z 00000001400a9540 f   cinder:Stream.obj
 0001:000a8760       ?loadStreamBuffer@cinder@@YA?AV?$shared_ptr@VBuffer@cinder@@@std@@V?$shared_ptr@VIStreamCinder@cinder@@@3@@Z 00000001400a9760 f   cinder:Stream.obj
 0001:000a89b0       ?readData@IStreamCinder@cinder@@QEAAXPEAX_K@Z 00000001400a99b0 f   cinder:Stream.obj
 0001:000a89c0       ?readDataAvailable@IStreamFile@cinder@@UEAA_KPEAX_K@Z 00000001400a99c0 f   cinder:Stream.obj
 0001:000a89d0       ?readDataAvailable@IStreamMem@cinder@@UEAA_KPEAX_K@Z 00000001400a99d0 f   cinder:Stream.obj
 0001:000a8a50       ?readDataImpl@IStreamFile@cinder@@IEAA_KPEAX_K@Z 00000001400a9a50 f   cinder:Stream.obj
 0001:000a8b70       ?seekAbsolute@IStreamFile@cinder@@$4PPPPPPPM@A@EAAXJ@Z 00000001400a9b70 f i cinder:Stream.obj
 0001:000a8b80       ?seekAbsolute@IStreamFile@cinder@@UEAAXJ@Z 00000001400a9b80 f   cinder:Stream.obj
 0001:000a8c08       ?seekAbsolute@IStreamMem@cinder@@$4PPPPPPPM@A@EAAXJ@Z 00000001400a9c08 f i cinder:Stream.obj
 0001:000a8c20       ?seekAbsolute@IStreamMem@cinder@@UEAAXJ@Z 00000001400a9c20 f   cinder:Stream.obj
 0001:000a8c84       ?seekAbsolute@OStreamFile@cinder@@$4PPPPPPPM@A@EAAXJ@Z 00000001400a9c84 f i cinder:Stream.obj
 0001:000a8c90       ?seekAbsolute@OStreamFile@cinder@@UEAAXJ@Z 00000001400a9c90 f   cinder:Stream.obj
 0001:000a8d00       ?seekRelative@IStreamFile@cinder@@$4PPPPPPPM@A@EAAXJ@Z 00000001400a9d00 f i cinder:Stream.obj
 0001:000a8d10       ?seekRelative@IStreamFile@cinder@@UEAAXJ@Z 00000001400a9d10 f   cinder:Stream.obj
 0001:000a8d84       ?seekRelative@IStreamMem@cinder@@$4PPPPPPPM@A@EAAXJ@Z 00000001400a9d84 f i cinder:Stream.obj
 0001:000a8d90       ?seekRelative@IStreamMem@cinder@@UEAAXJ@Z 00000001400a9d90 f   cinder:Stream.obj
 0001:000a8df0       ?seekRelative@OStreamFile@cinder@@$4PPPPPPPM@A@EAAXJ@Z 00000001400a9df0 f i cinder:Stream.obj
 0001:000a8e00       ?seekRelative@OStreamFile@cinder@@UEAAXJ@Z 00000001400a9e00 f   cinder:Stream.obj
 0001:000a8e10       ?size@IStreamFile@cinder@@UEBAJXZ 00000001400a9e10 f   cinder:Stream.obj
 0001:000a8e80       ?raw_length@pairNode@@UEBAHXZ 00000001400a9e80 f i libvcruntime:undname.obj
 0001:000a8e80       ?size@IStreamMem@cinder@@UEBAJXZ 00000001400a9e80 f i cinder:Stream.obj
 0001:000a8e84       ?tell@IStreamFile@cinder@@$4PPPPPPPM@A@EBAJXZ 00000001400a9e84 f i cinder:Stream.obj
 0001:000a8e90       ?tell@IStreamFile@cinder@@UEBAJXZ 00000001400a9e90 f   cinder:Stream.obj
 0001:000a8e94       ?tell@IStreamMem@cinder@@$4PPPPPPPM@A@EBAJXZ 00000001400a9e94 f i cinder:Stream.obj
 0001:000a8ea0       ?tell@IStreamMem@cinder@@UEBAJXZ 00000001400a9ea0 f   cinder:Stream.obj
 0001:000a8ea4       ?tell@OStreamFile@cinder@@$4PPPPPPPM@A@EBAJXZ 00000001400a9ea4 f i cinder:Stream.obj
 0001:000a8eb0       ?tell@OStreamFile@cinder@@UEBAJXZ 00000001400a9eb0 f   cinder:Stream.obj
 0001:000a8ec0       ?getFilePathHint@DataSource@cinder@@QEAAAEBVpath@filesystem@std@@XZ 00000001400a9ec0 f i cinder:DataSource.obj
 0001:000a8ec0       ?what@StreamExc@cinder@@UEBAPEBDXZ 00000001400a9ec0 f i cinder:Stream.obj
 0001:000a8ed0       ?writeData@OStream@cinder@@QEAAXPEBX_K@Z 00000001400a9ed0 f   cinder:Stream.obj
 0001:000a8ee0       ?writeFileStream@cinder@@YA?AV?$shared_ptr@VOStreamFile@cinder@@@std@@AEBVpath@filesystem@3@_N@Z 00000001400a9ee0 f   cinder:Stream.obj
 0001:000a9320       ??0?$ChannelT@E@cinder@@QEAA@HH_JEPEAEAEBV?$shared_ptr@E@std@@@Z 00000001400aa320 f i cinder:Channel.obj
 0001:000a9370       ??0?$ChannelT@E@cinder@@QEAA@XZ 00000001400aa370 f i cinder:Channel.obj
 0001:000a9390       ??0?$ChannelT@M@cinder@@QEAA@$$QEAV01@@Z 00000001400aa390 f i cinder:Channel.obj
 0001:000a9470       ??0?$ChannelT@M@cinder@@QEAA@AEBV01@@Z 00000001400aa470 f i cinder:Channel.obj
 0001:000a95c0       ??0?$ChannelT@M@cinder@@QEAA@HH@Z 00000001400aa5c0 f i cinder:Channel.obj
 0001:000a96d0       ??0?$ChannelT@M@cinder@@QEAA@HH_JEPEAM@Z 00000001400aa6d0 f i cinder:Channel.obj
 0001:000a9710       ??4?$ChannelT@E@cinder@@QEAAAEAV01@$$QEAV01@@Z 00000001400aa710 f i cinder:Channel.obj
 0001:000a9810       ?copyFrom@?$ChannelT@M@cinder@@QEAAXAEBV12@AEBVArea@2@AEBU?$vec@$01H$0A@@glm@@@Z 00000001400aa810 f i cinder:Channel.obj
 0001:000a99f0       ??$fill@E@ip@cinder@@YAXPEAV?$ChannelT@E@1@E@Z 00000001400aa9f0 f i cinder:Fill.obj
 0001:000a9ae0       ??$_Try_emplace@I$$V@?$_Hash@V?$_Umap_traits@IV?$basic_string@DU?$char_traits@D@std@@V?$allocator@D@2@@std@@V?$_Uhash_compare@IU?$hash@I@std@@U?$equal_to@I@2@@2@V?$allocator@U?$pair@$$CBIV?$basic_string@DU?$char_traits@D@std@@V?$allocator@D@2@@std@@@std@@@2@$0A@@std@@@std@@IEAA?AU?$pair@PEAU?$_List_node@U?$pair@$$CBIV?$basic_string@DU?$char_traits@D@std@@V?$allocator@D@2@@std@@@std@@PEAX@std@@_N@1@$$QEAI@Z 00000001400aaae0 f i cinder:ConstantConversions.obj
 0001:000a9db0       ??1?$_List_node_emplace_op2@V?$allocator@U?$_List_node@U?$pair@$$CBIV?$basic_string@DU?$char_traits@D@std@@V?$allocator@D@2@@std@@@std@@PEAX@std@@@std@@@std@@QEAA@XZ 00000001400aadb0 f i cinder:ConstantConversions.obj
 0001:000a9df0       ??1?$list@U?$pair@$$CBIV?$basic_string@DU?$char_traits@D@std@@V?$allocator@D@2@@std@@@std@@V?$allocator@U?$pair@$$CBIV?$basic_string@DU?$char_traits@D@std@@V?$allocator@D@2@@std@@@std@@@2@@std@@QEAA@XZ 00000001400aadf0 f i cinder:ConstantConversions.obj
 0001:000a9e60       ?_Forced_rehash@?$_Hash@V?$_Umap_traits@IV?$basic_string@DU?$char_traits@D@std@@V?$allocator@D@2@@std@@V?$_Uhash_compare@IU?$hash@I@std@@U?$equal_to@I@2@@2@V?$allocator@U?$pair@$$CBIV?$basic_string@DU?$char_traits@D@std@@V?$allocator@D@2@@std@@@std@@@2@$0A@@std@@@std@@IEAAX_K@Z 00000001400aae60 f i cinder:ConstantConversions.obj
 0001:000aa030       ?constantToString@gl@cinder@@YA?AV?$basic_string@DU?$char_traits@D@std@@V?$allocator@D@2@@std@@I@Z 00000001400ab030 f   cinder:ConstantConversions.obj
 0001:000ac7e0       ?typeToBytes@gl@cinder@@YAEI@Z 00000001400ad7e0 f   cinder:ConstantConversions.obj
 0001:000acc40       ??0DataSource@cinder@@IEAA@AEBVpath@filesystem@std@@AEBVUrl@1@@Z 00000001400adc40 f i cinder:DataSource.obj
 0001:000accb0       ??0DataSourceBuffer@cinder@@IEAA@AEBV?$shared_ptr@VBuffer@cinder@@@std@@@Z 00000001400adcb0 f   cinder:DataSource.obj
 0001:000ace30       ??1DataSource@cinder@@MEAA@XZ 00000001400ade30 f i cinder:DataSource.obj
 0001:000acef0       ??_EDataSource@cinder@@MEAAPEAXI@Z 00000001400adef0 f i cinder:DataSource.obj
 0001:000acef0       ??_GDataSource@cinder@@MEAAPEAXI@Z 00000001400adef0 f i cinder:DataSource.obj
 0001:000acf30       ??_GDataSourcePath@cinder@@UEAAPEAXI@Z 00000001400adf30 f i cinder:DataSource.obj
 0001:000acf30       ??_GDataSourceBuffer@cinder@@UEAAPEAXI@Z 00000001400adf30 f i cinder:DataSource.obj
 0001:000acf30       ??_EDataSourcePath@cinder@@UEAAPEAXI@Z 00000001400adf30 f i cinder:DataSource.obj
 0001:000acf30       ??_EDataSourceBuffer@cinder@@UEAAPEAXI@Z 00000001400adf30 f i cinder:DataSource.obj
 0001:000acfc0       ?create@DataSourceBuffer@cinder@@SA?AV?$shared_ptr@VDataSourceBuffer@cinder@@@std@@AEBV?$shared_ptr@VBuffer@cinder@@@4@AEBVpath@filesystem@4@@Z 00000001400adfc0 f   cinder:DataSource.obj
 0001:000ad0a0       ?create@DataSourcePath@cinder@@SA?AV?$shared_ptr@VDataSourcePath@cinder@@@std@@AEBVpath@filesystem@4@@Z 00000001400ae0a0 f   cinder:DataSource.obj
 0001:000ad200       ?createBuffer@DataSourcePath@cinder@@MEAAXXZ 00000001400ae200 f   cinder:DataSource.obj
 0001:000ad330       ?createStream@DataSourceBuffer@cinder@@UEAA?AV?$shared_ptr@VIStreamCinder@cinder@@@std@@XZ 00000001400ae330 f   cinder:DataSource.obj
 0001:000ad3d0       ?createStream@DataSourcePath@cinder@@UEAA?AV?$shared_ptr@VIStreamCinder@cinder@@@std@@XZ 00000001400ae3d0 f   cinder:DataSource.obj
 0001:000ad460       ?getBuffer@DataSource@cinder@@QEAA?AV?$shared_ptr@VBuffer@cinder@@@std@@XZ 00000001400ae460 f   cinder:DataSource.obj
 0001:000ad4b0       ?getFilePath@DataSource@cinder@@QEAAAEBVpath@filesystem@std@@XZ 00000001400ae4b0 f   cinder:DataSource.obj
 0001:000ad4c0       ?floatToHalf@cinder@@YA?AThalf_float@1@M@Z 00000001400ae4c0 f   cinder:CinderMath.obj
 0001:000ad540       ?halfToFloat@cinder@@YAMThalf_float@1@@Z 00000001400ae540 f   cinder:CinderMath.obj
 0001:000ad960       ?translateNativeKeyCode@KeyEvent@app@cinder@@SAHH@Z 00000001400ae960 f   cinder:KeyEvent.obj
 0001:000ad9a0       ?AddRef@ComOStream@msw@cinder@@UEAAKXZ 00000001400ae9a0 f   cinder:CinderMsw.obj
 0001:000ad9b0       ?ComDelete@msw@cinder@@YAXPEAX@Z 00000001400ae9b0 f   cinder:CinderMsw.obj
 0001:000ad9c0       ?QueryInterface@ComOStream@msw@cinder@@UEAAJAEBU_GUID@@PEAPEAX@Z 00000001400ae9c0 f   cinder:CinderMsw.obj
 0001:000ada30       ?Release@ComOStream@msw@cinder@@UEAAKXZ 00000001400aea30 f   cinder:CinderMsw.obj
 0001:000adac0       ?Seek@ComOStream@msw@cinder@@UEAAJT_LARGE_INTEGER@@KPEAT_ULARGE_INTEGER@@@Z 00000001400aeac0 f   cinder:CinderMsw.obj
 0001:000adb60       ?Write@ComOStream@msw@cinder@@UEAAJPEBXKPEAK@Z 00000001400aeb60 f   cinder:CinderMsw.obj
 0001:000adb90       ?initializeCom@msw@cinder@@YAXK@Z 00000001400aeb90 f   cinder:CinderMsw.obj
 0001:000adc10       ?toUtf8String@msw@cinder@@YA?AV?$basic_string@DU?$char_traits@D@std@@V?$allocator@D@2@@std@@AEBV?$basic_string@_WU?$char_traits@_W@std@@V?$allocator@_W@2@@4@@Z 00000001400aec10 f   cinder:CinderMsw.obj
 0001:000ade50       ?toWideString@msw@cinder@@YA?AV?$basic_string@_WU?$char_traits@_W@std@@V?$allocator@_W@2@@std@@AEBV?$basic_string@DU?$char_traits@D@std@@V?$allocator@D@2@@4@@Z 00000001400aee50 f   cinder:CinderMsw.obj
 0001:000ae090       ??$_Emplace_reallocate@AEBV?$shared_ptr@VDisplay@cinder@@@std@@@?$vector@V?$shared_ptr@VDisplay@cinder@@@std@@V?$allocator@V?$shared_ptr@VDisplay@cinder@@@std@@@2@@std@@QEAAPEAV?$shared_ptr@VDisplay@cinder@@@1@QEAV21@AEBV21@@Z 00000001400af090 f i cinder:PlatformMsw.obj
 0001:000ae260       ??$_Emplace_reallocate@V?$shared_ptr@VDisplay@cinder@@@std@@@?$vector@V?$shared_ptr@VDisplay@cinder@@@std@@V?$allocator@V?$shared_ptr@VDisplay@cinder@@@std@@@2@@std@@QEAAPEAV?$shared_ptr@VDisplay@cinder@@@1@QEAV21@$$QEAV21@@Z 00000001400af260 f i cinder:PlatformMsw.obj
 0001:000ae430       ??$_Erase_tree@V?$allocator@U?$_Tree_node@U?$pair@$$CBV?$basic_string@DU?$char_traits@D@std@@V?$allocator@D@2@@std@@V12@@std@@PEAX@std@@@std@@@?$_Tree_val@U?$_Tree_simple_types@U?$pair@$$CBV?$basic_string@DU?$char_traits@D@std@@V?$allocator@D@2@@std@@V12@@std@@@std@@@std@@QEAAXAEAV?$allocator@U?$_Tree_node@U?$pair@$$CBV?$basic_string@DU?$char_traits@D@std@@V?$allocator@D@2@@std@@V12@@std@@PEAX@std@@@1@PEAU?$_Tree_node@U?$pair@$$CBV?$basic_string@DU?$char_traits@D@std@@V?$allocator@D@2@@std@@V12@@std@@PEAX@1@@Z 00000001400af430 f i cinder:PlatformMsw.obj
 0001:000ae4b0       ??$_snprintf_s@$0EAA@@@YAHAEAY0EAA@D_KPEBDZZ 00000001400af4b0 f i cinder:PlatformMsw.obj
 0001:000ae520       ??0?$vector@V?$basic_string@DU?$char_traits@D@std@@V?$allocator@D@2@@std@@V?$allocator@V?$basic_string@DU?$char_traits@D@std@@V?$allocator@D@2@@std@@@2@@std@@QEAA@AEBV01@@Z 00000001400af520 f i cinder:PlatformMsw.obj
 0001:000ae5d0       ??0PlatformMsw@app@cinder@@QEAA@XZ 00000001400af5d0 f   cinder:PlatformMsw.obj
 0001:000ae650       ??0ResourceLoadExc@app@cinder@@QEAA@AEBV012@@Z 00000001400af650 f i cinder:PlatformMsw.obj
 0001:000ae6c0       ??0ResourceLoadExcMsw@app@cinder@@QEAA@AEBV012@@Z 00000001400af6c0 f i cinder:PlatformMsw.obj
 0001:000ae730       ??0ResourceLoadExcMsw@app@cinder@@QEAA@HAEBV?$basic_string@DU?$char_traits@D@std@@V?$allocator@D@2@@std@@@Z 00000001400af730 f   cinder:PlatformMsw.obj
 0001:000aebc0       ??1?$_Tree_temp_node_alloc@V?$allocator@U?$_Tree_node@U?$pair@$$CBV?$basic_string@DU?$char_traits@D@std@@V?$allocator@D@2@@std@@V12@@std@@PEAX@std@@@std@@@std@@QEAA@XZ 00000001400afbc0 f i cinder:PlatformMsw.obj
 0001:000aebc0       ??1?$_Alloc_construct_ptr@V?$allocator@U?$_Tree_node@U?$pair@$$CBV?$basic_string@DU?$char_traits@D@std@@V?$allocator@D@2@@std@@V12@@std@@PEAX@std@@@std@@@std@@QEAA@XZ 00000001400afbc0 f i cinder:PlatformMsw.obj
 0001:000aebe0       ??1?$_Tidy_guard@V?$vector@V?$basic_string@DU?$char_traits@D@std@@V?$allocator@D@2@@std@@V?$allocator@V?$basic_string@DU?$char_traits@D@std@@V?$allocator@D@2@@std@@@2@@std@@@std@@QEAA@XZ 00000001400afbe0 f i cinder:PlatformMsw.obj
 0001:000aebf0       ??1?$map@V?$basic_string@DU?$char_traits@D@std@@V?$allocator@D@2@@std@@V12@U?$less@V?$basic_string@DU?$char_traits@D@std@@V?$allocator@D@2@@std@@@2@V?$allocator@U?$pair@$$CBV?$basic_string@DU?$char_traits@D@std@@V?$allocator@D@2@@std@@V12@@std@@@2@@std@@QEAA@XZ 00000001400afbf0 f i cinder:PlatformMsw.obj
 0001:000aec20       ??1?$unique_ptr@V?$basic_ostream@DU?$char_traits@D@std@@@std@@U?$default_delete@V?$basic_ostream@DU?$char_traits@D@std@@@std@@@2@@std@@QEAA@XZ 00000001400afc20 f i cinder:PlatformMsw.obj
 0001:000aec60       ??1Display@cinder@@UEAA@XZ 00000001400afc60 f i cinder:PlatformMsw.obj
 0001:000aecd0       ??1Platform@app@cinder@@UEAA@XZ 00000001400afcd0 f i cinder:PlatformMsw.obj
 0001:000aecfc       ??_E?$basic_dostream@DU?$char_traits@D@std@@@msw@cinder@@$4PPPPPPPM@A@EAAPEAXI@Z 00000001400afcfc f i cinder:PlatformMsw.obj
 0001:000aed10       ??_G?$basic_debugbuf@DU?$char_traits@D@std@@@msw@cinder@@UEAAPEAXI@Z 00000001400afd10 f i cinder:PlatformMsw.obj
 0001:000aed10       ??_E?$basic_debugbuf@DU?$char_traits@D@std@@@msw@cinder@@UEAAPEAXI@Z 00000001400afd10 f i cinder:PlatformMsw.obj
 0001:000aed60       ??_E?$basic_dostream@DU?$char_traits@D@std@@@msw@cinder@@UEAAPEAXI@Z 00000001400afd60 f i cinder:PlatformMsw.obj
 0001:000aed60       ??_G?$basic_dostream@DU?$char_traits@D@std@@@msw@cinder@@UEAAPEAXI@Z 00000001400afd60 f i cinder:PlatformMsw.obj
 0001:000aee60       ??_GDisplay@cinder@@UEAAPEAXI@Z 00000001400afe60 f i cinder:PlatformMsw.obj
 0001:000aee60       ??_EDisplay@cinder@@UEAAPEAXI@Z 00000001400afe60 f i cinder:PlatformMsw.obj
 0001:000aeea0       ??_GDisplayMsw@cinder@@UEAAPEAXI@Z 00000001400afea0 f i cinder:PlatformMsw.obj
 0001:000aeea0       ??_EDisplayMsw@cinder@@UEAAPEAXI@Z 00000001400afea0 f i cinder:PlatformMsw.obj
 0001:000aeee0       ??_EPlatform@app@cinder@@UEAAPEAXI@Z 00000001400afee0 f i cinder:PlatformMsw.obj
 0001:000aeee0       ??_GPlatform@app@cinder@@UEAAPEAXI@Z 00000001400afee0 f i cinder:PlatformMsw.obj
 0001:000aef30       ??_GPlatformMsw@app@cinder@@UEAAPEAXI@Z 00000001400aff30 f i cinder:PlatformMsw.obj
 0001:000aef30       ??_EPlatformMsw@app@cinder@@UEAAPEAXI@Z 00000001400aff30 f i cinder:PlatformMsw.obj
 0001:000af1c0       ?_Change_array@?$vector@V?$shared_ptr@VDisplay@cinder@@@std@@V?$allocator@V?$shared_ptr@VDisplay@cinder@@@std@@@2@@std@@AEAAXQEAV?$shared_ptr@VDisplay@cinder@@@2@_K1@Z 00000001400b01c0 f i cinder:PlatformMsw.obj
 0001:000af260       ?console@PlatformMsw@app@cinder@@UEAAAEAV?$basic_ostream@DU?$char_traits@D@std@@@std@@XZ 00000001400b0260 f   cinder:PlatformMsw.obj
 0001:000af410       ?enumMonitorProc@DisplayMsw@cinder@@KAHPEAUHMONITOR__@@PEAUHDC__@@PEAUtagRECT@@_J@Z 00000001400b0410 f   cinder:PlatformMsw.obj
 0001:000af6a0       ?expandPath@PlatformMsw@app@cinder@@UEAA?AVpath@filesystem@std@@AEBV456@@Z 00000001400b06a0 f   cinder:PlatformMsw.obj
 0001:000af830       ?findDisplayFromHmonitor@PlatformMsw@app@cinder@@QEAA?AV?$shared_ptr@VDisplay@cinder@@@std@@PEAUHMONITOR__@@@Z 00000001400b0830 f   cinder:PlatformMsw.obj
 0001:000af980       ?getDefaultExecutablePath@PlatformMsw@app@cinder@@UEBA?AVpath@filesystem@std@@XZ 00000001400b0980 f   cinder:PlatformMsw.obj
 0001:000afa40       ?getDisplays@PlatformMsw@app@cinder@@UEAAAEBV?$vector@V?$shared_ptr@VDisplay@cinder@@@std@@V?$allocator@V?$shared_ptr@VDisplay@cinder@@@std@@@2@@std@@XZ 00000001400b0a40 f   cinder:PlatformMsw.obj
 0001:000afc10       ?getDocumentsDirectory@PlatformMsw@app@cinder@@UEBA?AVpath@filesystem@std@@XZ 00000001400b0c10 f   cinder:PlatformMsw.obj
 0001:000afd30       ?getEnvironmentVariables@PlatformMsw@app@cinder@@UEAA?AV?$map@V?$basic_string@DU?$char_traits@D@std@@V?$allocator@D@2@@std@@V12@U?$less@V?$basic_string@DU?$char_traits@D@std@@V?$allocator@D@2@@std@@@2@V?$allocator@U?$pair@$$CBV?$basic_string@DU?$char_traits@D@std@@V?$allocator@D@2@@std@@V12@@std@@@2@@std@@XZ 00000001400b0d30 f   cinder:PlatformMsw.obj
 0001:000b0410       ?getFolderPath@PlatformMsw@app@cinder@@UEAA?AVpath@filesystem@std@@AEBV456@@Z 00000001400b1410 f   cinder:PlatformMsw.obj
 0001:000b0430       ?getHomeDirectory@PlatformMsw@app@cinder@@UEBA?AVpath@filesystem@std@@XZ 00000001400b1430 f   cinder:PlatformMsw.obj
 0001:000b05f0       ?getName@Display@cinder@@UEBA?AV?$basic_string@DU?$char_traits@D@std@@V?$allocator@D@2@@std@@XZ 00000001400b15f0 f i cinder:PlatformMsw.obj
 0001:000b0610       ?getName@DisplayMsw@cinder@@UEBA?AV?$basic_string@DU?$char_traits@D@std@@V?$allocator@D@2@@std@@XZ 00000001400b1610 f   cinder:PlatformMsw.obj
 0001:000b07c0       ?getOpenFilePath@PlatformMsw@app@cinder@@UEAA?AVpath@filesystem@std@@AEBV456@AEBV?$vector@V?$basic_string@DU?$char_traits@D@std@@V?$allocator@D@2@@std@@V?$allocator@V?$basic_string@DU?$char_traits@D@std@@V?$allocator@D@2@@std@@@2@@6@@Z 00000001400b17c0 f   cinder:PlatformMsw.obj
 0001:000b0800       ?getResourcePath@PlatformMsw@app@cinder@@UEBA?AVpath@filesystem@std@@AEBV456@@Z 00000001400b1800 f i cinder:PlatformMsw.obj
 0001:000b0800       ?getResourceDirectory@PlatformMsw@app@cinder@@UEBA?AVpath@filesystem@std@@XZ 00000001400b1800 f i cinder:PlatformMsw.obj
 0001:000b0820       ?getSaveFilePath@PlatformMsw@app@cinder@@UEAA?AVpath@filesystem@std@@AEBV456@AEBV?$vector@V?$basic_string@DU?$char_traits@D@std@@V?$allocator@D@2@@std@@V?$allocator@V?$basic_string@DU?$char_traits@D@std@@V?$allocator@D@2@@std@@@2@@6@@Z 00000001400b1820 f   cinder:PlatformMsw.obj
 0001:000b0860       ?launchWebBrowser@PlatformMsw@app@cinder@@UEAAXAEBVUrl@3@@Z 00000001400b1860 f   cinder:PlatformMsw.obj
 0001:000b0970       ?loadResource@PlatformMsw@app@cinder@@UEAA?AV?$shared_ptr@VDataSource@cinder@@@std@@AEBVpath@filesystem@5@HAEBV?$basic_string@DU?$char_traits@D@std@@V?$allocator@D@2@@5@@Z 00000001400b1970 f   cinder:PlatformMsw.obj
 0001:000b0bb0       ?refreshDisplays@PlatformMsw@app@cinder@@QEAAXXZ 00000001400b1bb0 f   cinder:PlatformMsw.obj
 0001:000b1290       ?setThreadName@PlatformMsw@app@cinder@@UEAAXAEBV?$basic_string@DU?$char_traits@D@std@@V?$allocator@D@2@@std@@@Z 00000001400b2290 f   cinder:PlatformMsw.obj
 0001:000b13d0       ?sleep@PlatformMsw@app@cinder@@UEAAXM@Z 00000001400b23d0 f   cinder:PlatformMsw.obj
 0001:000b13e0       ?stackTrace@PlatformMsw@app@cinder@@UEAA?AV?$vector@V?$basic_string@DU?$char_traits@D@std@@V?$allocator@D@2@@std@@V?$allocator@V?$basic_string@DU?$char_traits@D@std@@V?$allocator@D@2@@std@@@2@@std@@XZ 00000001400b23e0 f   cinder:PlatformMsw.obj
 0001:000b1550       ?sync@?$basic_debugbuf@DU?$char_traits@D@std@@@msw@cinder@@MEAAHXZ 00000001400b2550 f i cinder:PlatformMsw.obj
 0001:000b1750       ??0TimelineItem@cinder@@QEAA@PEAVTimeline@1@PEAXMM@Z 00000001400b2750 f   cinder:TimelineItem.obj
 0001:000b17d0       ?loopTime@TimelineItem@cinder@@IEAAMM@Z 00000001400b27d0 f   cinder:TimelineItem.obj
 0001:000b1850       ?stepTo@TimelineItem@cinder@@QEAAXM_N@Z 00000001400b2850 f   cinder:TimelineItem.obj
 0001:000b1a50       ?updateDuration@TimelineItem@cinder@@IEBAXXZ 00000001400b2a50 f   cinder:TimelineItem.obj
 0001:000b1ae0       ?expandPath@cinder@@YA?AVpath@filesystem@std@@AEBV234@@Z 00000001400b2ae0 f   cinder:Utilities.cpp.obj
 0001:000b1b20       ?sleep@cinder@@YAXM@Z      00000001400b2b20 f   cinder:Utilities.cpp.obj
 0001:000b1b50       ??$_Copy_nodes@U_Copy_tag@?$_Tree@V?$_Tmap_traits@V?$basic_string@DU?$char_traits@D@std@@V?$allocator@D@2@@std@@IU?$less@V?$basic_string@DU?$char_traits@D@std@@V?$allocator@D@2@@std@@@2@V?$allocator@U?$pair@$$CBV?$basic_string@DU?$char_traits@D@std@@V?$allocator@D@2@@std@@I@std@@@2@$0A@@std@@@std@@@?$_Tree@V?$_Tmap_traits@V?$basic_string@DU?$char_traits@D@std@@V?$allocator@D@2@@std@@IU?$less@V?$basic_string@DU?$char_traits@D@std@@V?$allocator@D@2@@std@@@2@V?$allocator@U?$pair@$$CBV?$basic_string@DU?$char_traits@D@std@@V?$allocator@D@2@@std@@I@std@@@2@$0A@@std@@@std@@IEAAPEAU?$_Tree_node@U?$pair@$$CBV?$basic_string@DU?$char_traits@D@std@@V?$allocator@D@2@@std@@I@std@@PEAX@1@PEAU21@0U_Copy_tag@01@@Z 00000001400b2b50 f i cinder:EnvironmentCore.obj
 0001:000b1c30       ??0Format@GlslProg@gl@cinder@@QEAA@AEBU0123@@Z 00000001400b2c30 f i cinder:EnvironmentCore.obj
 0001:000b2110       ??1?$_Tree_head_scoped_ptr@V?$allocator@U?$_Tree_node@U?$pair@$$CBV?$basic_string@DU?$char_traits@D@std@@V?$allocator@D@2@@std@@I@std@@PEAX@std@@@std@@V?$_Tree_val@U?$_Tree_simple_types@U?$pair@$$CBV?$basic_string@DU?$char_traits@D@std@@V?$allocator@D@2@@std@@I@std@@@std@@@2@@std@@QEAA@XZ 00000001400b3110 f i cinder:EnvironmentCore.obj
 0001:000b2150       ?_Buy_raw@?$vector@V?$basic_string@DU?$char_traits@D@std@@V?$allocator@D@2@@std@@V?$allocator@V?$basic_string@DU?$char_traits@D@std@@V?$allocator@D@2@@std@@@2@@std@@AEAAX_K@Z 00000001400b3150 f i cinder:EnvironmentCore.obj
 0001:000b21e0       ?allocateEnvironmentCore@gl@cinder@@YAPEAVEnvironment@12@XZ 00000001400b31e0 f   cinder:EnvironmentCore.obj
 0001:000b2210       ?allocateTexStorage1d@EnvironmentCore@gl@cinder@@UEAAXIHIH_NH@Z 00000001400b3210 f   cinder:EnvironmentCore.obj
 0001:000b2330       ?allocateTexStorage2d@EnvironmentCore@gl@cinder@@UEAAXIHIHH_NH@Z 00000001400b3330 f   cinder:EnvironmentCore.obj
 0001:000b2470       ?allocateTexStorage3d@EnvironmentCore@gl@cinder@@UEAAXIHIHHH_N@Z 00000001400b3470 f   cinder:EnvironmentCore.obj
 0001:000b25b0       ?allocateTexStorageCubeMap@EnvironmentCore@gl@cinder@@UEAAXHIHH_N@Z 00000001400b35b0 f   cinder:EnvironmentCore.obj
 0001:000b26f0       ?buildShader@EnvironmentCore@gl@cinder@@UEAA?AV?$shared_ptr@VGlslProg@gl@cinder@@@std@@AEBVShaderDef@23@@Z 00000001400b36f0 f   cinder:EnvironmentCore.obj
 0001:000b29b0       ?generateFragmentShader@EnvironmentCore@gl@cinder@@UEAA?AV?$basic_string@DU?$char_traits@D@std@@V?$allocator@D@2@@std@@AEBVShaderDef@23@@Z 00000001400b39b0 f   cinder:EnvironmentCore.obj
 0001:000b3140       ?generateVertexShader@EnvironmentCore@gl@cinder@@UEAA?AV?$basic_string@DU?$char_traits@D@std@@V?$allocator@D@2@@std@@AEBVShaderDef@23@@Z 00000001400b4140 f   cinder:EnvironmentCore.obj
 0001:000b37c0       ?getPreferredIndexType@EnvironmentCore@gl@cinder@@UEBAIXZ 00000001400b47c0 f   cinder:EnvironmentCore.obj
 0001:000b37d0       ?initializeFunctionPointers@EnvironmentCore@gl@cinder@@UEAAXXZ 00000001400b47d0 f   cinder:EnvironmentCore.obj
 0001:000b37f0       ?isExtensionAvailable@EnvironmentCore@gl@cinder@@UEBA_NAEBV?$basic_string@DU?$char_traits@D@std@@V?$allocator@D@2@@std@@@Z 00000001400b47f0 f   cinder:EnvironmentCore.obj
 0001:000b3d80       ?objectLabel@EnvironmentCore@gl@cinder@@UEAAXIIHPEBD@Z 00000001400b4d80 f   cinder:EnvironmentCore.obj
 0001:000b3e20       ?supportsGeometryShader@EnvironmentCore@gl@cinder@@UEBA_NXZ 00000001400b4e20 f   cinder:EnvironmentCore.obj
 0001:000b3f10       ?supportsTessellationShader@EnvironmentCore@gl@cinder@@UEBA_NXZ 00000001400b4f10 f   cinder:EnvironmentCore.obj
 0001:000b4000       ??$?0VVbo@gl@cinder@@$0A@@?$shared_ptr@VVbo@gl@cinder@@@std@@QEAA@PEAVVbo@gl@cinder@@@Z 00000001400b5000 f i cinder:Vbo.obj
 0001:000b4070       ??1?$_Temporary_owner@VVbo@gl@cinder@@@std@@QEAA@XZ 00000001400b5070 f i cinder:Vbo.obj
 0001:000b40a0       ?_Destroy@?$_Ref_count@VVbo@gl@cinder@@@std@@EEAAXXZ 00000001400b50a0 f i cinder:Vbo.obj
 0001:000b40d0       ?create@Vbo@gl@cinder@@SA?AV?$shared_ptr@VVbo@gl@cinder@@@std@@I_JPEBXI@Z 00000001400b50d0 f   cinder:Vbo.obj
 0001:000b4150       ??$_Find_lower_bound@Vpath@filesystem@std@@@?$_Tree@V?$_Tset_traits@Vpath@filesystem@std@@U?$less@Vpath@filesystem@std@@@3@V?$allocator@Vpath@filesystem@std@@@3@$0A@@std@@@std@@IEBA?AU?$_Tree_find_result@PEAU?$_Tree_node@Vpath@filesystem@std@@PEAX@std@@@1@AEBVpath@filesystem@1@@Z 00000001400b5150 f i cinder:ShaderPreprocessor.obj
 0001:000b4210       ??$_Reallocate_grow_by@V<lambda_967c2ed818824c5314a20ec3af46b793>@@_KPEB_W_K@?$basic_string@_WU?$char_traits@_W@std@@V?$allocator@_W@2@@std@@AEAAAEAV01@_KV<lambda_967c2ed818824c5314a20ec3af46b793>@@_KPEB_W2@Z 00000001400b5210 f i cinder:ShaderPreprocessor.obj
 0001:000b4390       ??$getline@DU?$char_traits@D@std@@V?$allocator@D@2@@std@@YAAEAV?$basic_istream@DU?$char_traits@D@std@@@0@$$QEAV10@AEAV?$basic_string@DU?$char_traits@D@std@@V?$allocator@D@2@@0@D@Z 00000001400b5390 f i cinder:ShaderPreprocessor.obj
 0001:000b4670       ??$insert@$0A@$0A@@?$_Tree@V?$_Tset_traits@Vpath@filesystem@std@@U?$less@Vpath@filesystem@std@@@3@V?$allocator@Vpath@filesystem@std@@@3@$0A@@std@@@std@@QEAA?AU?$pair@V?$_Tree_const_iterator@V?$_Tree_val@U?$_Tree_simple_types@Vpath@filesystem@std@@@std@@@std@@@std@@_N@1@AEBVpath@filesystem@1@@Z 00000001400b5670 f i cinder:ShaderPreprocessor.obj
 0001:000b47a0       ??0?$basic_stringbuf@DU?$char_traits@D@std@@V?$allocator@D@2@@std@@QEAA@AEBV?$basic_string@DU?$char_traits@D@std@@V?$allocator@D@2@@1@H@Z 00000001400b57a0 f i cinder:ShaderPreprocessor.obj
 0001:000b48f0       ??0ShaderPreprocessor@gl@cinder@@QEAA@XZ 00000001400b58f0 f   cinder:ShaderPreprocessor.obj
 0001:000b4ae0       ??0ShaderPreprocessorExc@gl@cinder@@QEAA@AEBV012@@Z 00000001400b5ae0 f i cinder:ShaderPreprocessor.obj
 0001:000b4b50       ??0ShaderPreprocessorExc@gl@cinder@@QEAA@AEBV?$basic_string@DU?$char_traits@D@std@@V?$allocator@D@2@@std@@@Z 00000001400b5b50 f i cinder:ShaderPreprocessor.obj
 0001:000b4b80       ??1?$Signal@$$A6A_NAEBVpath@filesystem@std@@PEAV?$basic_string@DU?$char_traits@D@std@@V?$allocator@D@2@@3@@ZU?$CollectorDefault@_N@detail@signals@cinder@@@signals@cinder@@QEAA@XZ 00000001400b5b80 f i cinder:ShaderPreprocessor.obj
 0001:000b4b90       ??1_Fs_file@std@@QEAA@XZ   00000001400b5b90 f i cinder:ShaderPreprocessor.obj
 0001:000b4ba0       ??1sentry@?$basic_istream@DU?$char_traits@D@std@@@std@@QEAA@XZ 00000001400b5ba0 f i cinder:ShaderPreprocessor.obj
 0001:000b4bd0       ??_D?$basic_istringstream@DU?$char_traits@D@std@@V?$allocator@D@2@@std@@QEAAXXZ 00000001400b5bd0 f i cinder:ShaderPreprocessor.obj
 0001:000b4c64       ??_E?$basic_istringstream@DU?$char_traits@D@std@@V?$allocator@D@2@@std@@$4PPPPPPPM@A@EAAPEAXI@Z 00000001400b5c64 f i cinder:ShaderPreprocessor.obj
 0001:000b4c70       ??_E?$basic_istringstream@DU?$char_traits@D@std@@V?$allocator@D@2@@std@@UEAAPEAXI@Z 00000001400b5c70 f i cinder:ShaderPreprocessor.obj
 0001:000b4c70       ??_G?$basic_istringstream@DU?$char_traits@D@std@@V?$allocator@D@2@@std@@UEAAPEAXI@Z 00000001400b5c70 f i cinder:ShaderPreprocessor.obj
 0001:000b4cb0       ?_Canonical@filesystem@std@@YA?AW4__std_win_error@@AEAVpath@12@AEBV?$basic_string@_WU?$char_traits@_W@std@@V?$allocator@_W@2@@2@@Z 00000001400b5cb0 f i cinder:ShaderPreprocessor.obj
 0001:000b4fb0       ?_Ipfx@?$basic_istream@DU?$char_traits@D@std@@@std@@QEAA_N_N@Z 00000001400b5fb0 f i cinder:ShaderPreprocessor.obj
 0001:000b5280       ?count@?$_Tree@V?$_Tset_traits@Vpath@filesystem@std@@U?$less@Vpath@filesystem@std@@@3@V?$allocator@Vpath@filesystem@std@@@3@$0A@@std@@@std@@QEBA_KAEBVpath@filesystem@2@@Z 00000001400b6280 f i cinder:ShaderPreprocessor.obj
 0001:000b52f0       ?erase@?$basic_string@_WU?$char_traits@_W@std@@V?$allocator@_W@2@@std@@QEAAAEAV12@_K0@Z 00000001400b62f0 f i cinder:ShaderPreprocessor.obj
 0001:000b5350       ?findFullPath@ShaderPreprocessor@gl@cinder@@AEAA?AVpath@filesystem@std@@AEBV456@0@Z 00000001400b6350 f   cinder:ShaderPreprocessor.obj
 0001:000b5c40       ?getLineDirective@ShaderPreprocessor@gl@cinder@@AEBA?AV?$basic_string@DU?$char_traits@D@std@@V?$allocator@D@2@@std@@AEBVpath@filesystem@5@HHH@Z 00000001400b6c40 f   cinder:ShaderPreprocessor.obj
 0001:000b63c0       ?parse@ShaderPreprocessor@gl@cinder@@QEAA?AV?$basic_string@DU?$char_traits@D@std@@V?$allocator@D@2@@std@@AEBV45@AEBVpath@filesystem@5@PEAV?$set@Vpath@filesystem@std@@U?$less@Vpath@filesystem@std@@@3@V?$allocator@Vpath@filesystem@std@@@3@@5@@Z 00000001400b73c0 f   cinder:ShaderPreprocessor.obj
 0001:000b6780       ?parseDirectives@ShaderPreprocessor@gl@cinder@@AEAAXAEBV?$basic_string@DU?$char_traits@D@std@@V?$allocator@D@2@@std@@AEBVpath@filesystem@5@PEAV45@2PEAH3@Z 00000001400b7780 f   cinder:ShaderPreprocessor.obj
 0001:000b6fd0       ?parseRecursive@ShaderPreprocessor@gl@cinder@@AEAA?AV?$basic_string@DU?$char_traits@D@std@@V?$allocator@D@2@@std@@AEBVpath@filesystem@5@0HAEAV?$set@Vpath@filesystem@std@@U?$less@Vpath@filesystem@std@@@3@V?$allocator@Vpath@filesystem@std@@@3@@5@@Z 00000001400b7fd0 f   cinder:ShaderPreprocessor.obj
 0001:000b7b80       ?parseTopLevel@ShaderPreprocessor@gl@cinder@@AEAA?AV?$basic_string@DU?$char_traits@D@std@@V?$allocator@D@2@@std@@AEBV45@AEBVpath@filesystem@5@HHAEAV?$set@Vpath@filesystem@std@@U?$less@Vpath@filesystem@std@@@3@V?$allocator@Vpath@filesystem@std@@@3@@5@@Z 00000001400b8b80 f   cinder:ShaderPreprocessor.obj
 0001:000b7cf0       ?readStream@ShaderPreprocessor@gl@cinder@@AEAA?AV?$basic_string@DU?$char_traits@D@std@@V?$allocator@D@2@@std@@AEAV?$basic_istream@DU?$char_traits@D@std@@@5@AEBVpath@filesystem@5@HHAEAV?$set@Vpath@filesystem@std@@U?$less@Vpath@filesystem@std@@@3@V?$allocator@Vpath@filesystem@std@@@3@@5@@Z 00000001400b8cf0 f   cinder:ShaderPreprocessor.obj
 0001:000b82e0       ??_GVaoImplCore@gl@cinder@@UEAAPEAXI@Z 00000001400b92e0 f i cinder:VaoImplCore.obj
 0001:000b82e0       ??_EVaoImplCore@gl@cinder@@UEAAPEAXI@Z 00000001400b92e0 f i cinder:VaoImplCore.obj
 0001:000b8340       ?bindImpl@VaoImplCore@gl@cinder@@UEAAXPEAVContext@23@@Z 00000001400b9340 f   cinder:VaoImplCore.obj
 0001:000b8610       ?createVaoImplCore@gl@cinder@@YA?AV?$shared_ptr@VVao@gl@cinder@@@std@@XZ 00000001400b9610 f   cinder:VaoImplCore.obj
 0001:000b8750       ?disableVertexAttribArrayImpl@VaoImplCore@gl@cinder@@UEAAXI@Z 00000001400b9750 f   cinder:VaoImplCore.obj
 0001:000b8770       ?enableVertexAttribArrayImpl@VaoImplCore@gl@cinder@@UEAAXI@Z 00000001400b9770 f   cinder:VaoImplCore.obj
 0001:000b87b0       ?reassignContext@VaoImplCore@gl@cinder@@UEAAXPEAVContext@23@@Z 00000001400b97b0 f   cinder:VaoImplCore.obj
 0001:000b87c0       ?reassignImpl@VaoImplCore@gl@cinder@@QEAAXPEAVContext@23@@Z 00000001400b97c0 f   cinder:VaoImplCore.obj
 0001:000b88a0       ?reflectBindBufferImpl@VaoImplCore@gl@cinder@@UEAAXII@Z 00000001400b98a0 f   cinder:VaoImplCore.obj
 0001:000b88d0       ?unbindImpl@VaoImplCore@gl@cinder@@UEAAXPEAVContext@23@@Z 00000001400b98d0 f   cinder:VaoImplCore.obj
 0001:000b8900       ?vertexAttribDivisorImpl@VaoImplCore@gl@cinder@@UEAAXII@Z 00000001400b9900 f   cinder:VaoImplCore.obj
 0001:000b8950       ?vertexAttribIPointerImpl@VaoImplCore@gl@cinder@@UEAAXIHIHPEBX@Z 00000001400b9950 f   cinder:VaoImplCore.obj
 0001:000b8a00       ?vertexAttribPointerImpl@VaoImplCore@gl@cinder@@UEAAXIHIEHPEBX@Z 00000001400b9a00 f   cinder:VaoImplCore.obj
 0001:000b8ad0       heapAlloc                  00000001400b9ad0 f   cinder:tess.obj
 0001:000b8ae0       heapRealloc                00000001400b9ae0 f   cinder:tess.obj
 0001:000b8af0       heapFree                   00000001400b9af0 f   cinder:tess.obj
 0001:000b8b00       ??0Buffer@cinder@@QEAA@PEAX_K@Z 00000001400b9b00 f   cinder:Buffer.obj
 0001:000b8b20       ??0Buffer@cinder@@QEAA@_K@Z 00000001400b9b20 f   cinder:Buffer.obj
 0001:000b8b60       ??1Buffer@cinder@@QEAA@XZ  00000001400b9b60 f   cinder:Buffer.obj
 0001:000b8b70       ?resize@Buffer@cinder@@QEAAX_K@Z 00000001400b9b70 f   cinder:Buffer.obj
 0001:000b8be0       ??0StackWalker@@QEAA@HPEBDKPEAX@Z 00000001400b9be0 f   cinder:StackWalker.obj
 0001:000b8cc0       ??1StackWalker@@UEAA@XZ    00000001400b9cc0 f   cinder:StackWalker.obj
 0001:000b8d60       ??_GStackWalker@@UEAAPEAXI@Z 00000001400b9d60 f i cinder:StackWalker.obj
 0001:000b8d60       ??_EStackWalker@@UEAAPEAXI@Z 00000001400b9d60 f i cinder:StackWalker.obj
 0001:000b8e20       ?GetModuleInfo@StackWalkerInternal@@QEAAHPEAX_KPEAUIMAGEHLP_MODULE64_V2@1@@Z 00000001400b9e20 f i cinder:StackWalker.obj
 0001:000b9000       ?GetModuleListPSAPI@StackWalkerInternal@@AEAAHPEAX@Z 00000001400ba000 f i cinder:StackWalker.obj
 0001:000b92a0       ?Init@StackWalkerInternal@@QEAAHPEBD@Z 00000001400ba2a0 f i cinder:StackWalker.obj
 0001:000b9760       ?LoadModule@StackWalkerInternal@@AEAAKPEAXPEBD1_KK@Z 00000001400ba760 f i cinder:StackWalker.obj
 0001:000b9a30       ?LoadModules@StackWalker@@QEAAHXZ 00000001400baa30 f   cinder:StackWalker.obj
 0001:000ba000       ?OnCallstackEntry@StackWalker@@MEAAXW4CallstackEntryType@1@AEAUCallstackEntry@1@@Z 00000001400bb000 f   cinder:StackWalker.obj
 0001:000ba170       ?OnDbgHelpErr@StackWalker@@MEAAXPEBDK_K@Z 00000001400bb170 f   cinder:StackWalker.obj
 0001:000ba1e0       ?OnLoadModule@StackWalker@@MEAAXPEBD0_KKK001@Z 00000001400bb1e0 f   cinder:StackWalker.obj
 0001:000ba310       ?OnOutput@StackWalker@@MEAAXPEBD@Z 00000001400bb310 f   cinder:StackWalker.obj
 0001:000ba320       ?OnSymInit@StackWalker@@MEAAXPEBDK0@Z 00000001400bb320 f   cinder:StackWalker.obj
 0001:000ba460       ?ShowCallstack@StackWalker@@QEAAHPEAXPEBU_CONTEXT@@P6AH0_K0KPEAK0@Z0@Z 00000001400bb460 f   cinder:StackWalker.obj
 0001:000bab60       ?myReadProcMem@StackWalker@@KAHPEAX_K0KPEAK@Z 00000001400bbb60 f   cinder:StackWalker.obj
 0001:000babc0       ??0ImageIoException@cinder@@QEAA@AEBV?$basic_string@DU?$char_traits@D@std@@V?$allocator@D@2@@std@@@Z 00000001400bbbc0 f i cinder:ImageSourceFileWic.obj
 0001:000babf0       ??0ImageIoExceptionFailedLoad@cinder@@QEAA@AEBV01@@Z 00000001400bbbf0 f i cinder:ImageSourceFileWic.obj
 0001:000bac60       ??0ImageIoExceptionFailedLoad@cinder@@QEAA@AEBV?$basic_string@DU?$char_traits@D@std@@V?$allocator@D@2@@std@@@Z 00000001400bbc60 f i cinder:ImageSourceFileWic.obj
 0001:000bac90       ??0ImageSourceFileWic@cinder@@IEAA@V?$shared_ptr@VDataSource@cinder@@@std@@VOptions@ImageSource@1@@Z 00000001400bbc90 f   cinder:ImageSourceFileWic.obj
 0001:000bb3d0       ??1?$_Temporary_owner_del@PEAUIWICStream@@P6AXPEAX@Z@std@@QEAA@XZ 00000001400bc3d0 f i cinder:ImageSourceFileWic.obj
 0001:000bb3d0       ??1?$_Temporary_owner_del@PEAVComOStream@msw@cinder@@P6AXPEAX@Z@std@@QEAA@XZ 00000001400bc3d0 f i cinder:ImageTargetFileWic.obj
 0001:000bb3d0       ??1?$_Temporary_owner_del@PEAUIWICBitmapFrameEncode@@P6AXPEAX@Z@std@@QEAA@XZ 00000001400bc3d0 f i cinder:ImageTargetFileWic.obj
 0001:000bb3d0       ??1?$_Temporary_owner_del@PEAUIWICBitmapDecoder@@P6AXPEAX@Z@std@@QEAA@XZ 00000001400bc3d0 f i cinder:ImageSourceFileWic.obj
 0001:000bb3d0       ??1?$_Temporary_owner_del@PEAUIWICBitmapFrameDecode@@P6AXPEAX@Z@std@@QEAA@XZ 00000001400bc3d0 f i cinder:ImageSourceFileWic.obj
 0001:000bb3d0       ??1?$_Temporary_owner_del@PEAUIWICImagingFactory@@P6AXPEAX@Z@std@@QEAA@XZ 00000001400bc3d0 f i cinder:ImageTargetFileWic.obj
 0001:000bb3d0       ??1?$_Temporary_owner_del@PEAUIWICFormatConverter@@P6AXPEAX@Z@std@@QEAA@XZ 00000001400bc3d0 f i cinder:ImageSourceFileWic.obj
 0001:000bb3d0       ??1?$_Temporary_owner_del@PEAUIWICBitmapEncoder@@P6AXPEAX@Z@std@@QEAA@XZ 00000001400bc3d0 f i cinder:ImageTargetFileWic.obj
 0001:000bb490       ??_E?$_Ref_count_resource@PEAUIWICBitmapEncoder@@P6AXPEAX@Z@std@@UEAAPEAXI@Z 00000001400bc490 f i cinder:ImageTargetFileWic.obj
 0001:000bb490       ??_E?$_Ref_count_resource@PEAUIWICBitmapFrameEncode@@P6AXPEAX@Z@std@@UEAAPEAXI@Z 00000001400bc490 f i cinder:ImageTargetFileWic.obj
 0001:000bb490       ??_E?$_Ref_count_resource@PEAUIWICBitmapDecoder@@P6AXPEAX@Z@std@@UEAAPEAXI@Z 00000001400bc490 f i cinder:ImageSourceFileWic.obj
 0001:000bb490       ??_E?$_Ref_count_resource@PEAUIWICFormatConverter@@P6AXPEAX@Z@std@@UEAAPEAXI@Z 00000001400bc490 f i cinder:ImageSourceFileWic.obj
 0001:000bb490       ??_G?$_Ref_count_resource@PEAVComOStream@msw@cinder@@P6AXPEAX@Z@std@@UEAAPEAXI@Z 00000001400bc490 f i cinder:ImageTargetFileWic.obj
 0001:000bb490       ??_G?$_Ref_count_resource@PEAUIWICFormatConverter@@P6AXPEAX@Z@std@@UEAAPEAXI@Z 00000001400bc490 f i cinder:ImageSourceFileWic.obj
 0001:000bb490       ??_E?$_Ref_count_resource@PEAUIWICBitmapFrameDecode@@P6AXPEAX@Z@std@@UEAAPEAXI@Z 00000001400bc490 f i cinder:ImageSourceFileWic.obj
 0001:000bb490       ??_G?$_Ref_count_resource@PEAUIWICBitmapDecoder@@P6AXPEAX@Z@std@@UEAAPEAXI@Z 00000001400bc490 f i cinder:ImageSourceFileWic.obj
 0001:000bb490       ??_G?$_Ref_count_resource@PEAUIWICBitmapFrameEncode@@P6AXPEAX@Z@std@@UEAAPEAXI@Z 00000001400bc490 f i cinder:ImageTargetFileWic.obj
 0001:000bb490       ??_E?$_Ref_count_resource@PEAUIWICStream@@P6AXPEAX@Z@std@@UEAAPEAXI@Z 00000001400bc490 f i cinder:ImageSourceFileWic.obj
 0001:000bb490       ??_G?$_Ref_count_resource@PEAUIWICBitmapFrameDecode@@P6AXPEAX@Z@std@@UEAAPEAXI@Z 00000001400bc490 f i cinder:ImageSourceFileWic.obj
 0001:000bb490       ??_E?$_Ref_count_resource@PEAVComOStream@msw@cinder@@P6AXPEAX@Z@std@@UEAAPEAXI@Z 00000001400bc490 f i cinder:ImageTargetFileWic.obj
 0001:000bb490       ??_G?$_Ref_count_resource@PEAUIWICBitmapEncoder@@P6AXPEAX@Z@std@@UEAAPEAXI@Z 00000001400bc490 f i cinder:ImageTargetFileWic.obj
 0001:000bb490       ??_G?$_Ref_count_resource@PEAUIWICImagingFactory@@P6AXPEAX@Z@std@@UEAAPEAXI@Z 00000001400bc490 f i cinder:ImageTargetFileWic.obj
 0001:000bb490       ??_E?$_Ref_count_resource@PEAUIWICImagingFactory@@P6AXPEAX@Z@std@@UEAAPEAXI@Z 00000001400bc490 f i cinder:ImageTargetFileWic.obj
 0001:000bb490       ??_G?$_Ref_count_resource@PEAUIWICStream@@P6AXPEAX@Z@std@@UEAAPEAXI@Z 00000001400bc490 f i cinder:ImageSourceFileWic.obj
 0001:000bb4c0       ??_GImageSourceFileWic@cinder@@UEAAPEAXI@Z 00000001400bc4c0 f i cinder:ImageSourceFileWic.obj
 0001:000bb4c0       ??_EImageSourceFileWic@cinder@@UEAAPEAXI@Z 00000001400bc4c0 f i cinder:ImageSourceFileWic.obj
 0001:000bb5b0       ?_Destroy@?$_Ref_count_resource@PEAUIWICFormatConverter@@P6AXPEAX@Z@std@@EEAAXXZ 00000001400bc5b0 f i cinder:ImageSourceFileWic.obj
 0001:000bb5b0       ?_Destroy@?$_Ref_count_resource@PEAUIWICBitmapFrameDecode@@P6AXPEAX@Z@std@@EEAAXXZ 00000001400bc5b0 f i cinder:ImageSourceFileWic.obj
 0001:000bb5b0       ?_Destroy@?$_Ref_count_resource@PEAUIWICBitmapDecoder@@P6AXPEAX@Z@std@@EEAAXXZ 00000001400bc5b0 f i cinder:ImageSourceFileWic.obj
 0001:000bb5b0       ?_Destroy@?$_Ref_count_resource@PEAUIWICBitmapFrameEncode@@P6AXPEAX@Z@std@@EEAAXXZ 00000001400bc5b0 f i cinder:ImageTargetFileWic.obj
 0001:000bb5b0       ?_Destroy@?$_Ref_count_resource@PEAUIWICStream@@P6AXPEAX@Z@std@@EEAAXXZ 00000001400bc5b0 f i cinder:ImageSourceFileWic.obj
 0001:000bb5b0       ?_Destroy@?$_Ref_count_resource@PEAUIWICBitmapEncoder@@P6AXPEAX@Z@std@@EEAAXXZ 00000001400bc5b0 f i cinder:ImageTargetFileWic.obj
 0001:000bb5b0       ?_Destroy@?$_Ref_count_resource@PEAUIWICImagingFactory@@P6AXPEAX@Z@std@@EEAAXXZ 00000001400bc5b0 f i cinder:ImageTargetFileWic.obj
 0001:000bb5b0       ?_Destroy@?$_Ref_count_resource@PEAVComOStream@msw@cinder@@P6AXPEAX@Z@std@@EEAAXXZ 00000001400bc5b0 f i cinder:ImageTargetFileWic.obj
 0001:000bb5d0       ?_Get_deleter@?$_Ref_count_resource@PEAUIWICBitmapFrameEncode@@P6AXPEAX@Z@std@@UEBAPEAXAEBVtype_info@@@Z 00000001400bc5d0 f i cinder:ImageTargetFileWic.obj
 0001:000bb5d0       ?_Get_deleter@?$_Ref_count_resource@PEAUIWICStream@@P6AXPEAX@Z@std@@UEBAPEAXAEBVtype_info@@@Z 00000001400bc5d0 f i cinder:ImageSourceFileWic.obj
 0001:000bb5d0       ?_Get_deleter@?$_Ref_count_resource@PEAUIWICFormatConverter@@P6AXPEAX@Z@std@@UEBAPEAXAEBVtype_info@@@Z 00000001400bc5d0 f i cinder:ImageSourceFileWic.obj
 0001:000bb5d0       ?_Get_deleter@?$_Ref_count_resource@PEAVComOStream@msw@cinder@@P6AXPEAX@Z@std@@UEBAPEAXAEBVtype_info@@@Z 00000001400bc5d0 f i cinder:ImageTargetFileWic.obj
 0001:000bb5d0       ?_Get_deleter@?$_Ref_count_resource@PEAUIWICImagingFactory@@P6AXPEAX@Z@std@@UEBAPEAXAEBVtype_info@@@Z 00000001400bc5d0 f i cinder:ImageTargetFileWic.obj
 0001:000bb5d0       ?_Get_deleter@?$_Ref_count_resource@PEAUIWICBitmapFrameDecode@@P6AXPEAX@Z@std@@UEBAPEAXAEBVtype_info@@@Z 00000001400bc5d0 f i cinder:ImageSourceFileWic.obj
 0001:000bb5d0       ?_Get_deleter@?$_Ref_count_resource@PEAUIWICBitmapDecoder@@P6AXPEAX@Z@std@@UEBAPEAXAEBVtype_info@@@Z 00000001400bc5d0 f i cinder:ImageSourceFileWic.obj
 0001:000bb5d0       ?_Get_deleter@?$_Ref_count_resource@PEAUIWICBitmapEncoder@@P6AXPEAX@Z@std@@UEBAPEAXAEBVtype_info@@@Z 00000001400bc5d0 f i cinder:ImageTargetFileWic.obj
 0001:000bb600       ?create@ImageSourceFileWic@cinder@@SA?AV?$shared_ptr@VImageSource@cinder@@@std@@V?$shared_ptr@VDataSource@cinder@@@4@VOptions@ImageSource@2@@Z 00000001400bc600 f   cinder:ImageSourceFileWic.obj
 0001:000bb700       ?getFactory@ImageSourceFileWic@cinder@@KAPEAUIWICImagingFactory@@XZ 00000001400bc700 f   cinder:ImageSourceFileWic.obj
 0001:000bb780       ?load@ImageSourceFileWic@cinder@@UEAAXV?$shared_ptr@VImageTarget@cinder@@@std@@@Z 00000001400bc780 f   cinder:ImageSourceFileWic.obj
 0001:000bba90       ?processFormat@ImageSourceFileWic@cinder@@IEAA_NAEBU_GUID@@PEAU3@@Z 00000001400bca90 f   cinder:ImageSourceFileWic.obj
 0001:000bbf30       ?registerSelf@ImageSourceFileWic@cinder@@SAXXZ 00000001400bcf30 f   cinder:ImageSourceFileWic.obj
 0001:000bc260       ??0ImageIoExceptionFailedWrite@cinder@@QEAA@AEBV01@@Z 00000001400bd260 f i cinder:ImageTargetFileWic.obj
 0001:000bc2d0       ??0ImageIoExceptionFailedWrite@cinder@@QEAA@AEBV?$basic_string@DU?$char_traits@D@std@@V?$allocator@D@2@@std@@@Z 00000001400bd2d0 f i cinder:ImageTargetFileWic.obj
 0001:000bc300       ??0ImageTargetFileWic@cinder@@IEAA@V?$shared_ptr@VDataTarget@cinder@@@std@@V?$shared_ptr@VImageSource@cinder@@@3@VOptions@ImageTarget@1@AEBV?$basic_string@DU?$char_traits@D@std@@V?$allocator@D@2@@3@@Z 00000001400bd300 f   cinder:ImageTargetFileWic.obj
 0001:000bcfc0       ??1?$_Temporary_owner@V?$map@V?$basic_string@DU?$char_traits@D@std@@V?$allocator@D@2@@std@@PEBU_GUID@@U?$less@V?$basic_string@DU?$char_traits@D@std@@V?$allocator@D@2@@std@@@2@V?$allocator@U?$pair@$$CBV?$basic_string@DU?$char_traits@D@std@@V?$allocator@D@2@@std@@PEBU_GUID@@@std@@@2@@std@@@std@@QEAA@XZ 00000001400bdfc0 f i cinder:ImageTargetFileWic.obj
 0001:000bd010       ??A?$map@V?$basic_string@DU?$char_traits@D@std@@V?$allocator@D@2@@std@@PEBU_GUID@@U?$less@V?$basic_string@DU?$char_traits@D@std@@V?$allocator@D@2@@std@@@2@V?$allocator@U?$pair@$$CBV?$basic_string@DU?$char_traits@D@std@@V?$allocator@D@2@@std@@PEBU_GUID@@@std@@@2@@std@@QEAAAEAPEBU_GUID@@$$QEAV?$basic_string@DU?$char_traits@D@std@@V?$allocator@D@2@@1@@Z 00000001400be010 f i cinder:ImageTargetFileWic.obj
 0001:000bd100       ??_EImageTargetFileWic@cinder@@UEAAPEAXI@Z 00000001400be100 f i cinder:ImageTargetFileWic.obj
 0001:000bd100       ??_GImageTargetFileWic@cinder@@UEAAPEAXI@Z 00000001400be100 f i cinder:ImageTargetFileWic.obj
 0001:000bd220       ?UnlockRegion@ComOStream@msw@cinder@@UEAAJT_ULARGE_INTEGER@@0K@Z 00000001400be220 f i cinder:ImageTargetFileWic.obj
 0001:000bd220       ?Read@ComOStream@msw@cinder@@UEAAJPEAXKPEAK@Z 00000001400be220 f i cinder:ImageTargetFileWic.obj
 0001:000bd220       ?Clone@ComOStream@msw@cinder@@UEAAJPEAPEAUIStream@@@Z 00000001400be220 f i cinder:ImageTargetFileWic.obj
 0001:000bd220       ?CopyTo@ComOStream@msw@cinder@@UEAAJPEAUIStream@@T_ULARGE_INTEGER@@PEAT5@2@Z 00000001400be220 f i cinder:ImageTargetFileWic.obj
 0001:000bd220       ?Stat@ComOStream@msw@cinder@@UEAAJPEAUtagSTATSTG@@K@Z 00000001400be220 f i cinder:ImageTargetFileWic.obj
 0001:000bd220       ?LockRegion@ComOStream@msw@cinder@@UEAAJT_ULARGE_INTEGER@@0K@Z 00000001400be220 f i cinder:ImageTargetFileWic.obj
 0001:000bd220       ?Revert@ComOStream@msw@cinder@@UEAAJXZ 00000001400be220 f i cinder:ImageTargetFileWic.obj
 0001:000bd220       ?Commit@ComOStream@msw@cinder@@UEAAJK@Z 00000001400be220 f i cinder:ImageTargetFileWic.obj
 0001:000bd220       ?SetSize@ComOStream@msw@cinder@@UEAAJT_ULARGE_INTEGER@@@Z 00000001400be220 f i cinder:ImageTargetFileWic.obj
 0001:000bd230       ?_Destroy@?$_Ref_count@V?$map@V?$basic_string@DU?$char_traits@D@std@@V?$allocator@D@2@@std@@PEBU_GUID@@U?$less@V?$basic_string@DU?$char_traits@D@std@@V?$allocator@D@2@@std@@@2@V?$allocator@U?$pair@$$CBV?$basic_string@DU?$char_traits@D@std@@V?$allocator@D@2@@std@@PEBU_GUID@@@std@@@2@@std@@@std@@EEAAXXZ 00000001400be230 f i cinder:ImageTargetFileWic.obj
 0001:000bd280       ?create@ImageTargetFileWic@cinder@@SA?AV?$shared_ptr@VImageTarget@cinder@@@std@@V?$shared_ptr@VDataTarget@cinder@@@4@V?$shared_ptr@VImageSource@cinder@@@4@VOptions@ImageTarget@2@AEBV?$basic_string@DU?$char_traits@D@std@@V?$allocator@D@2@@4@@Z 00000001400be280 f   cinder:ImageTargetFileWic.obj
 0001:000bd420       ?finalize@ImageTargetFileWic@cinder@@UEAAXXZ 00000001400be420 f   cinder:ImageTargetFileWic.obj
 0001:000bd6a0       ?getRowPointer@ImageTargetFileWic@cinder@@UEAAPEAXH@Z 00000001400be6a0 f   cinder:ImageTargetFileWic.obj
 0001:000bd6b0       ?registerSelf@ImageTargetFileWic@cinder@@SAXXZ 00000001400be6b0 f   cinder:ImageTargetFileWic.obj
 0001:000bdec0       ?setupPixelFormat@ImageTargetFileWic@cinder@@IEAAXAEBU_GUID@@@Z 00000001400beec0 f   cinder:ImageTargetFileWic.obj
 0001:000be180       ??0ImageSourceFileRadianceException@cinder@@QEAA@AEBV01@@Z 00000001400bf180 f i cinder:ImageSourceFileRadiance.obj
 0001:000be1f0       ??0ImageSourceFileRadianceException@cinder@@QEAA@AEBV?$basic_string@DU?$char_traits@D@std@@V?$allocator@D@2@@std@@@Z 00000001400bf1f0 f i cinder:ImageSourceFileRadiance.obj
 0001:000be220       ??_GImageSourceFileRadiance@cinder@@UEAAPEAXI@Z 00000001400bf220 f i cinder:ImageSourceFileRadiance.obj
 0001:000be220       ??_EImageSourceFileRadiance@cinder@@UEAAPEAXI@Z 00000001400bf220 f i cinder:ImageSourceFileRadiance.obj
 0001:000be270       ?create@ImageSourceFileRadiance@cinder@@SA?AV?$shared_ptr@VImageSource@cinder@@@std@@V?$shared_ptr@VDataSource@cinder@@@4@VOptions@ImageSource@2@@Z 00000001400bf270 f   cinder:ImageSourceFileRadiance.obj
 0001:000be660       ?load@ImageSourceFileRadiance@cinder@@UEAAXV?$shared_ptr@VImageTarget@cinder@@@std@@@Z 00000001400bf660 f   cinder:ImageSourceFileRadiance.obj
 0001:000be760       ?loadStream@ImageSourceFileRadiance@cinder@@IEAAXV?$shared_ptr@VIStreamCinder@cinder@@@std@@@Z 00000001400bf760 f   cinder:ImageSourceFileRadiance.obj
 0001:000bec10       ?registerSelf@ImageSourceFileRadiance@cinder@@SAXXZ 00000001400bfc10 f   cinder:ImageSourceFileRadiance.obj
 0001:000bec60       ??$_Assign_range@PEBV?$basic_string@DU?$char_traits@D@std@@V?$allocator@D@2@@std@@@?$vector@V?$basic_string@DU?$char_traits@D@std@@V?$allocator@D@2@@std@@V?$allocator@V?$basic_string@DU?$char_traits@D@std@@V?$allocator@D@2@@std@@@2@@std@@AEAAXPEBV?$basic_string@DU?$char_traits@D@std@@V?$allocator@D@2@@1@0Uforward_iterator_tag@1@@Z 00000001400bfc60 f i cinder:ImageFileTinyExr.obj
 0001:000beec0       ??$_Destroy_range@V?$allocator@V?$ChannelT@M@cinder@@@std@@@std@@YAXPEAV?$ChannelT@M@cinder@@QEAV12@AEAV?$allocator@V?$ChannelT@M@cinder@@@0@@Z 00000001400bfec0 f i cinder:ImageFileTinyExr.obj
 0001:000bef40       ??$_Emplace_reallocate@HH@?$vector@V?$ChannelT@M@cinder@@V?$allocator@V?$ChannelT@M@cinder@@@std@@@std@@QEAAPEAV?$ChannelT@M@cinder@@QEAV23@$$QEAH1@Z 00000001400bff40 f i cinder:ImageFileTinyExr.obj
 0001:000bf1e0       ??0ImageIoExceptionFailedLoadTinyExr@cinder@@QEAA@AEBV01@@Z 00000001400c01e0 f i cinder:ImageFileTinyExr.obj
 0001:000bf250       ??0ImageIoExceptionFailedLoadTinyExr@cinder@@QEAA@AEBV?$basic_string@DU?$char_traits@D@std@@V?$allocator@D@2@@std@@@Z 00000001400c0250 f i cinder:ImageFileTinyExr.obj
 0001:000bf280       ??0ImageIoExceptionFailedWriteTinyExr@cinder@@QEAA@AEBV01@@Z 00000001400c0280 f i cinder:ImageFileTinyExr.obj
 0001:000bf2f0       ??0ImageIoExceptionFailedWriteTinyExr@cinder@@QEAA@AEBV?$basic_string@DU?$char_traits@D@std@@V?$allocator@D@2@@std@@@Z 00000001400c02f0 f i cinder:ImageFileTinyExr.obj
 0001:000bf320       ??0ImageSourceFileTinyExr@cinder@@IEAA@V?$shared_ptr@VDataSource@cinder@@@std@@VOptions@ImageSource@1@@Z 00000001400c0320 f   cinder:ImageFileTinyExr.obj
 0001:000bf9c0       ??0ImageTargetFileTinyExr@cinder@@IEAA@V?$shared_ptr@VDataTarget@cinder@@@std@@V?$shared_ptr@VImageSource@cinder@@@3@VOptions@ImageTarget@1@AEBV?$basic_string@DU?$char_traits@D@std@@V?$allocator@D@2@@3@@Z 00000001400c09c0 f   cinder:ImageFileTinyExr.obj
 0001:000bfdb0       ??1?$_Uninitialized_backout_al@V?$allocator@V?$ChannelT@M@cinder@@@std@@@std@@QEAA@XZ 00000001400c0db0 f i cinder:ImageFileTinyExr.obj
 0001:000bfdc0       ??1?$unique_ptr@U_EXRHeader@@V?$function@$$A6AHPEAU_EXRHeader@@@Z@std@@@std@@QEAA@XZ 00000001400c0dc0 f i cinder:ImageFileTinyExr.obj
 0001:000bfdc0       ??1?$unique_ptr@U_EXRImage@@V?$function@$$A6AHPEAU_EXRImage@@@Z@std@@@std@@QEAA@XZ 00000001400c0dc0 f i cinder:ImageFileTinyExr.obj
 0001:000bfe20       ??1?$vector@U_EXRChannelInfo@@V?$allocator@U_EXRChannelInfo@@@std@@@std@@QEAA@XZ 00000001400c0e20 f i cinder:ImageFileTinyExr.obj
 0001:000bfe30       ??1?$vector@V?$ChannelT@M@cinder@@V?$allocator@V?$ChannelT@M@cinder@@@std@@@std@@QEAA@XZ 00000001400c0e30 f i cinder:ImageFileTinyExr.obj
 0001:000bfec0       ??C?$unique_ptr@U_EXRImage@@V?$function@$$A6AHPEAU_EXRImage@@@Z@std@@@std@@QEBAPEAU_EXRImage@@XZ 00000001400c0ec0 f i cinder:ImageFileTinyExr.obj
 0001:000bfed0       ??_EImageSourceFileTinyExr@cinder@@UEAAPEAXI@Z 00000001400c0ed0 f i cinder:ImageFileTinyExr.obj
 0001:000bfed0       ??_GImageSourceFileTinyExr@cinder@@UEAAPEAXI@Z 00000001400c0ed0 f i cinder:ImageFileTinyExr.obj
 0001:000bffc0       ??_EImageTargetFileTinyExr@cinder@@UEAAPEAXI@Z 00000001400c0fc0 f i cinder:ImageFileTinyExr.obj
 0001:000bffc0       ??_GImageTargetFileTinyExr@cinder@@UEAAPEAXI@Z 00000001400c0fc0 f i cinder:ImageFileTinyExr.obj
 0001:000c0060       ?_Move@?$_Func_impl_no_alloc@P6AHPEAU_EXRHeader@@@ZHPEAU1@@std@@EEAAPEAV?$_Func_base@HPEAU_EXRHeader@@@2@PEAX@Z 00000001400c1060 f i cinder:ImageFileTinyExr.obj
 0001:000c0060       ?_Copy@?$_Func_impl_no_alloc@P6AHPEAU_EXRHeader@@@ZHPEAU1@@std@@EEBAPEAV?$_Func_base@HPEAU_EXRHeader@@@2@PEAX@Z 00000001400c1060 f i cinder:ImageFileTinyExr.obj
 0001:000c0080       ?_Copy@?$_Func_impl_no_alloc@P6AHPEAU_EXRImage@@@ZHPEAU1@@std@@EEBAPEAV?$_Func_base@HPEAU_EXRImage@@@2@PEAX@Z 00000001400c1080 f i cinder:ImageFileTinyExr.obj
 0001:000c0080       ?_Move@?$_Func_impl_no_alloc@P6AHPEAU_EXRImage@@@ZHPEAU1@@std@@EEAAPEAV?$_Func_base@HPEAU_EXRImage@@@2@PEAX@Z 00000001400c1080 f i cinder:ImageFileTinyExr.obj
 0001:000c00a0       ?_Destroy@?$vector@V?$ChannelT@M@cinder@@V?$allocator@V?$ChannelT@M@cinder@@@std@@@std@@AEAAXPEAV?$ChannelT@M@cinder@@0@Z 00000001400c10a0 f i cinder:ImageFileTinyExr.obj
 0001:000c00c0       ?_Do_call@?$_Func_impl_no_alloc@P6AHPEAU_EXRHeader@@@ZHPEAU1@@std@@EEAAH$$QEAPEAU_EXRHeader@@@Z 00000001400c10c0 f i cinder:ImageFileTinyExr.obj
 0001:000c00c0       ?_Do_call@?$_Func_impl_no_alloc@P6AHPEAU_EXRImage@@@ZHPEAU1@@std@@EEAAH$$QEAPEAU_EXRImage@@@Z 00000001400c10c0 f i cinder:ImageFileTinyExr.obj
 0001:000c00e0       ?_Target_type@?$_Func_impl_no_alloc@P6AHPEAU_EXRHeader@@@ZHPEAU1@@std@@EEBAAEBVtype_info@@XZ 00000001400c10e0 f i cinder:ImageFileTinyExr.obj
 0001:000c00f0       ?_Target_type@?$_Func_impl_no_alloc@P6AHPEAU_EXRImage@@@ZHPEAU1@@std@@EEBAAEBVtype_info@@XZ 00000001400c10f0 f i cinder:ImageFileTinyExr.obj
 0001:000c0100       ?_Tidy@?$vector@U_EXRChannelInfo@@V?$allocator@U_EXRChannelInfo@@@std@@@std@@AEAAXXZ 00000001400c1100 f i cinder:ImageFileTinyExr.obj
 0001:000c0180       ?_Umove@?$vector@V?$ChannelT@M@cinder@@V?$allocator@V?$ChannelT@M@cinder@@@std@@@std@@AEAAPEAV?$ChannelT@M@cinder@@PEAV34@00@Z 00000001400c1180 f i cinder:ImageFileTinyExr.obj
 0001:000c01e0       ?create@ImageSourceFileTinyExr@cinder@@SA?AV?$shared_ptr@VImageSource@cinder@@@std@@V?$shared_ptr@VDataSource@cinder@@@4@VOptions@ImageSource@2@@Z 00000001400c11e0 f   cinder:ImageFileTinyExr.obj
 0001:000c02e0       ?create@ImageTargetFileTinyExr@cinder@@SA?AV?$shared_ptr@VImageTarget@cinder@@@std@@V?$shared_ptr@VDataTarget@cinder@@@4@V?$shared_ptr@VImageSource@cinder@@@4@VOptions@ImageTarget@2@AEBV?$basic_string@DU?$char_traits@D@std@@V?$allocator@D@2@@4@@Z 00000001400c12e0 f   cinder:ImageFileTinyExr.obj
 0001:000c0480       ?finalize@ImageTargetFileTinyExr@cinder@@UEAAXXZ 00000001400c1480 f   cinder:ImageFileTinyExr.obj
 0001:000c09b0       ?getRowPointer@ImageTargetFileTinyExr@cinder@@UEAAPEAXH@Z 00000001400c19b0 f   cinder:ImageFileTinyExr.obj
 0001:000c09d0       ?load@ImageSourceFileTinyExr@cinder@@UEAAXV?$shared_ptr@VImageTarget@cinder@@@std@@@Z 00000001400c19d0 f   cinder:ImageFileTinyExr.obj
 0001:000c1370       ?registerSelf@ImageSourceFileTinyExr@cinder@@SAXXZ 00000001400c2370 f   cinder:ImageFileTinyExr.obj
 0001:000c13c0       ?registerSelf@ImageTargetFileTinyExr@cinder@@SAXXZ 00000001400c23c0 f   cinder:ImageFileTinyExr.obj
 0001:000c14f0       ??0ImageSourceFileStbImage@cinder@@IEAA@V?$shared_ptr@VDataSource@cinder@@@std@@VOptions@ImageSource@1@@Z 00000001400c24f0 f   cinder:ImageSourceFileStbImage.obj
 0001:000c2010       ??_EImageSourceFileStbImage@cinder@@UEAAPEAXI@Z 00000001400c3010 f i cinder:ImageSourceFileStbImage.obj
 0001:000c2010       ??_GImageSourceFileStbImage@cinder@@UEAAPEAXI@Z 00000001400c3010 f i cinder:ImageSourceFileStbImage.obj
 0001:000c2070       ?create@ImageSourceFileStbImage@cinder@@SA?AV?$shared_ptr@VImageSource@cinder@@@std@@V?$shared_ptr@VDataSource@cinder@@@4@VOptions@ImageSource@2@@Z 00000001400c3070 f i cinder:ImageSourceFileStbImage.obj
 0001:000c2170       ?load@ImageSourceFileStbImage@cinder@@UEAAXV?$shared_ptr@VImageTarget@cinder@@@std@@@Z 00000001400c3170 f   cinder:ImageSourceFileStbImage.obj
 0001:000c26d0       ?registerSelf@ImageSourceFileStbImage@cinder@@SAXXZ 00000001400c36d0 f   cinder:ImageSourceFileStbImage.obj
 0001:000c2900       ?ToInternalContext@VirtualProcessor@details@Concurrency@@MEAAPEAVInternalContextBase@23@PEAUIExecutionContext@3@@Z 00000001400c3900 f   libconcrt:VirtualProcessor.obj
 0001:000cf360       ?stbi__tga_read_rgb16@@YAXPEAUstbi__context@@PEAE@Z 00000001400d0360 f   cinder:ImageSourceFileStbImage.obj
 0001:000cfaf0       ??0ImageTargetFileStbImage@cinder@@IEAA@V?$shared_ptr@VDataTarget@cinder@@@std@@V?$shared_ptr@VImageSource@cinder@@@3@VOptions@ImageTarget@1@AEBV?$basic_string@DU?$char_traits@D@std@@V?$allocator@D@2@@3@@Z 00000001400d0af0 f   cinder:ImageTargetFileStbImage.obj
 0001:000cfe80       ??_EImageTargetFileStbImage@cinder@@UEAAPEAXI@Z 00000001400d0e80 f i cinder:ImageTargetFileStbImage.obj
 0001:000cfe80       ??_GImageTargetFileStbImage@cinder@@UEAAPEAXI@Z 00000001400d0e80 f i cinder:ImageTargetFileStbImage.obj
 0001:000cff70       ?create@ImageTargetFileStbImage@cinder@@SA?AV?$shared_ptr@VImageTarget@cinder@@@std@@V?$shared_ptr@VDataTarget@cinder@@@4@V?$shared_ptr@VImageSource@cinder@@@4@VOptions@ImageTarget@2@AEBV?$basic_string@DU?$char_traits@D@std@@V?$allocator@D@2@@4@@Z 00000001400d0f70 f   cinder:ImageTargetFileStbImage.obj
 0001:000d0110       ?finalize@ImageTargetFileStbImage@cinder@@UEAAXXZ 00000001400d1110 f   cinder:ImageTargetFileStbImage.obj
 0001:000d0910       ?getRowPointer@ImageTargetFileStbImage@cinder@@UEAAPEAXH@Z 00000001400d1910 f   cinder:ImageTargetFileStbImage.obj
 0001:000d0920       ?registerSelf@ImageTargetFileStbImage@cinder@@SAXXZ 00000001400d1920 f   cinder:ImageTargetFileStbImage.obj
 0001:000d0be0       ?stbWriteToStream@cinder@@YAXPEAX0H@Z 00000001400d1be0 f   cinder:ImageTargetFileStbImage.obj
 0001:000d0e40       ?stbi_write_png_to_mem@@YAPEAEPEAEHHHHPEAH@Z 00000001400d1e40 f   cinder:ImageTargetFileStbImage.obj
 0001:000d1d00       ?stbi_zlib_compress@@YAPEAEPEAEHPEAHH@Z 00000001400d2d00 f   cinder:ImageTargetFileStbImage.obj
 0001:000d2e90       ?stbiw__write_hdr_scanline@@YAXPEAUstbi__write_context@@HHPEAEPEAM@Z 00000001400d3e90 f   cinder:ImageTargetFileStbImage.obj
 0001:000d37c0       sprintf                    00000001400d47c0 f i cinder:ImageTargetFileStbImage.obj
 0001:000d3820       ??$_Resize_reallocate@U_Value_init_tag@std@@@?$vector@EV?$allocator@E@std@@@std@@AEAAX_KAEBU_Value_init_tag@1@@Z 00000001400d4820 f i cinder:UrlImplWinInet.obj
 0001:000d3970       ?resize@?$vector@EV?$allocator@E@std@@@std@@QEAAX_K@Z 00000001400d4970 f i cinder:UrlImplWinInet.obj
 0001:000d3a00       ??$_Destroy_range@V?$allocator@V?$vector@EV?$allocator@E@std@@@std@@@std@@@std@@YAXPEAV?$vector@EV?$allocator@E@std@@@0@QEAV10@AEAV?$allocator@V?$vector@EV?$allocator@E@std@@@std@@@0@@Z 00000001400d4a00 f i cinder:tinyexr.obj
 0001:000d3a80       ??$_Emplace_reallocate@AEBUChannelInfo@tinyexr@@@?$vector@UChannelInfo@tinyexr@@V?$allocator@UChannelInfo@tinyexr@@@std@@@std@@QEAAPEAUChannelInfo@tinyexr@@QEAU23@AEBU23@@Z 00000001400d4a80 f i cinder:tinyexr.obj
 0001:000d3c90       ??$_Emplace_reallocate@AEBU_EXRAttribute@@@?$vector@U_EXRAttribute@@V?$allocator@U_EXRAttribute@@@std@@@std@@QEAAPEAU_EXRAttribute@@QEAU2@AEBU2@@Z 00000001400d4c90 f i cinder:tinyexr.obj
 0001:000d3ea0       ??$_Insert_range@PEAE@?$vector@EV?$allocator@E@std@@@std@@AEAAXV?$_Vector_const_iterator@V?$_Vector_val@U?$_Simple_types@E@std@@@std@@@1@PEAE1Uforward_iterator_tag@1@@Z 00000001400d4ea0 f i cinder:tinyexr.obj
 0001:000d3ea0       ??$_Insert_range@PEBE@?$vector@EV?$allocator@E@std@@@std@@AEAAXV?$_Vector_const_iterator@V?$_Vector_val@U?$_Simple_types@E@std@@@std@@@1@PEBE1Uforward_iterator_tag@1@@Z 00000001400d4ea0 f i cinder:tinyexr.obj
 0001:000d3ea0       ??$_Insert_range@PEBD@?$vector@EV?$allocator@E@std@@@std@@AEAAXV?$_Vector_const_iterator@V?$_Vector_val@U?$_Simple_types@E@std@@@std@@@1@PEBD1Uforward_iterator_tag@1@@Z 00000001400d4ea0 f i cinder:tinyexr.obj
 0001:000d3ea0       ??$_Insert_range@PEAD@?$vector@EV?$allocator@E@std@@@std@@AEAAXV?$_Vector_const_iterator@V?$_Vector_val@U?$_Simple_types@E@std@@@std@@@1@PEAD1Uforward_iterator_tag@1@@Z 00000001400d4ea0 f i cinder:tinyexr.obj
 0001:000d4090       ??$_Move_unchecked@PEAEPEAE@std@@YAPEAEPEAE00@Z 00000001400d5090 f i cinder:tinyexr.obj
 0001:000d40c0       ??$_Resize_reallocate@U_Value_init_tag@std@@@?$vector@_KV?$allocator@_K@std@@@std@@AEAAX_KAEBU_Value_init_tag@1@@Z 00000001400d50c0 f i cinder:tinyexr.obj
 0001:000d41d0       ??$_Uninitialized_move@PEAUChannelInfo@tinyexr@@V?$allocator@UChannelInfo@tinyexr@@@std@@@std@@YAPEAUChannelInfo@tinyexr@@QEAU12@0PEAU12@AEAV?$allocator@UChannelInfo@tinyexr@@@0@@Z 00000001400d51d0 f i cinder:tinyexr.obj
 0001:000d4260       ??$insert@PEAE$0A@@?$vector@EV?$allocator@E@std@@@std@@QEAA?AV?$_Vector_iterator@V?$_Vector_val@U?$_Simple_types@E@std@@@std@@@1@V?$_Vector_const_iterator@V?$_Vector_val@U?$_Simple_types@E@std@@@std@@@1@PEAE1@Z 00000001400d5260 f i cinder:tinyexr.obj
 0001:000d42c0       ??$insert@V?$_Vector_iterator@V?$_Vector_val@U?$_Simple_types@E@std@@@std@@@std@@$0A@@?$vector@EV?$allocator@E@std@@@std@@QEAA?AV?$_Vector_iterator@V?$_Vector_val@U?$_Simple_types@E@std@@@std@@@1@V?$_Vector_const_iterator@V?$_Vector_val@U?$_Simple_types@E@std@@@std@@@1@V21@1@Z 00000001400d52c0 f i cinder:tinyexr.obj
 0001:000d4320       ??0?$vector@EV?$allocator@E@std@@@std@@QEAA@_KAEBV?$allocator@E@1@@Z 00000001400d5320 f i cinder:tinyexr.obj
 0001:000d43d0       ??0?$vector@UPIZChannelData@tinyexr@@V?$allocator@UPIZChannelData@tinyexr@@@std@@@std@@QEAA@_KAEBV?$allocator@UPIZChannelData@tinyexr@@@1@@Z 00000001400d53d0 f i cinder:tinyexr.obj
 0001:000d44c0       ??1?$vector@UPIZChannelData@tinyexr@@V?$allocator@UPIZChannelData@tinyexr@@@std@@@std@@QEAA@XZ 00000001400d54c0 f i cinder:tinyexr.obj
 0001:000d4520       ??A?$vector@V?$vector@EV?$allocator@E@std@@@std@@V?$allocator@V?$vector@EV?$allocator@E@std@@@std@@@2@@std@@QEAAAEAV?$vector@EV?$allocator@E@std@@@1@_K@Z 00000001400d5520 f i cinder:tinyexr.obj
 0001:000d45e0       ?CompressPiz@tinyexr@@YA_NPEAEAEAIPEBE_KAEBV?$vector@UChannelInfo@tinyexr@@V?$allocator@UChannelInfo@tinyexr@@@std@@@std@@HH@Z 00000001400d55e0 f   cinder:tinyexr.obj
 0001:000d7870       ?DecompressPiz@tinyexr@@YA_NPEAEPEBE_KHPEBU_EXRChannelInfo@@HH@Z 00000001400d8870 f   cinder:tinyexr.obj
 0001:000d9090       ?_Tidy@?$vector@V?$vector@EV?$allocator@E@std@@@std@@V?$allocator@V?$vector@EV?$allocator@E@std@@@std@@@2@@std@@AEAAXXZ 00000001400da090 f i cinder:tinyexr.obj
 0001:000d9120       ?_Umove@?$vector@EV?$allocator@E@std@@@std@@AEAAPEAEPEAE00@Z 00000001400da120 f i cinder:tinyexr.obj
 0001:000d9150       ?allocate@?$allocator@U_EXRAttribute@@@std@@QEAAPEAU_EXRAttribute@@_K@Z 00000001400da150 f i cinder:tinyexr.obj
 0001:000d91c0       ?at@?$vector@EV?$allocator@E@std@@@std@@QEAAAEAE_K@Z 00000001400da1c0 f i cinder:tinyexr.obj
 0001:000d91f0       ?at@?$vector@_KV?$allocator@_K@std@@@std@@QEAAAEA_K_K@Z 00000001400da1f0 f i cinder:tinyexr.obj
 0001:000d9220       ?deallocate@?$allocator@U_EXRAttribute@@@std@@QEAAXQEAU_EXRAttribute@@_K@Z 00000001400da220 f i cinder:tinyexr.obj
 0001:000d92e0       ?hufBuildDecTable@tinyexr@@YA_NPEB_JHHPEAUHufDec@1@@Z 00000001400da2e0 f   cinder:tinyexr.obj
 0001:000d9c50       ?hufCompress@tinyexr@@YAHQEBGHQEAD@Z 00000001400dac50 f   cinder:tinyexr.obj
 0001:000d9e30       ?hufDecode@tinyexr@@YA_NPEB_JPEBUHufDec@1@PEBDHHHPEAG@Z 00000001400dae30 f   cinder:tinyexr.obj
 0001:000da1b0       ?hufEncode@tinyexr@@YAHPEB_JPEBGHHPEAD@Z 00000001400db1b0 f   cinder:tinyexr.obj
 0001:000da490       ?hufPackEncTable@tinyexr@@YAXPEB_JHHPEAPEAD@Z 00000001400db490 f   cinder:tinyexr.obj
 0001:000da620       ?hufUncompress@tinyexr@@YA_NQEBDHQEAGH@Z 00000001400db620 f   cinder:tinyexr.obj
 0001:000da9b0       ?hufUnpackEncTable@tinyexr@@YA_NPEAPEBDHHHPEA_J@Z 00000001400db9b0 f   cinder:tinyexr.obj
 0001:000db330       FreeEXRHeader              00000001400dc330 f   cinder:tinyexr.obj
 0001:000db3d0       FreeEXRImage               00000001400dc3d0 f   cinder:tinyexr.obj
 0001:000db4d0       InitEXRHeader              00000001400dc4d0 f   cinder:tinyexr.obj
 0001:000db4f0       InitEXRImage               00000001400dc4f0 f   cinder:tinyexr.obj
 0001:000db510       LoadEXRImageFromFile       00000001400dc510 f   cinder:tinyexr.obj
 0001:000db8d0       LoadEXRImageFromMemory     00000001400dc8d0 f   cinder:tinyexr.obj
 0001:000db930       ParseEXRHeaderFromFile     00000001400dc930 f   cinder:tinyexr.obj
 0001:000dbd40       ParseEXRHeaderFromMemory   00000001400dcd40 f   cinder:tinyexr.obj
 0001:000dbfe0       ParseEXRVersionFromFile    00000001400dcfe0 f   cinder:tinyexr.obj
 0001:000dc150       SaveEXRImageToFile         00000001400dd150 f   cinder:tinyexr.obj
 0001:000dc290       SaveEXRImageToMemory       00000001400dd290 f   cinder:tinyexr.obj
 0001:000ddc10       mz_compress2               00000001400dec10 f   cinder:tinyexr.obj
 0001:000de0c0       mz_inflate                 00000001400df0c0 f   cinder:tinyexr.obj
 0001:000dfb30       tdefl_init                 00000001400e0b30 f   cinder:tinyexr.obj
 0001:000e07d0       tinfl_decompress           00000001400e17d0 f   cinder:tinyexr.obj
 0001:000e1f00       adler32                    00000001400e2f00 f   cinder:adler32.obj
 0001:000e1f10       adler32_z                  00000001400e2f10 f   cinder:adler32.obj
 0001:000e21f0       crc32                      00000001400e31f0 f   cinder:crc32.obj
 0001:000e3850       _tr_flush_bits             00000001400e4850 f   cinder:trees.obj
 0001:000e3860       _tr_flush_block            00000001400e4860 f   cinder:trees.obj
 0001:000e3bc0       _tr_stored_block           00000001400e4bc0 f   cinder:trees.obj
 0001:000e53c0       __std_system_error_allocate_message 00000001400e63c0 f   libcpmt:syserror_import_lib.obj
 0001:000e5420       __std_system_error_deallocate_message 00000001400e6420 f   libcpmt:syserror_import_lib.obj
 0001:000e54a0       __std_fs_close_handle      00000001400e64a0 f   libcpmt:filesystem.obj
 0001:000e54c0       __std_fs_code_page         00000001400e64c0 f   libcpmt:filesystem.obj
 0001:000e54e8       __std_fs_convert_narrow_to_wide 00000001400e64e8 f   libcpmt:filesystem.obj
 0001:000e5530       __std_fs_convert_wide_to_narrow 00000001400e6530 f   libcpmt:filesystem.obj
 0001:000e5654       __std_fs_convert_wide_to_narrow_replace_chars 00000001400e6654 f   libcpmt:filesystem.obj
 0001:000e5720       __std_fs_create_directory  00000001400e6720 f   libcpmt:filesystem.obj
 0001:000e5798       __std_fs_get_final_path_name_by_handle 00000001400e6798 f   libcpmt:filesystem.obj
 0001:000e5820       __std_fs_get_stats         00000001400e6820 f   libcpmt:filesystem.obj
 0001:000e5c18       __std_fs_open_handle       00000001400e6c18 f   libcpmt:filesystem.obj
 0001:000e5c70       __std_fs_remove            00000001400e6c70 f   libcpmt:filesystem.obj
 0001:000e5e14       ??0_Init_locks@std@@QEAA@XZ 00000001400e6e14 f   libcpmt:xlock.obj
 0001:000e5e58       ??0_Lockit@std@@QEAA@H@Z   00000001400e6e58 f   libcpmt:xlock.obj
 0001:000e5e94       ??1_Init_locks@std@@QEAA@XZ 00000001400e6e94 f   libcpmt:xlock.obj
 0001:000e5ed0       ??1_Lockit@std@@QEAA@XZ    00000001400e6ed0 f   libcpmt:xlock.obj
 0001:000e5f04       ??0bad_alloc@std@@QEAA@XZ  00000001400e6f04 f i libcpmt:xthrow.obj
 0001:000e5f24       ??0bad_function_call@std@@QEAA@AEBV01@@Z 00000001400e6f24 f i libcpmt:xthrow.obj
 0001:000e5f60       ??0bad_function_call@std@@QEAA@XZ 00000001400e6f60 f i libcpmt:xthrow.obj
 0001:000e5f78       ??0invalid_argument@std@@QEAA@AEBV01@@Z 00000001400e6f78 f i libcpmt:xthrow.obj
 0001:000e5fb4       ??0invalid_argument@std@@QEAA@PEBD@Z 00000001400e6fb4 f i libcpmt:xthrow.obj
 0001:000e5ffc       ??0length_error@std@@QEAA@AEBV01@@Z 00000001400e6ffc f i libcpmt:xthrow.obj
 0001:000e6038       ??0length_error@std@@QEAA@PEBD@Z 00000001400e7038 f i libcpmt:xthrow.obj
 0001:000e6080       ??0out_of_range@std@@QEAA@AEBV01@@Z 00000001400e7080 f i libcpmt:xthrow.obj
 0001:000e60bc       ??0out_of_range@std@@QEAA@PEBD@Z 00000001400e70bc f i libcpmt:xthrow.obj
 0001:000e6104       ??0runtime_error@std@@QEAA@PEBD@Z 00000001400e7104 f i libcpmt:xthrow.obj
 0001:000e614c       ?__scrt_throw_std_bad_alloc@@YAXXZ 00000001400e714c f   LIBCMT:throw_bad_alloc.obj
 0001:000e614c       ?_Xbad_alloc@std@@YAXXZ    00000001400e714c f   libcpmt:xthrow.obj
 0001:000e616c       ?_Xbad_function_call@std@@YAXXZ 00000001400e716c f   libcpmt:xthrow.obj
 0001:000e618c       ?_Xinvalid_argument@std@@YAXPEBD@Z 00000001400e718c f   libcpmt:xthrow.obj
 0001:000e61b0       ?_Xlength_error@std@@YAXPEBD@Z 00000001400e71b0 f   libcpmt:xthrow.obj
 0001:000e61d4       ?_Xout_of_range@std@@YAXPEBD@Z 00000001400e71d4 f   libcpmt:xthrow.obj
 0001:000e61f8       ?_Xruntime_error@std@@YAXPEBD@Z 00000001400e71f8 f   libcpmt:xthrow.obj
 0001:000e621c       ?what@bad_function_call@std@@UEBAPEBDXZ 00000001400e721c f i libcpmt:xthrow.obj
 0001:000e6224       ??0_Locimp@locale@std@@AEAA@_N@Z 00000001400e7224 f i libcpmt:locale0.obj
 0001:000e62ac       ??4?$_Yarn@D@std@@QEAAAEAV01@PEBD@Z 00000001400e72ac f i libcpmt:locale0.obj
 0001:000e6324       ??_G_Locimp@locale@std@@MEAAPEAXI@Z 00000001400e7324 f i libcpmt:locale0.obj
 0001:000e6324       ??_E_Locimp@locale@std@@MEAAPEAXI@Z 00000001400e7324 f i libcpmt:locale0.obj
 0001:000e6380       ?_Facet_Register@std@@YAXPEAV_Facet_base@1@@Z 00000001400e7380 f   libcpmt:locale0.obj
 0001:000e63b8       ?_Getgloballocale@locale@std@@CAPEAV_Locimp@12@XZ 00000001400e73b8 f   libcpmt:locale0.obj
 0001:000e63c0       ?_Init@locale@std@@CAPEAV_Locimp@12@_N@Z 00000001400e73c0 f   libcpmt:locale0.obj
 0001:000e64b8       ?_Locimp_dtor@_Locimp@locale@std@@CAXPEAV123@@Z 00000001400e74b8 f   libcpmt:locale0.obj
 0001:000e6534       ?_Locinfo_ctor@_Locinfo@std@@SAXPEAV12@PEBD@Z 00000001400e7534 f   libcpmt:locale0.obj
 0001:000e65a0       ?_Locinfo_dtor@_Locinfo@std@@SAXPEAV12@@Z 00000001400e75a0 f   libcpmt:locale0.obj
 0001:000e65bc       ?_New_Locimp@_Locimp@locale@std@@CAPEAV123@_N@Z 00000001400e75bc f   libcpmt:locale0.obj
 0001:000e65ec       ?_Setgloballocale@locale@std@@CAXPEAX@Z 00000001400e75ec f   libcpmt:locale0.obj
 0001:000e6620       _Deletegloballocale        00000001400e7620 f   libcpmt:locale0.obj
 0001:000e6690       ?uncaught_exception@std@@YA_NXZ 00000001400e7690 f   libcpmt:uncaught_exception.obj
 0001:000e6698       ?_Syserror_map@std@@YAPEBDH@Z 00000001400e7698 f   libcpmt:syserror.obj
 0001:000e66c0       ?_Winerror_map@std@@YAHH@Z 00000001400e76c0 f   libcpmt:syserror.obj
 0001:000e66e4       _Getctype                  00000001400e76e4 f   libcpmt:_tolower.obj
 0001:000e67a4       _Tolower                   00000001400e77a4 f   libcpmt:_tolower.obj
 0001:000e68d4       _Toupper                   00000001400e78d4 f   libcpmt:_toupper.obj
 0001:000e6a14       ?_Addstd@ios_base@std@@SAXPEAV12@@Z 00000001400e7a14 f   libcpmt:ios.obj
 0001:000e6a8c       ?_Ios_base_dtor@ios_base@std@@CAXPEAV12@@Z 00000001400e7a8c f   libcpmt:ios.obj
 0001:000e6b04       ?_Tidy@ios_base@std@@AEAAXXZ 00000001400e7b04 f i libcpmt:ios.obj
 0001:000e6b84       ??$_Xfiopen@D@std@@YAPEAU_iobuf@@PEBDHH@Z 00000001400e7b84 f i libcpmt:fiopen.obj
 0001:000e6c94       ?_Fiopen@std@@YAPEAU_iobuf@@PEBDHH@Z 00000001400e7c94 f   libcpmt:fiopen.obj
 0001:000e6c9c       ??0bad_exception@std@@QEAA@AEBV01@@Z 00000001400e7c9c f i libcpmt:excptptr.obj
 0001:000e6ce0       ??0bad_exception@std@@QEAA@XZ 00000001400e7ce0 f i libcpmt:excptptr.obj
 0001:000e6d70       ??1?$shared_ptr@$$CBU_EXCEPTION_RECORD@@@std@@QEAA@XZ 00000001400e7d70 f i libcpmt:excptptr.obj
 0001:000e6dc0       ??1bad_exception@std@@UEAA@XZ 00000001400e7dc0 f i libcpmt:excptptr.obj
 0001:000e6de4       ??4?$shared_ptr@$$CBU_EXCEPTION_RECORD@@@std@@QEAAAEAV01@$$QEAV01@@Z 00000001400e7de4 f i libcpmt:excptptr.obj
